(dp0
((S'worth'
p1
S'JJ'
p2
tp3
(S'mentioning'
p4
S'NN'
p5
tp6
tp7
(lp8
I0
aI0
aI1
as((S'same'
p9
g2
tp10
(S'boring'
p11
g5
tp12
tp13
(lp14
I0
aI1
aI0
as((S'technical'
p15
g2
tp16
(S'competence'
p17
g5
tp18
tp19
(lp20
I0
aI1
aI0
as((S'good'
p21
g2
tp22
(S'employer'
p23
g5
tp24
tp25
(lp26
I0
aI1
aI0
as((S'Always'
p27
S'RB'
p28
tp29
(S'working'
p30
S'VBG'
p31
tp32
tp33
(lp34
I0
aI1
aI0
as((S'few'
p35
g2
tp36
(S'other'
p37
g2
tp38
tp39
(lp40
I0
aI2
aI0
as((S'low'
p41
g2
tp42
(S'morale'
p43
g5
tp44
tp45
(lp46
I0
aI2
aI0
as((S'More'
p47
S'RBR'
p48
tp49
(S'decide'
p50
g2
tp51
tp52
(lp53
I0
aI1
aI0
as((S'time'
p54
g5
tp55
(S'low'
p56
g2
tp57
tp58
(lp59
I0
aI1
aI0
as((S'more'
p60
g48
tp61
(S'angry'
p62
g2
tp63
tp64
(lp65
I0
aI1
aI0
as((S'personal'
p66
g2
tp67
(S'communication'
p68
g5
tp69
tp70
(lp71
I0
aI1
aI0
as((S'political'
p72
g2
tp73
(S'environment'
p74
g5
tp75
tp76
(lp77
I0
aI1
aI0
as((S'next'
p78
g2
tp79
(S'generation'
p80
g5
tp81
tp82
(lp83
I0
aI0
aI1
as((S'officially'
p84
g28
tp85
(S'encouraged'
p86
S'VBN'
p87
tp88
tp89
(lp90
I0
aI1
aI0
as((S'other'
p91
g2
tp92
(S'company'
p93
g5
tp94
tp95
(lp96
I0
aI1
aI0
as((S'too'
p97
g28
tp98
(S'busy'
p99
g2
tp100
tp101
(lp102
I0
aI1
aI0
as((S'postal'
p103
g2
tp104
(S'automation'
p105
g5
tp106
tp107
(lp108
I0
aI1
aI0
as((S'highly'
p109
g28
tp110
(S'valued'
p111
g87
tp112
tp113
(lp114
I0
aI0
aI1
as((S'not'
p115
g28
tp116
(S'thought'
p117
S'VBD'
p118
tp119
tp120
(lp121
I0
aI1
aI0
as((S'monetary'
p122
g2
tp123
(S'rewards'
p124
S'NNS'
p125
tp126
tp127
(lp128
I0
aI1
aI0
as((S'not'
p129
g28
tp130
(S'observe'
p131
S'VB'
p132
tp133
tp134
(lp135
I0
aI1
aI0
as((S'few'
p136
g2
tp137
(S'incompetents'
p138
g125
tp139
tp140
(lp141
I0
aI0
aI1
as((S'low'
p142
g2
tp143
(S'carreer'
p144
g5
tp145
tp146
(lp147
I0
aI1
aI0
as((S'global'
p148
g2
tp149
(S'companies'
p150
g125
tp151
tp152
(lp153
I0
aI0
aI1
as((S'after-taste'
p154
g2
tp155
(S'due'
p156
g2
tp157
tp158
(lp159
I0
aI1
aI0
as((S'so'
p160
g28
tp161
(S'excited'
p162
g87
tp163
tp164
(lp165
I0
aI1
aI0
as((S'extra'
p166
g2
tp167
(S'day'
p168
g5
tp169
tp170
(lp171
I0
aI0
aI1
as((S"n't"
p172
g28
tp173
(S'reward'
p174
g132
tp175
tp176
(lp177
I0
aI1
aI0
as((S'key'
p178
g2
tp179
(S'strokes'
p180
g125
tp181
tp182
(lp183
I0
aI1
aI0
as((S'future'
p184
g2
tp185
(S'supervisors'
p186
g125
tp187
tp188
(lp189
I0
aI1
aI0
as((S'very'
p190
g28
tp191
(S'reasonable'
p192
g2
tp193
tp194
(lp195
I0
aI0
aI1
as((S'political'
p196
g2
tp197
(S'company'
p198
g5
tp199
tp200
(lp201
I0
aI1
aI0
as((S'nearly'
p202
g28
tp203
(S'complete'
p204
g2
tp205
tp206
(lp207
I0
aI1
aI0
as((S'little'
p208
g2
tp209
(S'chance'
p210
g5
tp211
tp212
(lp213
I0
aI1
aI0
as((S'different'
p214
g2
tp215
(S'part'
p216
g5
tp217
tp218
(lp219
I0
aI1
aI0
as((S'hard'
p220
g2
tp221
(S'work'
p222
g5
tp223
tp224
(lp225
I0
aI2
aI1
as((S'large'
p226
g2
tp227
(S'systems'
p228
g125
tp229
tp230
(lp231
I0
aI0
aI1
as((S'alone'
p232
g28
tp233
(S'provide'
p234
g132
tp235
tp236
(lp237
I0
aI1
aI0
as((S'bad'
p238
g2
tp239
(S'apples'
p240
g125
tp241
tp242
(lp243
I0
aI1
aI0
as((S'Once'
p244
g28
tp245
(S'rewarding'
p246
g31
tp247
tp248
(lp249
I0
aI1
aI0
as((S'senior'
p250
g2
tp251
(S'management'
p252
g5
tp253
tp254
(lp255
I0
aI1
aI0
as((S'always'
p256
g28
tp257
(S'good'
p258
g2
tp259
tp260
(lp261
I0
aI0
aI1
as((S'last'
p262
g2
tp263
(S'resort'
p264
g5
tp265
tp266
(lp267
I0
aI1
aI0
as((S'new'
p268
g2
tp269
(S'projects'
p270
g125
tp271
tp272
(lp273
I0
aI1
aI0
as((S'same'
p274
g2
tp275
(S'work'
p276
g5
tp277
tp278
(lp279
I0
aI1
aI0
as((S'good'
p280
g2
tp281
(S'location'
p282
g5
tp283
tp284
(lp285
I0
aI0
aI1
as((S'many'
p286
g2
tp287
(S'management'
p288
g5
tp289
tp290
(lp291
I0
aI1
aI0
as((S'simple'
p292
g2
tp293
(S'milestone'
p294
g5
tp295
tp296
(lp297
I0
aI1
aI0
as((S'competence'
p298
g5
tp299
(S'individual'
p300
g2
tp301
tp302
(lp303
I0
aI0
aI1
as((S'glacial'
p304
g2
tp305
(S'pace'
p306
g5
tp307
tp308
(lp309
I0
aI1
aI0
as((S'blatantly'
p310
g28
tp311
(S'discriminated'
p312
g87
tp313
tp314
(lp315
I0
aI1
aI0
as((S'extremely'
p316
g28
tp317
(S'talented'
p318
g87
tp319
tp320
(lp321
I0
aI1
aI0
as((S'rigid'
p322
g2
tp323
(S'company'
p324
g5
tp325
tp326
(lp327
I0
aI1
aI0
as((S'in-house'
p328
g2
tp329
(S'union'
p330
g5
tp331
tp332
(lp333
I0
aI0
aI1
as((S'almost'
p334
g28
tp335
(S'monthly'
p336
g2
tp337
tp338
(lp339
I0
aI1
aI0
as((S'former'
p340
g2
tp341
(S'wireless'
p342
g5
tp343
tp344
(lp345
I0
aI1
aI0
as((S'trite'
p346
g2
tp347
(S'phrases'
p348
g125
tp349
tp350
(lp351
I0
aI1
aI0
as((S'technical'
p352
g2
tp353
(S'issues'
p354
g125
tp355
tp356
(lp357
I0
aI1
aI0
as((S'also'
p358
g28
tp359
(S'provide'
p360
g132
tp361
tp362
(lp363
I0
aI0
aI1
as((S'even'
p364
g28
tp365
(S'get'
p366
g132
tp367
tp368
(lp369
I0
aI1
aI0
as((S'not'
p370
g28
tp371
(S'like'
p372
g132
tp373
tp374
(lp375
I0
aI1
aI0
as((S'good'
p376
g2
tp377
(S'thing'
p378
g5
tp379
tp380
(lp381
I0
aI0
aI1
as((S'much'
p382
g2
tp383
(S'bonus'
p384
g5
tp385
tp386
(lp387
I0
aI1
aI0
as((S'many'
p388
g2
tp389
(S'wells'
p390
g125
tp391
tp392
(lp393
I0
aI1
aI0
as((S'many'
p394
g2
tp395
(S'things'
p396
g125
tp397
tp398
(lp399
I0
aI1
aI0
as((S'quick'
p400
g2
tp401
(S'hiring'
p402
g5
tp403
tp404
(lp405
I0
aI0
aI1
as((S'extremely'
p406
g28
tp407
(S'out-dated'
p408
g2
tp409
tp410
(lp411
I0
aI1
aI0
as((S'hands-on'
p412
g2
tp413
(S'trainings'
p414
g125
tp415
tp416
(lp417
I0
aI0
aI1
as((S'many'
p418
g2
tp419
(S'teams'
p420
g125
tp421
tp422
(lp423
I0
aI1
aI0
as((S'daily'
p424
g2
tp425
(S'challenges'
p426
g125
tp427
tp428
(lp429
I0
aI0
aI1
as((S'strong'
p430
g2
tp431
(S'fiefdoms'
p432
g125
tp433
tp434
(lp435
I0
aI1
aI0
as((S'real'
p436
g2
tp437
(S'raises'
p438
g125
tp439
tp440
(lp441
I0
aI1
aI0
as((S'forward'
p442
g28
tp443
(S'leaning'
p444
g31
tp445
tp446
(lp447
I0
aI0
aI1
as((S'only'
p448
g2
tp449
(S'operator'
p450
g5
tp451
tp452
(lp453
I0
aI1
aI0
as((S'fundamental'
p454
g2
tp455
(S'research'
p456
g5
tp457
tp458
(lp459
I0
aI1
aI0
as((S'big'
p460
g2
tp461
(S'data'
p462
g125
tp463
tp464
(lp465
I0
aI0
aI1
as((S"n't"
p466
g28
tp467
(S'hire'
p468
g132
tp469
tp470
(lp471
I0
aI1
aI0
as((S'relatively'
p472
g28
tp473
(S'low'
p474
g2
tp475
tp476
(lp477
I0
aI0
aI1
as((S'Many'
p478
g2
tp479
(S'technologists'
p480
g125
tp481
tp482
(lp483
I0
aI1
aI0
as((S'essentially'
p484
g28
tp485
(S'throw'
p486
g132
tp487
tp488
(lp489
I0
aI1
aI0
as((S'Medical'
p490
g2
tp491
(S'benefits'
p492
g125
tp493
tp494
(lp495
I0
aI0
aI1
as((S'not'
p496
g28
tp497
(S'work'
p498
g132
tp499
tp500
(lp501
I0
aI1
aI0
as((S'many'
p502
g2
tp503
(S'regulations'
p504
g125
tp505
tp506
(lp507
I0
aI1
aI0
as((S'good'
p508
g2
tp509
(S'office'
p510
g5
tp511
tp512
(lp513
I0
aI0
aI2
as((S'exceptional'
p514
g2
tp515
(S'leaders'
p516
g125
tp517
tp518
(lp519
I0
aI0
aI1
as((S"n't"
p520
g28
tp521
(S'manage'
p522
g132
tp523
tp524
(lp525
I0
aI1
aI0
as((S'single'
p526
g2
tp527
(S'aspect'
p528
g5
tp529
tp530
(lp531
I0
aI1
aI0
as((S'very'
p532
g28
tp533
(S'inconsistent'
p534
g2
tp535
tp536
(lp537
I0
aI1
aI0
as((S'many'
p538
g2
tp539
(S'silos'
p540
g125
tp541
tp542
(lp543
I0
aI1
aI0
as((S'financial'
p544
g2
tp545
(S'footing'
p546
g5
tp547
tp548
(lp549
I0
aI0
aI1
as((S'early'
p550
g2
tp551
(S'raises'
p552
g125
tp553
tp554
(lp555
I0
aI1
aI0
as((S'third'
p556
g2
tp557
(S'party'
p558
g5
tp559
tp560
(lp561
I0
aI1
aI0
as((S'over-all'
p562
g2
tp563
(S'wellness'
p564
g5
tp565
tp566
(lp567
I0
aI0
aI1
as((S'overseas'
p568
g2
tp569
(S'opportunities'
p570
g125
tp571
tp572
(lp573
I0
aI0
aI1
as((S'potential'
p574
g2
tp575
(S'strike'
p576
g5
tp577
tp578
(lp579
I0
aI1
aI0
as((S'Oppressive'
p580
g2
tp581
(S'culture'
p582
g5
tp583
tp584
(lp585
I0
aI1
aI0
as((S'competitive'
p586
g2
tp587
(S'pay'
p588
g5
tp589
tp590
(lp591
I0
aI0
aI1
as((S'Too'
p592
g28
tp593
(S'bad'
p594
g2
tp595
tp596
(lp597
I0
aI1
aI0
as((S'Bad'
p598
g2
tp599
(S'atmosphere'
p600
g5
tp601
tp602
(lp603
I0
aI1
aI0
as((S'too'
p604
g28
tp605
(S'heavy'
p606
g2
tp607
tp608
(lp609
I0
aI1
aI0
as((S'very'
p610
g28
tp611
(S'low'
p612
g2
tp613
tp614
(lp615
I0
aI2
aI0
as((S'very'
p616
g28
tp617
(S'polite'
p618
g2
tp619
tp620
(lp621
I0
aI0
aI1
as((S'glorious'
p622
g2
tp623
(S'past'
p624
g5
tp625
tp626
(lp627
I0
aI1
aI0
as((S'good'
p628
g2
tp629
(S'ending'
p630
g5
tp631
tp632
(lp633
I0
aI1
aI0
as((S'outside'
p634
g2
tp635
(S'programs'
p636
g125
tp637
tp638
(lp639
I0
aI0
aI1
as((S'successful'
p640
g2
tp641
(S'referral'
p642
g5
tp643
tp644
(lp645
I0
aI1
aI0
as((S'inflation-based'
p646
g2
tp647
(S')'
p648
g5
tp649
tp650
(lp651
I0
aI1
aI0
as((S'not'
p652
g28
tp653
(S'typical'
p654
g2
tp655
tp656
(lp657
I0
aI1
aI0
as((S'not'
p658
g28
tp659
(S'affect'
p660
g132
tp661
tp662
(lp663
I0
aI1
aI0
as((S'poor'
p664
g2
tp665
(S'job'
p666
g5
tp667
tp668
(lp669
I0
aI1
aI0
as((S'groups'
p670
g125
tp671
(S'such'
p672
g2
tp673
tp674
(lp675
I0
aI1
aI0
as((S'More'
p676
g48
tp677
(S'get'
p678
g2
tp679
tp680
(lp681
I0
aI1
aI0
as((S'quarterly'
p682
g2
tp683
(S'bonuses'
p684
g125
tp685
tp686
(lp687
I0
aI1
aI0
as((S'often'
p688
g28
tp689
(S'cancelled'
p690
g87
tp691
tp692
(lp693
I0
aI1
aI0
as((S'nothing'
p694
g5
tp695
(S'short'
p696
g2
tp697
tp698
(lp699
I0
aI1
aI0
as((S'main'
p700
g2
tp701
(S'complex'
p702
g5
tp703
tp704
(lp705
I0
aI0
aI1
as((S'full'
p706
g2
tp707
(S'credit'
p708
g5
tp709
tp710
(lp711
I0
aI1
aI0
as((S'not'
p712
g28
tp713
(S'laying'
p714
g31
tp715
tp716
(lp717
I0
aI0
aI1
as((S'really'
p718
g28
tp719
(S'interesting'
p720
g2
tp721
tp722
(lp723
I0
aI0
aI1
as((S'potential'
p724
g2
tp725
(S'ethics'
p726
g125
tp727
tp728
(lp729
I0
aI1
aI0
as((S"n't"
p730
g28
tp731
(S'work'
p732
g132
tp733
tp734
(lp735
I0
aI1
aI0
as((S'emotional'
p736
g2
tp737
(S'intelligence'
p738
g5
tp739
tp740
(lp741
I0
aI1
aI0
as((S'different'
p742
g2
tp743
(S'levels'
p744
g125
tp745
tp746
(lp747
I0
aI1
aI0
as((S'terrific'
p748
g2
tp749
(S'opportunities'
p750
g125
tp751
tp752
(lp753
I0
aI1
aI0
as((S'not'
p754
g28
tp755
(S'exist'
p756
g132
tp757
tp758
(lp759
I0
aI2
aI0
as((S'bad'
p760
g2
tp761
(S'sign'
p762
g5
tp763
tp764
(lp765
I0
aI1
aI0
as((S'not'
p766
g28
tp767
(S'allowed'
p768
g87
tp769
tp770
(lp771
I0
aI3
aI0
as((S'Vindictive'
p772
g2
tp773
(S'bosses'
p774
g125
tp775
tp776
(lp777
I0
aI1
aI0
as((S'give'
p778
g2
tp779
(S'me'
p780
g5
tp781
tp782
(lp783
I0
aI1
aI0
as((S'same'
p784
g2
tp785
(S'standard'
p786
g2
tp787
tp788
(lp789
I0
aI0
aI1
as((S'only'
p790
g28
tp791
(S'value'
p792
g132
tp793
tp794
(lp795
I0
aI1
aI0
as((S'good'
p796
g2
tp797
(S'employee'
p798
g5
tp799
tp800
(lp801
I0
aI1
aI0
as((S'onsite'
p802
g2
tp803
(S'clinic'
p804
g2
tp805
tp806
(lp807
I0
aI1
aI0
as((S'comparable'
p808
g2
tp809
(S'auto'
p810
g5
tp811
tp812
(lp813
I0
aI1
aI0
as((S'nice'
p814
g2
tp815
(S'bonus'
p816
g5
tp817
tp818
(lp819
I0
aI0
aI1
as((S'own'
p820
g2
tp821
(S'self'
p822
g5
tp823
tp824
(lp825
I0
aI1
aI0
as((S'individual'
p826
g2
tp827
(S'early'
p828
g2
tp829
tp830
(lp831
I0
aI0
aI1
as((S'unresponsive/'
p832
g2
tp833
(S'uncaring'
p834
g5
tp835
tp836
(lp837
I0
aI1
aI0
as((S'lasting'
p838
g2
tp839
(S'contribution'
p840
g5
tp841
tp842
(lp843
I0
aI1
aI0
as((S'incredible'
p844
g2
tp845
(S'pay'
p846
g5
tp847
tp848
(lp849
I0
aI0
aI1
as((S'big'
p850
g2
tp851
(S'emphasis'
p852
g5
tp853
tp854
(lp855
I0
aI0
aI1
as((S'Constantly'
p856
g28
tp857
(S'changing'
p858
g31
tp859
tp860
(lp861
I0
aI2
aI0
as((S'great'
p862
g2
tp863
(S'people'
p864
g125
tp865
tp866
(lp867
I0
aI2
aI0
as((S'happy'
p868
g2
tp869
(S'employees'
p870
g125
tp871
tp872
(lp873
I0
aI1
aI0
as((S'bad'
p874
g2
tp875
(S'department'
p876
g5
tp877
tp878
(lp879
I0
aI1
aI1
as((S"n't"
p880
g28
tp881
(S'listen'
p882
g132
tp883
tp884
(lp885
I0
aI1
aI0
as((S'happy'
p886
g2
tp887
(S'thought'
p888
g5
tp889
tp890
(lp891
I0
aI1
aI0
as((S'REALLY'
p892
g28
tp893
(S'nice'
p894
g2
tp895
tp896
(lp897
I0
aI0
aI1
as((S'global'
p898
g2
tp899
(S'consulting'
p900
g5
tp901
tp902
(lp903
I0
aI1
aI0
as((S'first'
p904
g28
tp905
(S'joined'
p906
g118
tp907
tp908
(lp909
I0
aI1
aI0
as((S'personal'
p910
g2
tp911
(S'computer'
p912
g5
tp913
tp914
(lp915
I0
aI1
aI0
as((S'Ridiculous'
p916
g2
tp917
(S'salary'
p918
g5
tp919
tp920
(lp921
I0
aI1
aI0
as((S'sprawling'
p922
g2
tp923
(S'bureaucracy'
p924
g5
tp925
tp926
(lp927
I0
aI1
aI0
as((S'corporate'
p928
g2
tp929
(S'company'
p930
g5
tp931
tp932
(lp933
I0
aI1
aI0
as((S'thus'
p934
g28
tp935
(S'making'
p936
g31
tp937
tp938
(lp939
I0
aI1
aI0
as((S'global'
p940
g2
tp941
(S'company'
p942
g5
tp943
tp944
(lp945
I0
aI1
aI1
as((S'truly'
p946
g28
tp947
(S'disturbing'
p948
g31
tp949
tp950
(lp951
I0
aI1
aI0
as((S'flexible'
p952
g2
tp953
(S'work'
p954
g5
tp955
tp956
(lp957
I0
aI1
aI0
as((S"n't"
p958
g28
tp959
(S'like'
p960
g132
tp961
tp962
(lp963
I0
aI0
aI1
as((S'poor'
p964
g2
tp965
(S'execution'
p966
g5
tp967
tp968
(lp969
I0
aI1
aI0
as((S'early'
p970
g2
tp971
(S'age'
p972
g5
tp973
tp974
(lp975
I0
aI1
aI0
as((S'few'
p976
g2
tp977
(S'support'
p978
g5
tp979
tp980
(lp981
I0
aI1
aI0
as((S'several'
p982
g2
tp983
(S'management'
p984
g5
tp985
tp986
(lp987
I0
aI1
aI0
as((S'next'
p988
g2
tp989
(S'rung'
p990
g5
tp991
tp992
(lp993
I0
aI1
aI0
as((S'first'
p994
g2
tp995
(S'class'
p996
g5
tp997
tp998
(lp999
I0
aI1
aI0
as((S'very'
p1000
g28
tp1001
(S'pleasant'
p1002
g2
tp1003
tp1004
(lp1005
I0
aI0
aI1
as((S'drastically'
p1006
g28
tp1007
(S'increase'
p1008
g132
tp1009
tp1010
(lp1011
I0
aI1
aI0
as((S'enough'
p1012
g28
tp1013
(S'associated'
p1014
g87
tp1015
tp1016
(lp1017
I0
aI1
aI0
as((S'busy'
p1018
g2
tp1019
(S'working'
p1020
g5
tp1021
tp1022
(lp1023
I0
aI1
aI0
as((S'only'
p1024
g2
tp1025
(S'time'
p1026
g5
tp1027
tp1028
(lp1029
I0
aI1
aI0
as((S'self-serve'
p1030
g2
tp1031
(S'options'
p1032
g125
tp1033
tp1034
(lp1035
I0
aI1
aI0
as((S'simple'
p1036
g2
tp1037
(S'billing'
p1038
g5
tp1039
tp1040
(lp1041
I0
aI1
aI0
as((S'not'
p1042
g28
tp1043
(S'rewarded'
p1044
g87
tp1045
tp1046
(lp1047
I0
aI1
aI0
as((S'good'
p1048
g2
tp1049
(S'business'
p1050
g5
tp1051
tp1052
(lp1053
I0
aI0
aI1
as((S'new'
p1054
g2
tp1055
(S'tools'
p1056
g125
tp1057
tp1058
(lp1059
I0
aI1
aI0
as((S'other'
p1060
g2
tp1061
(S'companies'
p1062
g125
tp1063
tp1064
(lp1065
I0
aI2
aI1
as((S'much'
p1066
g2
tp1067
(S'workload'
p1068
g5
tp1069
tp1070
(lp1071
I0
aI1
aI0
as((S'more'
p1072
g48
tp1073
(S'exhausted'
p1074
g87
tp1075
tp1076
(lp1077
I0
aI1
aI0
as((S'retail'
p1078
g2
tp1079
(S'employees'
p1080
g125
tp1081
tp1082
(lp1083
I0
aI1
aI0
as((S"n't"
p1084
g28
tp1085
(S'changed'
p1086
g87
tp1087
tp1088
(lp1089
I0
aI1
aI0
as((S'many'
p1090
g2
tp1091
(S'rigid'
p1092
g2
tp1093
tp1094
(lp1095
I0
aI1
aI0
as((S'prospective'
p1096
g2
tp1097
(S'interns'
p1098
g125
tp1099
tp1100
(lp1101
I0
aI1
aI0
as((S'steal'
p1102
g2
tp1103
(S'sales'
p1104
g125
tp1105
tp1106
(lp1107
I0
aI1
aI0
as((S'free'
p1108
g2
tp1109
(S'checking'
p1110
g5
tp1111
tp1112
(lp1113
I0
aI0
aI1
as((S'too'
p1114
g28
tp1115
(S'late'
p1116
g2
tp1117
tp1118
(lp1119
I0
aI1
aI0
as((S'nice'
p1120
g2
tp1121
(S'place'
p1122
g5
tp1123
tp1124
(lp1125
I0
aI0
aI1
as((S'great'
p1126
g2
tp1127
(S'health'
p1128
g5
tp1129
tp1130
(lp1131
I0
aI0
aI1
as((S'One-Stop'
p1132
g2
tp1133
(g648
g5
tp1134
tp1135
(lp1136
I0
aI1
aI0
as((S'C-level'
p1137
g2
tp1138
(S'executive'
p1139
g5
tp1140
tp1141
(lp1142
I0
aI1
aI0
as((S'so'
p1143
g28
tp1144
(S'bad'
p1145
g2
tp1146
tp1147
(lp1148
I0
aI1
aI0
as((S'good'
p1149
g2
tp1150
(S'bonus'
p1151
g5
tp1152
tp1153
(lp1154
I0
aI0
aI1
as((S'overwork/overstressed'
p1155
g2
tp1156
(S'environment'
p1157
g5
tp1158
tp1159
(lp1160
I0
aI1
aI0
as((S'end-of-month'
p1161
g2
tp1162
(S'forecast'
p1163
g5
tp1164
tp1165
(lp1166
I0
aI1
aI0
as((S'unpractical'
p1167
g2
tp1168
(S'policies'
p1169
g125
tp1170
tp1171
(lp1172
I0
aI1
aI0
as((S'bad'
p1173
g2
tp1174
(S'place'
p1175
g5
tp1176
tp1177
(lp1178
I0
aI1
aI1
as((S'already'
p1179
g28
tp1180
(S'have'
p1181
g132
tp1182
tp1183
(lp1184
I0
aI1
aI0
as((S"n't"
p1185
g28
tp1186
(S'want'
p1187
g132
tp1188
tp1189
(lp1190
I0
aI1
aI0
as((S'completely'
p1191
g28
tp1192
(S'worthless'
p1193
g2
tp1194
tp1195
(lp1196
I0
aI1
aI0
as((S'more'
p1197
g48
tp1198
(S'respected'
p1199
g87
tp1200
tp1201
(lp1202
I0
aI1
aI0
as((S'initial'
p1203
g2
tp1204
(S'base'
p1205
g5
tp1206
tp1207
(lp1208
I0
aI0
aI1
as((S'secondary'
p1209
g2
tp1210
(S'mortgage'
p1211
g5
tp1212
tp1213
(lp1214
I0
aI0
aI1
as((S'big'
p1215
g2
tp1216
(S'plus'
p1217
g5
tp1218
tp1219
(lp1220
I0
aI0
aI1
as((S'political'
p1221
g2
tp1222
(S'animal'
p1223
g2
tp1224
tp1225
(lp1226
I0
aI1
aI0
as((S'regional'
p1227
g2
tp1228
(S'teams'
p1229
g125
tp1230
tp1231
(lp1232
I0
aI1
aI0
as((S"n't"
p1233
g28
tp1234
(S'be'
p1235
g132
tp1236
tp1237
(lp1238
I0
aI2
aI0
as((S'poorly'
p1239
g28
tp1240
(S'paid'
p1241
g87
tp1242
tp1243
(lp1244
I0
aI1
aI0
as((S'conservative'
p1245
g2
tp1246
(S'company'
p1247
g5
tp1248
tp1249
(lp1250
I0
aI0
aI1
as((S'different'
p1251
g2
tp1252
(S'backgrounds'
p1253
g125
tp1254
tp1255
(lp1256
I0
aI0
aI1
as((S'very'
p1257
g28
tp1258
(S'flexible'
p1259
g2
tp1260
tp1261
(lp1262
I0
aI0
aI2
as((S'only'
p1263
g2
tp1264
(S'applies'
p1265
g125
tp1266
tp1267
(lp1268
I0
aI1
aI0
as((S'generally'
p1269
g28
tp1270
(S'available'
p1271
g2
tp1272
tp1273
(lp1274
I0
aI0
aI1
as((S'technical'
p1275
g2
tp1276
(S'support'
p1277
g5
tp1278
tp1279
(lp1280
I0
aI1
aI0
as((S'other'
p1281
g2
tp1282
(S'newbies'
p1283
g125
tp1284
tp1285
(lp1286
I0
aI1
aI0
as((S'personal'
p1287
g2
tp1288
(S'arrogance'
p1289
g5
tp1290
tp1291
(lp1292
I0
aI1
aI0
as((S'lucky'
p1293
g2
tp1294
(S'enough'
p1295
g2
tp1296
tp1297
(lp1298
I0
aI0
aI1
as((S'international'
p1299
g2
tp1300
(S'scope'
p1301
g5
tp1302
tp1303
(lp1304
I0
aI0
aI1
as((S"n't"
p1305
g28
tp1306
(S'come'
p1307
g132
tp1308
tp1309
(lp1310
I0
aI1
aI0
as((S'top'
p1311
g2
tp1312
(S'management'
p1313
g5
tp1314
tp1315
(lp1316
I0
aI2
aI0
as((S'professional'
p1317
g2
tp1318
(S'positions'
p1319
g125
tp1320
tp1321
(lp1322
I0
aI1
aI0
as((S'high'
p1323
g2
tp1324
(S'expectations'
p1325
g125
tp1326
tp1327
(lp1328
I0
aI1
aI0
as((S'High'
p1329
g2
tp1330
(S'expectations'
p1331
g125
tp1332
tp1333
(lp1334
I0
aI1
aI0
as((S"n't"
p1335
g28
tp1336
(S'swimming'
p1337
g31
tp1338
tp1339
(lp1340
I0
aI1
aI0
as((S'competitive'
p1341
g2
tp1342
(S'employees'
p1343
g125
tp1344
tp1345
(lp1346
I0
aI1
aI0
as((S'alternative'
p1347
g2
tp1348
(S'energy'
p1349
g5
tp1350
tp1351
(lp1352
I0
aI1
aI0
as((S'few'
p1353
g2
tp1354
(S'managers'
p1355
g125
tp1356
tp1357
(lp1358
I0
aI1
aI0
as((S'only'
p1359
g28
tp1360
(S'functional'
p1361
g2
tp1362
tp1363
(lp1364
I0
aI1
aI0
as((S'young'
p1365
g2
tp1366
(S'people'
p1367
g125
tp1368
tp1369
(lp1370
I0
aI1
aI0
as((S'Highly'
p1371
g28
tp1372
(S'aggressive'
p1373
g2
tp1374
tp1375
(lp1376
I0
aI1
aI0
as((S'not'
p1377
g28
tp1378
(S'believe'
p1379
g132
tp1380
tp1381
(lp1382
I0
aI1
aI0
as((S'global'
p1383
g2
tp1384
(S'opportunities'
p1385
g125
tp1386
tp1387
(lp1388
I0
aI0
aI1
as((S'awful'
p1389
g2
tp1390
(S'company'
p1391
g5
tp1392
tp1393
(lp1394
I0
aI0
aI1
as((S'big'
p1395
g2
tp1396
(S'brother'
p1397
g5
tp1398
tp1399
(lp1400
I0
aI1
aI0
as((S'very'
p1401
g28
tp1402
(S'understanding'
p1403
g31
tp1404
tp1405
(lp1406
I0
aI0
aI1
as((S'not'
p1407
g28
tp1408
(S'interfering'
p1409
g31
tp1410
tp1411
(lp1412
I0
aI0
aI1
as((S'strong'
p1413
g2
tp1414
(S'career'
p1415
g5
tp1416
tp1417
(lp1418
I0
aI1
aI0
as((S'Many'
p1419
g2
tp1420
(S'lazy'
p1421
g5
tp1422
tp1423
(lp1424
I0
aI1
aI0
as((S'capable'
p1425
g2
tp1426
(S'people'
p1427
g125
tp1428
tp1429
(lp1430
I0
aI0
aI1
as((S'wide'
p1431
g2
tp1432
(S'range'
p1433
g5
tp1434
tp1435
(lp1436
I0
aI0
aI1
as((S'senior'
p1437
g2
tp1438
(S'managers'
p1439
g125
tp1440
tp1441
(lp1442
I0
aI3
aI0
as((S'only'
p1443
g2
tp1444
(S'way'
p1445
g5
tp1446
tp1447
(lp1448
I0
aI1
aI0
as((S'much'
p1449
g28
tp1450
(S'hidden'
p1451
g87
tp1452
tp1453
(lp1454
I0
aI1
aI0
as((S'innovative'
p1455
g2
tp1456
(S'products'
p1457
g125
tp1458
tp1459
(lp1460
I0
aI0
aI1
as((S'pleasant'
p1461
g2
tp1462
(S'environment'
p1463
g5
tp1464
tp1465
(lp1466
I0
aI0
aI1
as((S'major'
p1467
g2
tp1468
(S'oil'
p1469
g5
tp1470
tp1471
(lp1472
I0
aI0
aI1
as((S'overall'
p1473
g2
tp1474
(S'company'
p1475
g5
tp1476
tp1477
(lp1478
I0
aI1
aI0
as((S'directly'
p1479
g28
tp1480
(S'reaching'
p1481
g31
tp1482
tp1483
(lp1484
I0
aI1
aI0
as((S'thoughtful'
p1485
g2
tp1486
(S'employees'
p1487
g125
tp1488
tp1489
(lp1490
I0
aI1
aI0
as((S'mostly'
p1491
g28
tp1492
(S'discouragement'
p1493
g2
tp1494
tp1495
(lp1496
I0
aI1
aI0
as((S'autocratic'
p1497
g2
tp1498
(S'culture'
p1499
g5
tp1500
tp1501
(lp1502
I0
aI1
aI0
as((S'full'
p1503
g2
tp1504
(S'control'
p1505
g5
tp1506
tp1507
(lp1508
I0
aI1
aI0
as((S'great'
p1509
g2
tp1510
(S'place'
p1511
g5
tp1512
tp1513
(lp1514
I0
aI1
aI1
as((S'not'
p1515
g28
tp1516
(S'welcome'
p1517
g132
tp1518
tp1519
(lp1520
I0
aI1
aI0
as((S'next'
p1521
g2
tp1522
(S'reduction'
p1523
g5
tp1524
tp1525
(lp1526
I0
aI1
aI0
as((S'top'
p1527
g2
tp1528
(S'notch'
p1529
g5
tp1530
tp1531
(lp1532
I0
aI0
aI1
as((S'cleverly'
p1533
g28
tp1534
(S'able'
p1535
g2
tp1536
tp1537
(lp1538
I0
aI1
aI0
as((S'either'
p1539
g28
tp1540
(S'replaced'
p1541
g87
tp1542
tp1543
(lp1544
I0
aI1
aI0
as((S"n't"
p1545
g28
tp1546
(S'get'
p1547
g132
tp1548
tp1549
(lp1550
I0
aI2
aI1
as((S'unnecessary'
p1551
g2
tp1552
(S'management'
p1553
g5
tp1554
tp1555
(lp1556
I0
aI1
aI0
as((S'more'
p1557
g48
tp1558
(S'distant'
p1559
g2
tp1560
tp1561
(lp1562
I0
aI0
aI1
as((S'good'
p1563
g2
tp1564
(S'benefits'
p1565
g125
tp1566
tp1567
(lp1568
I0
aI0
aI4
as((S'full'
p1569
g2
tp1570
(S'color'
p1571
g5
tp1572
tp1573
(lp1574
I0
aI1
aI0
as((S'great'
p1575
g2
tp1576
(S'Many'
p1577
g2
tp1578
tp1579
(lp1580
I0
aI0
aI1
as((S'receive'
p1581
g2
tp1582
(S'decent'
p1583
g5
tp1584
tp1585
(lp1586
I0
aI1
aI0
as((S'very'
p1587
g28
tp1588
(S'competitive'
p1589
g2
tp1590
tp1591
(lp1592
I0
aI0
aI1
as((S'only'
p1593
g28
tp1594
(S'promote'
p1595
g132
tp1596
tp1597
(lp1598
I0
aI1
aI0
as((S'professional'
p1599
g2
tp1600
(S'workforce'
p1601
g5
tp1602
tp1603
(lp1604
I0
aI1
aI0
as((S'bad'
p1605
g2
tp1606
(S'things'
p1607
g125
tp1608
tp1609
(lp1610
I0
aI1
aI0
as((S'not'
p1611
g28
tp1612
(S'straightforward'
p1613
g2
tp1614
tp1615
(lp1616
I0
aI0
aI1
as((S'common'
p1617
g2
tp1618
(g648
g5
tp1619
tp1620
(lp1621
I0
aI1
aI0
as((S'wide'
p1622
g2
tp1623
(S'variety'
p1624
g5
tp1625
tp1626
(lp1627
I0
aI0
aI1
as((S'+Financial'
p1628
g2
tp1629
(S'stability'
p1630
g5
tp1631
tp1632
(lp1633
I0
aI0
aI1
as((S'Annual'
p1634
g2
tp1635
(S'bonus'
p1636
g5
tp1637
tp1638
(lp1639
I0
aI0
aI1
as((S"n't"
p1640
g28
tp1641
(S'received'
p1642
g87
tp1643
tp1644
(lp1645
I0
aI1
aI0
as((S'Not'
p1646
g28
tp1647
(S'open'
p1648
g2
tp1649
tp1650
(lp1651
I0
aI1
aI0
as((S'professional'
p1652
g2
tp1653
(S'growth'
p1654
g5
tp1655
tp1656
(lp1657
I0
aI1
aI0
as((S'not'
p1658
g28
tp1659
(S'doing'
p1660
g31
tp1661
tp1662
(lp1663
I0
aI2
aI0
as((S'constantly'
p1664
g28
tp1665
(S'unavailable'
p1666
g2
tp1667
tp1668
(lp1669
I0
aI1
aI0
as((S'fast'
p1670
g2
tp1671
(S'riser'
p1672
g5
tp1673
tp1674
(lp1675
I0
aI1
aI0
as((S'many'
p1676
g2
tp1677
(S'layers'
p1678
g125
tp1679
tp1680
(lp1681
I0
aI3
aI0
as((S'too'
p1682
g28
tp1683
(S'political'
p1684
g2
tp1685
tp1686
(lp1687
I0
aI1
aI0
as((S'not'
p1688
g28
tp1689
(S'diverse'
p1690
g132
tp1691
tp1692
(lp1693
I0
aI1
aI0
as((S'Seriously'
p1694
g28
tp1695
(S'everyone'
p1696
g87
tp1697
tp1698
(lp1699
I0
aI1
aI0
as((S'short'
p1700
g2
tp1701
(S'time'
p1702
g5
tp1703
tp1704
(lp1705
I0
aI1
aI0
as((S'new'
p1706
g2
tp1707
(S'products'
p1708
g125
tp1709
tp1710
(lp1711
I0
aI0
aI1
as((S'next'
p1712
g2
tp1713
(S'year'
p1714
g5
tp1715
tp1716
(lp1717
I0
aI1
aI0
as((S"n't"
p1718
g28
tp1719
(S'conducive'
p1720
g2
tp1721
tp1722
(lp1723
I0
aI1
aI0
as((S'good'
p1724
g2
tp1725
(S'books'
p1726
g125
tp1727
tp1728
(lp1729
I0
aI0
aI1
as((S'Many'
p1730
g2
tp1731
(S'opportunities'
p1732
g125
tp1733
tp1734
(lp1735
I0
aI0
aI1
as((S'corporate'
p1736
g2
tp1737
(S'interference'
p1738
g5
tp1739
tp1740
(lp1741
I0
aI1
aI0
as((S'few'
p1742
g2
tp1743
(S'people'
p1744
g125
tp1745
tp1746
(lp1747
I0
aI1
aI0
as((S'international'
p1748
g2
tp1749
(S'employees'
p1750
g125
tp1751
tp1752
(lp1753
I0
aI1
aI0
as((S'such'
p1754
g2
tp1755
(S'examples'
p1756
g125
tp1757
tp1758
(lp1759
I0
aI1
aI0
as((S'micro-managing'
p1760
g2
tp1761
(S'types'
p1762
g125
tp1763
tp1764
(lp1765
I0
aI0
aI1
as((S'couple'
p1766
g2
tp1767
(S'years'
p1768
g125
tp1769
tp1770
(lp1771
I0
aI1
aI0
as((S'much'
p1772
g2
tp1773
(S'backstabbing'
p1774
g5
tp1775
tp1776
(lp1777
I0
aI1
aI0
as((S'corporate'
p1778
g2
tp1779
(S'finance'
p1780
g5
tp1781
tp1782
(lp1783
I0
aI1
aI0
as((S'dynamic'
p1784
g2
tp1785
(S'atmosphere'
p1786
g5
tp1787
tp1788
(lp1789
I0
aI1
aI0
as((S'absolute'
p1790
g2
tp1791
(S'kick'
p1792
g5
tp1793
tp1794
(lp1795
I0
aI1
aI0
as((S'great'
p1796
g2
tp1797
(S'pay'
p1798
g5
tp1799
tp1800
(lp1801
I0
aI0
aI1
as((S'good'
p1802
g2
tp1803
(S'work'
p1804
g5
tp1805
tp1806
(lp1807
I0
aI0
aI2
as((S'middle'
p1808
g2
tp1809
(S'management'
p1810
g5
tp1811
tp1812
(lp1813
I0
aI3
aI0
as((S'additional'
p1814
g2
tp1815
(S'products'
p1816
g125
tp1817
tp1818
(lp1819
I0
aI1
aI0
as((S'technically'
p1820
g28
tp1821
(S'handicapped'
p1822
g118
tp1823
tp1824
(lp1825
I0
aI1
aI0
as((S'qualified'
p1826
g2
tp1827
(S'woman'
p1828
g5
tp1829
tp1830
(lp1831
I0
aI1
aI0
as((S'+Strong'
p1832
g2
tp1833
(S'safety'
p1834
g5
tp1835
tp1836
(lp1837
I0
aI0
aI1
as((S'likely'
p1838
g2
tp1839
(S'get'
p1840
g5
tp1841
tp1842
(lp1843
I0
aI1
aI0
as((S'medical'
p1844
g2
tp1845
(S'benefits'
p1846
g125
tp1847
tp1848
(lp1849
I0
aI0
aI1
as((S'knowledgeable'
p1850
g2
tp1851
(S'colleagues'
p1852
g125
tp1853
tp1854
(lp1855
I0
aI0
aI1
as((S'not'
p1856
g28
tp1857
(S'be'
p1858
g132
tp1859
tp1860
(lp1861
I0
aI2
aI0
as((S'consciously'
p1862
g28
tp1863
(S'encouraged'
p1864
g87
tp1865
tp1866
(lp1867
I0
aI1
aI0
as((S'wasteful'
p1868
g2
tp1869
(S'spending'
p1870
g5
tp1871
tp1872
(lp1873
I0
aI3
aI0
as((S'other'
p1874
g2
tp1875
(S'employees'
p1876
g125
tp1877
tp1878
(lp1879
I0
aI1
aI1
as((S'so'
p1880
g28
tp1881
(S'such'
p1882
g2
tp1883
tp1884
(lp1885
I0
aI1
aI0
as((S'oil/energy'
p1886
g2
tp1887
(S'company'
p1888
g5
tp1889
tp1890
(lp1891
I0
aI1
aI0
as((S'non-exempt'
p1892
g2
tp1893
(S'workforce'
p1894
g5
tp1895
tp1896
(lp1897
I0
aI0
aI1
as((S"n't"
p1898
g28
tp1899
(S'weeded'
p1900
g87
tp1901
tp1902
(lp1903
I0
aI1
aI0
as((S'On-site'
p1904
g2
tp1905
(S'cafereria'
p1906
g5
tp1907
tp1908
(lp1909
I0
aI0
aI1
as((S'critical'
p1910
g2
tp1911
g671
tp1912
(lp1913
I0
aI1
aI0
as((S'top'
p1914
g2
tp1915
(S'level'
p1916
g5
tp1917
tp1918
(lp1919
I0
aI1
aI0
as((S'long'
p1920
g2
tp1921
(S'time'
p1922
g5
tp1923
tp1924
(lp1925
I0
aI1
aI1
as((S'stable'
p1926
g2
tp1927
(S'organization'
p1928
g5
tp1929
tp1930
(lp1931
I0
aI0
aI1
as((S'Highly'
p1932
g28
tp1933
(S'politicized'
p1934
g87
tp1935
tp1936
(lp1937
I0
aI1
aI0
as((S'Major'
p1938
g2
tp1939
(S'Oil'
p1940
g5
tp1941
tp1942
(lp1943
I0
aI0
aI1
as((S'too'
p1944
g28
tp1945
(S'risk'
p1946
g132
tp1947
tp1948
(lp1949
I0
aI1
aI0
as((S'firms'
p1950
g125
tp1951
(S'-Software'
p1952
g2
tp1953
tp1954
(lp1955
I0
aI1
aI0
as((S'very'
p1956
g28
tp1957
(S'stagnant'
p1958
g2
tp1959
tp1960
(lp1961
I0
aI1
aI0
as((S'Corporate'
p1962
g2
tp1963
(S'bureaucracy'
p1964
g5
tp1965
tp1966
(lp1967
I0
aI1
aI0
as((S'British'
p1968
g2
tp1969
(S'company'
p1970
g5
tp1971
tp1972
(lp1973
I0
aI1
aI0
as((S'whole'
p1974
g2
tp1975
(S'organization'
p1976
g5
tp1977
tp1978
(lp1979
I0
aI1
aI0
as((S'WORK-LIFE'
p1980
g2
tp1981
(S'BALANCE'
p1982
g5
tp1983
tp1984
(lp1985
I0
aI1
aI0
as((S"n't"
p1986
g28
tp1987
(S'agreed'
p1988
g87
tp1989
tp1990
(lp1991
I0
aI1
aI0
as((S'great'
p1992
g2
tp1993
(S'deal'
p1994
g5
tp1995
tp1996
(lp1997
I0
aI1
aI0
as((S'negative'
p1998
g2
tp1999
(S'percent'
p2000
g5
tp2001
tp2002
(lp2003
I0
aI1
aI0
as((S'very'
p2004
g28
tp2005
(S'evident'
p2006
g2
tp2007
tp2008
(lp2009
I0
aI1
aI0
as((S'new'
p2010
g2
tp2011
(S'technology'
p2012
g5
tp2013
tp2014
(lp2015
I0
aI0
aI1
as((S'incredible'
p2016
g2
tp2017
(S'talent'
p2018
g5
tp2019
tp2020
(lp2021
I0
aI0
aI1
as((S'corporate'
p2022
g2
tp2023
(S'leader'
p2024
g5
tp2025
tp2026
(lp2027
I0
aI1
aI0
as((S'scared'
p2028
g2
tp2029
(S'employees'
p2030
g125
tp2031
tp2032
(lp2033
I0
aI0
aI1
as((S'interesting'
p2034
g2
tp2035
(S'position'
p2036
g5
tp2037
tp2038
(lp2039
I0
aI0
aI1
as((S'logical'
p2040
g2
tp2041
(S'business'
p2042
g5
tp2043
tp2044
(lp2045
I0
aI1
aI0
as((S'poor'
p2046
g2
tp2047
(S'performance'
p2048
g5
tp2049
tp2050
(lp2051
I0
aI1
aI0
as((S'political'
p2052
g2
tp2053
(S'game'
p2054
g5
tp2055
tp2056
(lp2057
I0
aI1
aI0
as((S'good'
p2058
g2
tp2059
(S'company'
p2060
g5
tp2061
tp2062
(lp2063
I0
aI1
aI0
as((S'theoretically'
p2064
g28
tp2065
(S'possible'
p2066
g2
tp2067
tp2068
(lp2069
I0
aI1
aI0
as((S'great'
p2070
g2
tp2071
(S'customer'
p2072
g5
tp2073
tp2074
(lp2075
I0
aI0
aI1
as((S'only'
p2076
g2
tp2077
(S'pro'
p2078
g5
tp2079
tp2080
(lp2081
I0
aI0
aI1
as((S'very'
p2082
g28
tp2083
(S'expendable'
p2084
g2
tp2085
tp2086
(lp2087
I0
aI1
aI0
as((S'own'
p2088
g2
tp2089
(S'paycheck'
p2090
g5
tp2091
tp2092
(lp2093
I0
aI0
aI1
as((S'NOT'
p2094
g28
tp2095
(S'equal'
p2096
g2
tp2097
tp2098
(lp2099
I0
aI1
aI0
as((S'great'
p2100
g2
tp2101
(S'benefits'
p2102
g125
tp2103
tp2104
(lp2105
I0
aI0
aI4
as((S'flexible'
p2106
g2
tp2107
(S'working'
p2108
g5
tp2109
tp2110
(lp2111
I0
aI0
aI1
as((S'promotion/'
p2112
g2
tp2113
(S'recognition'
p2114
g5
tp2115
tp2116
(lp2117
I0
aI1
aI0
as((S'only'
p2118
g2
tp2119
(S'problem'
p2120
g5
tp2121
tp2122
(lp2123
I0
aI0
aI1
as((S'not'
p2124
g28
tp2125
(S'respected'
p2126
g87
tp2127
tp2128
(lp2129
I0
aI1
aI0
as((S'Outside'
p2130
g2
tp2131
(S'vendor'
p2132
g5
tp2133
tp2134
(lp2135
I0
aI0
aI1
as((S'now'
p2136
g28
tp2137
(S'regrettable'
p2138
g2
tp2139
tp2140
(lp2141
I0
aI1
aI0
as((S'extremely'
p2142
g28
tp2143
(S'good'
p2144
g2
tp2145
tp2146
(lp2147
I0
aI1
aI0
as((S"n't"
p2148
g28
tp2149
(S'gotten'
p2150
g87
tp2151
tp2152
(lp2153
I0
aI0
aI1
as((S'other'
p2154
g2
tp2155
(S'divisions'
p2156
g125
tp2157
tp2158
(lp2159
I0
aI1
aI0
as((S'whole'
p2160
g2
tp2161
(S'system'
p2162
g5
tp2163
tp2164
(lp2165
I0
aI1
aI0
as((S'year'
p2166
g5
tp2167
(S'due'
p2168
g2
tp2169
tp2170
(lp2171
I0
aI1
aI0
as((S'corporate'
p2172
g2
tp2173
(S'culture'
p2174
g5
tp2175
tp2176
(lp2177
I0
aI2
aI0
as((S'pretty'
p2178
g28
tp2179
(S'poor'
p2180
g2
tp2181
tp2182
(lp2183
I0
aI1
aI0
as((S'so'
p2184
g28
tp2185
(S'forth'
p2186
g2
tp2187
tp2188
(lp2189
I0
aI1
aI0
as((S'worth'
p2190
g2
tp2191
(S'money'
p2192
g5
tp2193
tp2194
(lp2195
I0
aI1
aI0
as((S'more'
p2196
g48
tp2197
(S'employee-centered'
p2198
g2
tp2199
tp2200
(lp2201
I0
aI1
aI0
as((S'unduly'
p2202
g28
tp2203
(S'extreme'
p2204
g132
tp2205
tp2206
(lp2207
I0
aI1
aI0
as((S'not'
p2208
g28
tp2209
(S'need'
p2210
g132
tp2211
tp2212
(lp2213
I0
aI0
aI1
as((S'unstable'
p2214
g2
tp2215
(S'behavior'
p2216
g5
tp2217
tp2218
(lp2219
I0
aI1
aI0
as((S"n't"
p2220
g28
tp2221
(S'been'
p2222
g87
tp2223
tp2224
(lp2225
I0
aI1
aI0
as((S'new'
p2226
g2
tp2227
(S'stuff'
p2228
g5
tp2229
tp2230
(lp2231
I0
aI0
aI1
as((S'many'
p2232
g2
tp2233
(S'managers'
p2234
g125
tp2235
tp2236
(lp2237
I0
aI1
aI1
as((S'lifelong'
p2238
g2
tp2239
(S'friends'
p2240
g125
tp2241
tp2242
(lp2243
I0
aI0
aI1
as((S'great'
p2244
g2
tp2245
(S'Market'
p2246
g5
tp2247
tp2248
(lp2249
I0
aI0
aI1
as((S'other'
p2250
g2
tp2251
(S'words'
p2252
g125
tp2253
tp2254
(lp2255
I0
aI1
aI0
as((S'not'
p2256
g28
tp2257
(S'lead'
p2258
g132
tp2259
tp2260
(lp2261
I0
aI1
aI0
as((S'good'
p2262
g2
tp2263
(S'look'
p2264
g5
tp2265
tp2266
(lp2267
I0
aI1
aI0
as((S'national'
p2268
g2
tp2269
(S'holiday'
p2270
g5
tp2271
tp2272
(lp2273
I0
aI1
aI0
as((S'safe'
p2274
g2
tp2275
(S'work'
p2276
g5
tp2277
tp2278
(lp2279
I0
aI0
aI1
as((S'-Solid'
p2280
g2
tp2281
(S'time'
p2282
g5
tp2283
tp2284
(lp2285
I0
aI0
aI1
as((S'Too'
p2286
g28
tp2287
(S'much'
p2288
g2
tp2289
tp2290
(lp2291
I0
aI1
aI0
as((S'actual'
p2292
g2
tp2293
(S'human'
p2294
g5
tp2295
tp2296
(lp2297
I0
aI1
aI0
as((S'-Arrogant'
p2298
g2
tp2299
(S'management'
p2300
g5
tp2301
tp2302
(lp2303
I0
aI1
aI0
as((S'Competitive'
p2304
g2
tp2305
(S'salary'
p2306
g5
tp2307
tp2308
(lp2309
I0
aI0
aI1
as((S'personal'
p2310
g2
tp2311
(S'brand'
p2312
g5
tp2313
tp2314
(lp2315
I0
aI1
aI1
as((S'daily'
p2316
g2
tp2317
(S'ta'
p2318
g5
tp2319
tp2320
(lp2321
I0
aI1
aI0
as((S'very'
p2322
g28
tp2323
(S'nice'
p2324
g2
tp2325
tp2326
(lp2327
I0
aI0
aI1
as((S'technical'
p2328
g2
tp2329
(S'colleagues'
p2330
g125
tp2331
tp2332
(lp2333
I0
aI0
aI1
as((S'Terrible'
p2334
g2
tp2335
(S'work/life'
p2336
g5
tp2337
tp2338
(lp2339
I0
aI1
aI0
as((S'very'
p2340
g28
tp2341
(S'slow'
p2342
g2
tp2343
tp2344
(lp2345
I0
aI3
aI0
as((S'social'
p2346
g2
tp2347
(S'events'
p2348
g125
tp2349
tp2350
(lp2351
I0
aI0
aI1
as((S'retail'
p2352
g2
tp2353
(S'amp'
p2354
g5
tp2355
tp2356
(lp2357
I0
aI1
aI0
as((S"n't"
p2358
g28
tp2359
(S'allowed'
p2360
g87
tp2361
tp2362
(lp2363
I0
aI1
aI0
as((S'vague'
p2364
g2
tp2365
(S'vision'
p2366
g5
tp2367
tp2368
(lp2369
I0
aI1
aI0
as((S'not'
p2370
g28
tp2371
(S'built'
p2372
g87
tp2373
tp2374
(lp2375
I0
aI1
aI0
as((S'well'
p2376
g28
tp2377
(S'known'
p2378
g87
tp2379
tp2380
(lp2381
I0
aI0
aI1
as((S'consistently'
p2382
g28
tp2383
(S'tell'
p2384
g132
tp2385
tp2386
(lp2387
I0
aI1
aI0
as((S'highly'
p2388
g28
tp2389
(S'competent'
p2390
g87
tp2391
tp2392
(lp2393
I0
aI0
aI1
as((S'very'
p2394
g28
tp2395
(S'knowledge'
p2396
g132
tp2397
tp2398
(lp2399
I0
aI1
aI0
as((S'just'
p2400
g28
tp2401
(S'winging'
p2402
g31
tp2403
tp2404
(lp2405
I0
aI1
aI0
as((S'central'
p2406
g2
tp2407
(S'decision'
p2408
g5
tp2409
tp2410
(lp2411
I0
aI1
aI0
as((S'much'
p2412
g28
tp2413
(S'waste'
p2414
g2
tp2415
tp2416
(lp2417
I0
aI1
aI0
as((S'great'
p2418
g2
tp2419
(S'ideas'
p2420
g125
tp2421
tp2422
(lp2423
I0
aI1
aI0
as((S'possibly'
p2424
g28
tp2425
(S'spend'
p2426
g132
tp2427
tp2428
(lp2429
I0
aI0
aI1
as((S'few'
p2430
g2
tp2431
(S'rewards'
p2432
g125
tp2433
tp2434
(lp2435
I0
aI1
aI0
as((S'recognizable'
p2436
g2
tp2437
(S'name'
p2438
g5
tp2439
tp2440
(lp2441
I0
aI0
aI1
as((S'much'
p2442
g2
tp2443
(S'advancement'
p2444
g5
tp2445
tp2446
(lp2447
I0
aI1
aI0
as((S"n't"
p2448
g28
tp2449
(S'fantastic'
p2450
g2
tp2451
tp2452
(lp2453
I0
aI1
aI0
as((S'corporate'
p2454
g2
tp2455
(S'policy'
p2456
g5
tp2457
tp2458
(lp2459
I0
aI1
aI0
as((S'full'
p2460
g2
tp2461
(S'time'
p2462
g5
tp2463
tp2464
(lp2465
I0
aI0
aI1
as((S'huge'
p2466
g2
tp2467
(S'paychecks'
p2468
g125
tp2469
tp2470
(lp2471
I0
aI1
aI0
as((S'own'
p2472
g2
tp2473
(S'manager'
p2474
g5
tp2475
tp2476
(lp2477
I0
aI1
aI0
as((S'little'
p2478
g2
tp2479
(S'trinkets'
p2480
g125
tp2481
tp2482
(lp2483
I0
aI0
aI1
as((S'not'
p2484
g28
tp2485
(S'worth'
p2486
g2
tp2487
tp2488
(lp2489
I0
aI0
aI1
as((S'once'
p2490
g28
tp2491
(S'paid'
p2492
g118
tp2493
tp2494
(lp2495
I0
aI1
aI0
as((S'too'
p2496
g28
tp2497
(S'many'
p2498
g2
tp2499
tp2500
(lp2501
I0
aI0
aI1
as((S'annual'
p2502
g2
tp2503
(S'plan'
p2504
g5
tp2505
tp2506
(lp2507
I0
aI1
aI0
as((S'never'
p2508
g28
tp2509
(S'get'
p2510
g132
tp2511
tp2512
(lp2513
I0
aI1
aI0
as((S'advanced'
p2514
g2
tp2515
(S'past'
p2516
g5
tp2517
tp2518
(lp2519
I0
aI1
aI0
as((S'high'
p2520
g2
tp2521
(S'school'
p2522
g5
tp2523
tp2524
(lp2525
I0
aI2
aI0
as((S'well'
p2526
g28
tp2527
(S'written'
p2528
g87
tp2529
tp2530
(lp2531
I0
aI0
aI1
as((S'not'
p2532
g28
tp2533
(S'recieved'
p2534
g87
tp2535
tp2536
(lp2537
I0
aI1
aI0
as((S'too'
p2538
g28
tp2539
(S'serious'
p2540
g2
tp2541
tp2542
(lp2543
I0
aI1
aI0
as((S'then'
p2544
g28
tp2545
(S'cancel'
p2546
g132
tp2547
tp2548
(lp2549
I0
aI1
aI0
as(g1290
(S'common'
p2550
g2
tp2551
tp2552
(lp2553
I0
aI1
aI0
as((S'extremely'
p2554
g28
tp2555
(S'uneducated'
p2556
g87
tp2557
tp2558
(lp2559
I0
aI1
aI0
as((S'work-life'
p2560
g2
tp2561
(S'balance'
p2562
g5
tp2563
tp2564
(lp2565
I0
aI0
aI1
as((S'senior'
p2566
g2
tp2567
(S'manager'
p2568
g5
tp2569
tp2570
(lp2571
I0
aI1
aI0
as((S'interesting'
p2572
g2
tp2573
(S'jobs'
p2574
g125
tp2575
tp2576
(lp2577
I0
aI1
aI0
as((S'Japanese'
p2578
g2
tp2579
(S'management'
p2580
g5
tp2581
tp2582
(lp2583
I0
aI0
aI1
as((S'fair'
p2584
g2
tp2585
(S'number'
p2586
g5
tp2587
tp2588
(lp2589
I0
aI0
aI1
as((S'isnt'
p2590
g5
tp2591
(S'willing'
p2592
g2
tp2593
tp2594
(lp2595
I0
aI1
aI0
as((S'new'
p2596
g2
tp2597
(S'roles'
p2598
g125
tp2599
tp2600
(lp2601
I0
aI1
aI0
as((S'poor'
p2602
g2
tp2603
(S'treatment'
p2604
g5
tp2605
tp2606
(lp2607
I0
aI1
aI0
as((S'not'
p2608
g28
tp2609
(S'coarse'
p2610
g132
tp2611
tp2612
(lp2613
I0
aI1
aI0
as((S'too'
p2614
g28
tp2615
(S'restrictive'
p2616
g2
tp2617
tp2618
(lp2619
I0
aI1
aI0
as((S'definitely'
p2620
g28
tp2621
(S'superior'
p2622
g2
tp2623
tp2624
(lp2625
I0
aI1
aI0
as((S'flexible'
p2626
g2
tp2627
(S'hours'
p2628
g125
tp2629
tp2630
(lp2631
I0
aI0
aI1
as((S"n't"
p2632
g28
tp2633
(S'have'
p2634
g132
tp2635
tp2636
(lp2637
I0
aI6
aI0
as((S'not'
p2638
g28
tp2639
(S'seem'
p2640
g132
tp2641
tp2642
(lp2643
I0
aI1
aI0
as((S'good'
p2644
g2
tp2645
(S'performance'
p2646
g5
tp2647
tp2648
(lp2649
I0
aI1
aI1
as((S'Too'
p2650
g28
tp2651
(S'many'
p2652
g2
tp2653
tp2654
(lp2655
I0
aI3
aI0
as((S'high'
p2656
g2
tp2657
(S'pays'
p2658
g125
tp2659
tp2660
(lp2661
I0
aI1
aI0
as((S'very'
p2662
g28
tp2663
(S'competent'
p2664
g2
tp2665
tp2666
(lp2667
I0
aI0
aI1
as((S"n't"
p2668
g28
tp2669
(S'read'
p2670
g132
tp2671
tp2672
(lp2673
I0
aI1
aI0
as((S'retail'
p2674
g2
tp2675
(S'locations'
p2676
g125
tp2677
tp2678
(lp2679
I0
aI1
aI0
as((S'major'
p2680
g2
tp2681
(S'layoffs'
p2682
g125
tp2683
tp2684
(lp2685
I0
aI1
aI0
as((S'low'
p2686
g2
tp2687
(S'emplyee'
p2688
g5
tp2689
tp2690
(lp2691
I0
aI1
aI0
as((S'potential'
p2692
g2
tp2693
g827
tp2694
(lp2695
I0
aI0
aI1
as((S'top'
p2696
g2
tp2697
(S'choice'
p2698
g5
tp2699
tp2700
(lp2701
I0
aI1
aI0
as((S'good'
p2702
g2
tp2703
(S'coworkers'
p2704
g125
tp2705
tp2706
(lp2707
I0
aI0
aI1
as((S'so'
p2708
g28
tp2709
(S'occupied'
p2710
g87
tp2711
tp2712
(lp2713
I0
aI1
aI0
as((S'experienced'
p2714
g2
tp2715
(S'hires'
p2716
g125
tp2717
tp2718
(lp2719
I0
aI1
aI0
as((S'clinically'
p2720
g28
tp2721
(S'depressed'
p2722
g87
tp2723
tp2724
(lp2725
I0
aI1
aI0
as((S'rough'
p2726
g2
tp2727
(S'patch'
p2728
g5
tp2729
tp2730
(lp2731
I0
aI1
aI0
as((S'better'
p2732
g48
tp2733
(S'paied'
p2734
g87
tp2735
tp2736
(lp2737
I0
aI1
aI0
as((S'great'
p2738
g2
tp2739
(S'milestones'
p2740
g125
tp2741
tp2742
(lp2743
I0
aI1
aI0
as((S'same'
p2744
g2
tp2745
(S'teir'
p2746
g5
tp2747
tp2748
(lp2749
I0
aI0
aI1
as((S'not'
p2750
g28
tp2751
(S'contribute'
p2752
g132
tp2753
tp2754
(lp2755
I0
aI1
aI0
as((S'unenjoyable'
p2756
g2
tp2757
(S'culture/workplace'
p2758
g5
tp2759
tp2760
(lp2761
I0
aI1
aI0
as((S'('
p2762
g5
tp2763
(S'i.e'
p2764
g2
tp2765
tp2766
(lp2767
I0
aI0
aI1
as((S'real'
p2768
g2
tp2769
(S'career'
p2770
g5
tp2771
tp2772
(lp2773
I0
aI1
aI0
as((S'many'
p2774
g2
tp2775
(S'staff'
p2776
g5
tp2777
tp2778
(lp2779
I0
aI1
aI0
as((S'so'
p2780
g28
tp2781
(S'many'
p2782
g2
tp2783
tp2784
(lp2785
I0
aI1
aI0
as((S'consistently'
p2786
g28
tp2787
(S'received'
p2788
g118
tp2789
tp2790
(lp2791
I0
aI1
aI0
as((S'not'
p2792
g28
tp2793
(S'oil/gas'
p2794
g2
tp2795
tp2796
(lp2797
I0
aI1
aI0
as((S'extremely'
p2798
g28
tp2799
(S'cocky'
p2800
g2
tp2801
tp2802
(lp2803
I0
aI1
aI0
as((S'following'
p2804
g2
tp2805
(S'year'
p2806
g5
tp2807
tp2808
(lp2809
I0
aI1
aI0
as((S'direct'
p2810
g2
tp2811
(S'employee'
p2812
g5
tp2813
tp2814
(lp2815
I0
aI1
aI0
as((S'not'
p2816
g28
tp2817
(S'consistent'
p2818
g2
tp2819
tp2820
(lp2821
I0
aI1
aI0
as((S'current'
p2822
g2
tp2823
(S'customers'
p2824
g125
tp2825
tp2826
(lp2827
I0
aI1
aI0
as((S'constantly'
p2828
g28
tp2829
(S'trying'
p2830
g31
tp2831
tp2832
(lp2833
I0
aI1
aI0
as((S'past'
p2834
g2
tp2835
(S'year'
p2836
g5
tp2837
tp2838
(lp2839
I0
aI1
aI0
as((S'Daily'
p2840
g28
tp2841
(S'Uncontrolled'
p2842
g87
tp2843
tp2844
(lp2845
I0
aI1
aI0
as((S'good'
p2846
g2
tp2847
(S'vacation'
p2848
g5
tp2849
tp2850
(lp2851
I0
aI0
aI1
as((S'bureaucratic'
p2852
g2
tp2853
(S'debates'
p2854
g125
tp2855
tp2856
(lp2857
I0
aI1
aI0
as((S'continuous'
p2858
g2
tp2859
(S'pay'
p2860
g5
tp2861
tp2862
(lp2863
I0
aI1
aI0
as((S'never'
p2864
g28
tp2865
(S'accepted'
p2866
g118
tp2867
tp2868
(lp2869
I0
aI1
aI0
as((S'global'
p2870
g2
tp2871
(S'presence'
p2872
g5
tp2873
tp2874
(lp2875
I0
aI0
aI1
as((S'good'
p2876
g2
tp2877
(S'relationship'
p2878
g5
tp2879
tp2880
(lp2881
I0
aI1
aI0
as((S'almost'
p2882
g28
tp2883
(S'finished'
p2884
g87
tp2885
tp2886
(lp2887
I0
aI1
aI0
as((S"n't"
p2888
g28
tp2889
(S'see'
p2890
g132
tp2891
tp2892
(lp2893
I0
aI1
aI0
as((S'poor'
p2894
g2
tp2895
(S'time'
p2896
g5
tp2897
tp2898
(lp2899
I0
aI2
aI0
as((S'extremely'
p2900
g28
tp2901
(S'political'
p2902
g2
tp2903
tp2904
(lp2905
I0
aI1
aI0
as((S'all'
p2906
g28
tp2907
(S'working'
p2908
g31
tp2909
tp2910
(lp2911
I0
aI1
aI0
as((S'true'
p2912
g2
tp2913
(S'vision'
p2914
g5
tp2915
tp2916
(lp2917
I0
aI1
aI0
as((S'not'
p2918
g28
tp2919
(S'guarantee'
p2920
g132
tp2921
tp2922
(lp2923
I0
aI1
aI0
as((S'casual'
p2924
g2
tp2925
(S'working'
p2926
g5
tp2927
tp2928
(lp2929
I0
aI0
aI1
as((S"n't"
p2930
g28
tp2931
(S'fight'
p2932
g132
tp2933
tp2934
(lp2935
I0
aI1
aI0
as((S'not'
p2936
g28
tp2937
(S'covered'
p2938
g87
tp2939
tp2940
(lp2941
I0
aI1
aI0
as((S'little'
p2942
g2
tp2943
(S'opportunity'
p2944
g5
tp2945
tp2946
(lp2947
I0
aI1
aI0
as((S'favorite'
p2948
g2
tp2949
(S'catch'
p2950
g5
tp2951
tp2952
(lp2953
I0
aI1
aI0
as((S'not'
p2954
g28
tp2955
(S'respectful'
p2956
g2
tp2957
tp2958
(lp2959
I0
aI1
aI0
as((S"n't"
p2960
g28
tp2961
(S'agree'
p2962
g132
tp2963
tp2964
(lp2965
I0
aI1
aI0
as((S'important'
p2966
g2
tp2967
(S'things'
p2968
g125
tp2969
tp2970
(lp2971
I0
aI1
aI0
as((S'interesting'
p2972
g2
tp2973
(S'job'
p2974
g5
tp2975
tp2976
(lp2977
I0
aI0
aI1
as((S"n't"
p2978
g28
tp2979
(S'know'
p2980
g132
tp2981
tp2982
(lp2983
I0
aI3
aI1
as((S'little'
p2984
g2
tp2985
(S'guidance'
p2986
g5
tp2987
tp2988
(lp2989
I0
aI1
aI0
as((S'huge'
p2990
g2
tp2991
(S'role'
p2992
g5
tp2993
tp2994
(lp2995
I0
aI1
aI0
as((S'low'
p2996
g2
tp2997
(S'cost'
p2998
g5
tp2999
tp3000
(lp3001
I0
aI1
aI0
as((S'probably'
p3002
g28
tp3003
(S'going'
p3004
g31
tp3005
tp3006
(lp3007
I0
aI1
aI0
as((S'good'
p3008
g2
tp3009
(S'Benefits'
p3010
g125
tp3011
tp3012
(lp3013
I0
aI0
aI1
as((S'average'
p3014
g2
tp3015
(S'time'
p3016
g5
tp3017
tp3018
(lp3019
I0
aI1
aI0
as((S'high'
p3020
g2
tp3021
(S'compensation'
p3022
g5
tp3023
tp3024
(lp3025
I0
aI0
aI1
as((S'now'
p3026
g28
tp3027
(S'be'
p3028
g132
tp3029
tp3030
(lp3031
I0
aI1
aI0
as((S'not'
p3032
g28
tp3033
(S'given'
p3034
g87
tp3035
tp3036
(lp3037
I0
aI1
aI0
as((S'high'
p3038
g2
tp3039
(S'quality'
p3040
g5
tp3041
tp3042
(lp3043
I0
aI0
aI1
as((S'basically'
p3044
g28
tp3045
(S'chucked'
p3046
g87
tp3047
tp3048
(lp3049
I0
aI1
aI0
as((S'High'
p3050
g2
tp3051
(S'Stress'
p3052
g5
tp3053
tp3054
(lp3055
I0
aI2
aI0
as((S'very'
p3056
g28
tp3057
(S'strong'
p3058
g2
tp3059
tp3060
(lp3061
I0
aI1
aI0
as((S'great'
p3062
g2
tp3063
(S'product'
p3064
g5
tp3065
tp3066
(lp3067
I0
aI0
aI1
as((S'bad'
p3068
g2
tp3069
(S'managment'
p3070
g5
tp3071
tp3072
(lp3073
I0
aI1
aI0
as((S"n't"
p3074
g28
tp3075
(S'answer'
p3076
g132
tp3077
tp3078
(lp3079
I0
aI1
aI0
as((S'very'
p3080
g28
tp3081
(S'political'
p3082
g2
tp3083
tp3084
(lp3085
I0
aI2
aI0
as((S'always'
p3086
g28
tp3087
(S'wrong'
p3088
g2
tp3089
tp3090
(lp3091
I0
aI1
aI0
as((S'insiders'
p3092
g125
tp3093
(S'and/or'
p3094
g2
tp3095
tp3096
(lp3097
I0
aI0
aI1
as((S'tactical'
p3098
g2
tp3099
(S'operations'
p3100
g125
tp3101
tp3102
(lp3103
I0
aI1
aI0
as((S'outrageous'
p3104
g2
tp3105
(S'cost'
p3106
g5
tp3107
tp3108
(lp3109
I0
aI1
aI0
as((S'just'
p3110
g28
tp3111
(S'horrendous'
p3112
g2
tp3113
tp3114
(lp3115
I0
aI1
aI0
as((S'unprofessional'
p3116
g2
tp3117
(S'behavior'
p3118
g5
tp3119
tp3120
(lp3121
I0
aI1
aI0
as((S'little'
p3122
g2
tp3123
(S'reward'
p3124
g5
tp3125
tp3126
(lp3127
I0
aI1
aI0
as((S'buddy'
p3128
g2
tp3129
(S'system'
p3130
g5
tp3131
tp3132
(lp3133
I0
aI1
aI0
as((S'little'
p3134
g2
tp3135
(S'achievement'
p3136
g5
tp3137
tp3138
(lp3139
I0
aI1
aI0
as((S'rich'
p3140
g2
tp3141
(S'work'
p3142
g5
tp3143
tp3144
(lp3145
I0
aI0
aI1
as((S'good'
p3146
g2
tp3147
(S'fundamentals'
p3148
g125
tp3149
tp3150
(lp3151
I0
aI0
aI1
as((S'just'
p3152
g28
tp3153
(S'found'
p3154
g118
tp3155
tp3156
(lp3157
I0
aI1
aI0
as((S'corporate'
p3158
g2
tp3159
(S'politics'
p3160
g125
tp3161
tp3162
(lp3163
I0
aI1
aI0
as((S'extremely'
p3164
g28
tp3165
(S'important'
p3166
g2
tp3167
tp3168
(lp3169
I0
aI0
aI1
as((S'galactic'
p3170
g2
tp3171
(S'trainwreck'
p3172
g5
tp3173
tp3174
(lp3175
I0
aI1
aI0
as((S'non-management'
p3176
g2
tp3177
(S'employees'
p3178
g125
tp3179
tp3180
(lp3181
I0
aI2
aI0
as((S'too'
p3182
g28
tp3183
(S'comfortable'
p3184
g2
tp3185
tp3186
(lp3187
I0
aI1
aI0
as((S'real'
p3188
g2
tp3189
(S'world'
p3190
g5
tp3191
tp3192
(lp3193
I0
aI1
aI0
as((S'German'
p3194
g2
tp3195
(S'workers'
p3196
g125
tp3197
tp3198
(lp3199
I0
aI0
aI1
as((S'local'
p3200
g2
tp3201
(S'direction'
p3202
g5
tp3203
tp3204
(lp3205
I0
aI1
aI0
as((S'cold-calling'
p3206
g2
tp3207
(S'blitzes'
p3208
g125
tp3209
tp3210
(lp3211
I0
aI1
aI0
as((S'never'
p3212
g28
tp3213
(S'knew'
p3214
g118
tp3215
tp3216
(lp3217
I0
aI1
aI0
as((S'much'
p3218
g2
tp3219
(S'mark-up'
p3220
g5
tp3221
tp3222
(lp3223
I0
aI1
aI0
as((S'not'
p3224
g28
tp3225
(S'top'
p3226
g132
tp3227
tp3228
(lp3229
I0
aI1
aI0
as((S'seasonal'
p3230
g2
tp3231
(S'help'
p3232
g5
tp3233
tp3234
(lp3235
I0
aI1
aI0
as((S'really'
p3236
g28
tp3237
(S'nice'
p3238
g2
tp3239
tp3240
(lp3241
I0
aI0
aI1
as((S'lateral'
p3242
g2
tp3243
(S'mobility'
p3244
g5
tp3245
tp3246
(lp3247
I0
aI1
aI0
as((S'Never'
p3248
g28
tp3249
(S'had'
p3250
g118
tp3251
tp3252
(lp3253
I0
aI0
aI1
as((S'few'
p3254
g2
tp3255
(S'employees'
p3256
g125
tp3257
tp3258
(lp3259
I0
aI1
aI0
as((S'results'
p3260
g125
tp3261
(S'different'
p3262
g2
tp3263
tp3264
(lp3265
I0
aI1
aI0
as((S'not'
p3266
g28
tp3267
(S'assist'
p3268
g132
tp3269
tp3270
(lp3271
I0
aI1
aI0
as((S'serious'
p3272
g2
tp3273
(S'culture'
p3274
g5
tp3275
tp3276
(lp3277
I0
aI1
aI0
as((S'very'
p3278
g28
tp3279
(S'exciting'
p3280
g31
tp3281
tp3282
(lp3283
I0
aI1
aI0
as((S'Highly'
p3284
g28
tp3285
(S'competitive'
p3286
g2
tp3287
tp3288
(lp3289
I0
aI1
aI0
as((S'stressful'
p3290
g2
tp3291
(S'environment'
p3292
g5
tp3293
tp3294
(lp3295
I0
aI1
aI0
as((S'monstrous'
p3296
g2
tp3297
(S'sales'
p3298
g125
tp3299
tp3300
(lp3301
I0
aI1
aI0
as((S'numerous'
p3302
g2
tp3303
(S'online'
p3304
g5
tp3305
tp3306
(lp3307
I0
aI0
aI1
as((S'long'
p3308
g2
tp3309
(S'hours'
p3310
g125
tp3311
tp3312
(lp3313
I0
aI2
aI0
as((S'idealistic'
p3314
g2
tp3315
(S'view'
p3316
g5
tp3317
tp3318
(lp3319
I0
aI0
aI1
as((S'good'
p3320
g2
tp3321
(S'manaagers'
p3322
g125
tp3323
tp3324
(lp3325
I0
aI0
aI1
as((S'ever'
p3326
g28
tp3327
(S'made'
p3328
g87
tp3329
tp3330
(lp3331
I0
aI1
aI0
as((S'high'
p3332
g2
tp3333
g2693
tp3334
(lp3335
I0
aI0
aI1
as((S'too'
p3336
g28
tp3337
(S'difficult'
p3338
g2
tp3339
tp3340
(lp3341
I0
aI0
aI1
as((S'poor'
p3342
g2
tp3343
(S'quality'
p3344
g5
tp3345
tp3346
(lp3347
I0
aI1
aI0
as(g44
(S'drive'
p3348
g2
tp3349
tp3350
(lp3351
I0
aI1
aI0
as((S'poor'
p3352
g2
tp3353
(S'decision'
p3354
g5
tp3355
tp3356
(lp3357
I0
aI1
aI0
as((S'now'
p3358
g28
tp3359
(S'treated'
p3360
g87
tp3361
tp3362
(lp3363
I0
aI1
aI0
as((S'daily'
p3364
g2
tp3365
(S'basis'
p3366
g5
tp3367
tp3368
(lp3369
I0
aI2
aI0
as((S'good'
p3370
g2
tp3371
(S'discount'
p3372
g5
tp3373
tp3374
(lp3375
I0
aI0
aI1
as((S'different'
p3376
g2
tp3377
(S'disciplines'
p3378
g125
tp3379
tp3380
(lp3381
I0
aI0
aI2
as((S'soul-less'
p3382
g2
tp3383
(S'shell'
p3384
g5
tp3385
tp3386
(lp3387
I0
aI1
aI0
as((S'bad'
p3388
g2
tp3389
(S'managers'
p3390
g125
tp3391
tp3392
(lp3393
I0
aI1
aI0
as((S'not'
p3394
g28
tp3395
(S'changed'
p3396
g87
tp3397
tp3398
(lp3399
I0
aI1
aI0
as((S'dysfunctional'
p3400
g2
tp3401
(S'organization'
p3402
g5
tp3403
tp3404
(lp3405
I0
aI1
aI0
as((S'Not'
p3406
g28
tp3407
(S'treated'
p3408
g87
tp3409
tp3410
(lp3411
I0
aI1
aI0
as((S'personal'
p3412
g2
tp3413
(S'life'
p3414
g5
tp3415
tp3416
(lp3417
I0
aI1
aI0
as((S'serial'
p3418
g2
tp3419
(g2762
g5
tp3420
tp3421
(lp3422
I0
aI1
aI0
as((S'internal'
p3423
g2
tp3424
(S'processes'
p3425
g125
tp3426
tp3427
(lp3428
I0
aI1
aI0
as((S'manipulative'
p3429
g2
tp3430
(S'attitudes'
p3431
g125
tp3432
tp3433
(lp3434
I0
aI1
aI0
as((S'fat'
p3435
g2
tp3436
(S'cats'
p3437
g125
tp3438
tp3439
(lp3440
I0
aI1
aI0
as((S'not'
p3441
g28
tp3442
(S'appear'
p3443
g132
tp3444
tp3445
(lp3446
I0
aI1
aI0
as((S'constant'
p3447
g2
tp3448
(S'abuse'
p3449
g5
tp3450
tp3451
(lp3452
I0
aI1
aI0
as((S'late'
p3453
g2
tp3454
(S'get'
p3455
g5
tp3456
tp3457
(lp3458
I0
aI1
aI0
as((S'verbal'
p3459
g2
tp3460
(S'abuse'
p3461
g5
tp3462
tp3463
(lp3464
I0
aI1
aI0
as((S'very'
p3465
g28
tp3466
(S'dificult'
p3467
g118
tp3468
tp3469
(lp3470
I0
aI1
aI0
as((S'even'
p3471
g28
tp3472
(S'honor'
p3473
g132
tp3474
tp3475
(lp3476
I0
aI1
aI0
as((S'actually'
p3477
g28
tp3478
(S'decent'
p3479
g2
tp3480
tp3481
(lp3482
I0
aI0
aI1
as((S'good'
p3483
g2
tp3484
(S'benefit'
p3485
g5
tp3486
tp3487
(lp3488
I0
aI0
aI1
as((S'Outstanding'
p3489
g2
tp3490
(S'reputation'
p3491
g5
tp3492
tp3493
(lp3494
I0
aI0
aI1
as((S'Bad'
p3495
g2
tp3496
(S'pay'
p3497
g5
tp3498
tp3499
(lp3500
I0
aI1
aI0
as((S'only'
p3501
g2
tp3502
(S'serves'
p3503
g125
tp3504
tp3505
(lp3506
I0
aI1
aI0
as((S'bad'
p3507
g2
tp3508
(S'news'
p3509
g5
tp3510
tp3511
(lp3512
I0
aI1
aI0
as((S'relative'
p3513
g2
tp3514
(S'grading'
p3515
g5
tp3516
tp3517
(lp3518
I0
aI1
aI0
as((S'now'
p3519
g28
tp3520
(S'rocked'
p3521
g118
tp3522
tp3523
(lp3524
I0
aI1
aI0
as((S'various'
p3525
g2
tp3526
(S'units'
p3527
g125
tp3528
tp3529
(lp3530
I0
aI0
aI2
as((S'short'
p3531
g2
tp3532
(S'assignments'
p3533
g125
tp3534
tp3535
(lp3536
I0
aI1
aI0
as((S'very'
p3537
g28
tp3538
(S'aggressive'
p3539
g2
tp3540
tp3541
(lp3542
I0
aI1
aI0
as((S'significant'
p3543
g2
tp3544
(S'presence'
p3545
g5
tp3546
tp3547
(lp3548
I0
aI0
aI1
as((S'retail'
p3549
g2
tp3550
(S'side'
p3551
g5
tp3552
tp3553
(lp3554
I0
aI1
aI0
as((S'other'
p3555
g2
tp3556
(S'bank'
p3557
g5
tp3558
tp3559
(lp3560
I0
aI0
aI1
as((S'internal'
p3561
g2
tp3562
(S'job'
p3563
g5
tp3564
tp3565
(lp3566
I0
aI2
aI0
as((S'..the'
p3567
g2
tp3568
(S'company'
p3569
g5
tp3570
tp3571
(lp3572
I0
aI1
aI0
as((S"n't"
p3573
g28
tp3574
(S'walk'
p3575
g132
tp3576
tp3577
(lp3578
I0
aI1
aI0
as((S'strong'
p3579
g2
tp3580
(S'supporter'
p3581
g5
tp3582
tp3583
(lp3584
I0
aI1
aI0
as((S'even'
p3585
g28
tp3586
(S'know'
p3587
g132
tp3588
tp3589
(lp3590
I0
aI1
aI0
as((S'good'
p3591
g2
tp3592
(S'guidance'
p3593
g5
tp3594
tp3595
(lp3596
I0
aI0
aI1
as((S'much'
p3597
g2
tp3598
(S'resistance'
p3599
g5
tp3600
tp3601
(lp3602
I0
aI1
aI0
as((S'negative'
p3603
g2
tp3604
(S'affect'
p3605
g5
tp3606
tp3607
(lp3608
I0
aI1
aI0
as((S'very'
p3609
g28
tp3610
(S'impersonal'
p3611
g2
tp3612
tp3613
(lp3614
I0
aI1
aI0
as((S'basically'
p3615
g28
tp3616
(S'told'
p3617
g87
tp3618
tp3619
(lp3620
I0
aI1
aI0
as((S'very'
p3621
g28
tp3622
(S'large'
p3623
g2
tp3624
tp3625
(lp3626
I0
aI0
aI3
as((S'current'
p3627
g2
tp3628
(S'year'
p3629
g5
tp3630
tp3631
(lp3632
I0
aI1
aI0
as((S'anonymously'
p3633
g28
tp3634
(S'review'
p3635
g132
tp3636
tp3637
(lp3638
I0
aI1
aI0
as((S'-Some'
p3639
g2
tp3640
(S'smart'
p3641
g5
tp3642
tp3643
(lp3644
I0
aI0
aI1
as((S'open-door'
p3645
g2
tp3646
(S'policy'
p3647
g5
tp3648
tp3649
(lp3650
I0
aI1
aI0
as((S'monthly'
p3651
g2
tp3652
(S'service'
p3653
g5
tp3654
tp3655
(lp3656
I0
aI0
aI1
as((S'too'
p3657
g28
tp3658
(S'afraid'
p3659
g118
tp3660
tp3661
(lp3662
I0
aI1
aI0
as((S'not'
p3663
g28
tp3664
(S'respond'
p3665
g132
tp3666
tp3667
(lp3668
I0
aI1
aI0
as((S'political'
p3669
g2
tp3670
(S'office'
p3671
g5
tp3672
tp3673
(lp3674
I0
aI1
aI0
as((S'personal'
p3675
g2
tp3676
(S'phone'
p3677
g5
tp3678
tp3679
(lp3680
I0
aI1
aI0
as((S'recallable'
p3681
g2
tp3682
(S'performance'
p3683
g5
tp3684
tp3685
(lp3686
I0
aI1
aI0
as((S'not'
p3687
g28
tp3688
(S'encouraged'
p3689
g2
tp3690
tp3691
(lp3692
I0
aI1
aI0
as((S'very'
p3693
g28
tp3694
(S'stressful'
p3695
g2
tp3696
tp3697
(lp3698
I0
aI0
aI1
as((S'not'
p3699
g28
tp3700
(S'leaving'
p3701
g31
tp3702
tp3703
(lp3704
I0
aI0
aI1
as((S'basic'
p3705
g2
tp3706
(S'job'
p3707
g5
tp3708
tp3709
(lp3710
I0
aI0
aI1
as((S'previously'
p3711
g28
tp3712
(S'such'
p3713
g2
tp3714
tp3715
(lp3716
I0
aI1
aI0
as((S'policies'
p3717
g125
tp3718
(S'-Good'
p3719
g2
tp3720
tp3721
(lp3722
I0
aI0
aI1
as((S'Other'
p3723
g2
tp3724
(S'parts'
p3725
g125
tp3726
tp3727
(lp3728
I0
aI1
aI0
as((S'internal'
p3729
g2
tp3730
(S'battle'
p3731
g5
tp3732
tp3733
(lp3734
I0
aI1
aI0
as((S'poor'
p3735
g2
tp3736
(S'culture/environment'
p3737
g2
tp3738
tp3739
(lp3740
I0
aI1
aI0
as((S'little'
p3741
g2
tp3742
(S'training'
p3743
g5
tp3744
tp3745
(lp3746
I0
aI1
aI0
as((S'not'
p3747
g28
tp3748
(S'ideal'
p3749
g2
tp3750
tp3751
(lp3752
I0
aI2
aI0
as((S'single'
p3753
g2
tp3754
(S'line'
p3755
g5
tp3756
tp3757
(lp3758
I0
aI1
aI0
as((S'hires'
p3759
g125
tp3760
(S'-All'
p3761
g2
tp3762
tp3763
(lp3764
I0
aI1
aI0
as((S'good'
p3765
g2
tp3766
(S'jobs'
p3767
g125
tp3768
tp3769
(lp3770
I0
aI0
aI1
as((S'much'
p3771
g2
tp3772
(S'telecommuting'
p3773
g5
tp3774
tp3775
(lp3776
I0
aI1
aI0
as((S'own'
p3777
g2
tp3778
(S'employees'
p3779
g125
tp3780
tp3781
(lp3782
I0
aI1
aI0
as((S'only'
p3783
g28
tp3784
(S'outspoken'
p3785
g87
tp3786
tp3787
(lp3788
I0
aI1
aI0
as((S'onsite'
p3789
g2
tp3790
(S'cafeteria'
p3791
g5
tp3792
tp3793
(lp3794
I0
aI0
aI1
as((S'great'
p3795
g2
tp3796
(S'experience'
p3797
g5
tp3798
tp3799
(lp3800
I0
aI0
aI1
as((S'direct'
p3801
g2
tp3802
(S'reports'
p3803
g125
tp3804
tp3805
(lp3806
I0
aI1
aI0
as((S'heavily'
p3807
g28
tp3808
(S'medicated'
p3809
g87
tp3810
tp3811
(lp3812
I0
aI1
aI0
as((S'decidedly'
p3813
g28
tp3814
(S'limited'
p3815
g87
tp3816
tp3817
(lp3818
I0
aI1
aI0
as((S'daily'
p3819
g2
tp3820
(S'work'
p3821
g5
tp3822
tp3823
(lp3824
I0
aI0
aI1
as((S'nice'
p3825
g2
tp3826
(S'resume'
p3827
g5
tp3828
tp3829
(lp3830
I0
aI0
aI1
as((S'other'
p3831
g2
tp3832
(S'plants'
p3833
g125
tp3834
tp3835
(lp3836
I0
aI1
aI0
as((S'dependable'
p3837
g2
tp3838
(S'network'
p3839
g5
tp3840
tp3841
(lp3842
I0
aI0
aI1
as((S'not'
p3843
g28
tp3844
(S'surprising'
p3845
g2
tp3846
tp3847
(lp3848
I0
aI1
aI0
as((S'negative'
p3849
g2
tp3850
(S'environment'
p3851
g5
tp3852
tp3853
(lp3854
I0
aI1
aI0
as((S'wrong'
p3855
g2
tp3856
(S'people'
p3857
g125
tp3858
tp3859
(lp3860
I0
aI1
aI0
as((S'public'
p3861
g2
tp3862
(S'holidays'
p3863
g125
tp3864
tp3865
(lp3866
I0
aI1
aI0
as((S'not'
p3867
g28
tp3868
(S'get'
p3869
g132
tp3870
tp3871
(lp3872
I0
aI3
aI0
as((S'educational'
p3873
g2
tp3874
(S'degrees'
p3875
g125
tp3876
tp3877
(lp3878
I0
aI1
aI0
as((S'terrible'
p3879
g2
tp3880
(g648
g5
tp3881
tp3882
(lp3883
I0
aI1
aI0
as((S'extremely'
p3884
g28
tp3885
(S'risk-averse'
p3886
g2
tp3887
tp3888
(lp3889
I0
aI1
aI0
as((S'large'
p3890
g2
tp3891
(S'company'
p3892
g5
tp3893
tp3894
(lp3895
I0
aI1
aI0
as((S'charitable'
p3896
g2
tp3897
(S'contributions'
p3898
g125
tp3899
tp3900
(lp3901
I0
aI0
aI1
as((S'new'
p3902
g2
tp3903
(S'role'
p3904
g5
tp3905
tp3906
(lp3907
I0
aI1
aI0
as((S'funny'
p3908
g2
tp3909
(S'money'
p3910
g5
tp3911
tp3912
(lp3913
I0
aI1
aI0
as((S'high'
p3914
g2
tp3915
(S'management'
p3916
g5
tp3917
tp3918
(lp3919
I0
aI1
aI0
as((S'low'
p3920
g2
tp3921
(S'pay'
p3922
g5
tp3923
tp3924
(lp3925
I0
aI1
aI0
as((S'Stable'
p3926
g2
tp3927
(S'company'
p3928
g5
tp3929
tp3930
(lp3931
I0
aI0
aI1
as((S'not'
p3932
g28
tp3933
(S'have'
p3934
g132
tp3935
tp3936
(lp3937
I0
aI2
aI0
as((S'actual'
p3938
g2
tp3939
(S'work'
p3940
g5
tp3941
tp3942
(lp3943
I0
aI1
aI0
as((S'own'
p3944
g2
tp3945
(S'department'
p3946
g5
tp3947
tp3948
(lp3949
I0
aI0
aI1
as((S'never'
p3950
g28
tp3951
(S'had'
p3952
g118
tp3953
tp3954
(lp3955
I0
aI1
aI0
as((S'much'
p3956
g2
tp3957
(S'smoke'
p3958
g5
tp3959
tp3960
(lp3961
I0
aI1
aI0
as((S'overall'
p3962
g2
tp3963
(S'unmet'
p3964
g5
tp3965
tp3966
(lp3967
I0
aI1
aI0
as((S'very'
p3968
g28
tp3969
(S'few'
p3970
g2
tp3971
tp3972
(lp3973
I0
aI2
aI0
as((S'not'
p3974
g28
tp3975
(S'reflect'
p3976
g132
tp3977
tp3978
(lp3979
I0
aI1
aI0
as((S'private'
p3980
g2
tp3981
(S'offices'
p3982
g125
tp3983
tp3984
(lp3985
I0
aI0
aI1
as((S'manual'
p3986
g2
tp3987
(S'tasks'
p3988
g125
tp3989
tp3990
(lp3991
I0
aI1
aI0
as((S'necessary'
p3992
g2
tp3993
(S'skills'
p3994
g125
tp3995
tp3996
(lp3997
I0
aI1
aI0
as((S'old'
p3998
g2
tp3999
(S'technology'
p4000
g5
tp4001
tp4002
(lp4003
I0
aI1
aI0
as((S'old'
p4004
g2
tp4005
(S'style'
p4006
g5
tp4007
tp4008
(lp4009
I0
aI1
aI0
as((S'CONSTANTLY'
p4010
g28
tp4011
(S'asking'
p4012
g31
tp4013
tp4014
(lp4015
I0
aI0
aI1
as((S'weak/poor'
p4016
g2
tp4017
(S'supervisors'
p4018
g125
tp4019
tp4020
(lp4021
I0
aI1
aI0
as((S'quite'
p4022
g28
tp4023
(S'heavy-handed'
p4024
g2
tp4025
tp4026
(lp4027
I0
aI1
aI0
as((S'just'
p4028
g28
tp4029
(S'flat'
p4030
g2
tp4031
tp4032
(lp4033
I0
aI1
aI0
as((S'Institutional'
p4034
g2
tp4035
(S'arrogance'
p4036
g5
tp4037
tp4038
(lp4039
I0
aI1
aI0
as((S'average'
p4040
g2
tp4041
(S'pay'
p4042
g5
tp4043
tp4044
(lp4045
I0
aI1
aI0
as((S'new'
p4046
g2
tp4047
(S'meaning'
p4048
g5
tp4049
tp4050
(lp4051
I0
aI1
aI0
as((S'very'
p4052
g28
tp4053
(S'depressing'
p4054
g31
tp4055
tp4056
(lp4057
I0
aI1
aI0
as((S'current'
p4058
g2
tp4059
(S'employer'
p4060
g5
tp4061
tp4062
(lp4063
I0
aI0
aI1
as((S'very'
p4064
g28
tp4065
(S'talented'
p4066
g87
tp4067
tp4068
(lp4069
I0
aI0
aI1
as((S'Politically'
p4070
g28
tp4071
(S'focused'
p4072
g87
tp4073
tp4074
(lp4075
I0
aI1
aI0
as((S'not'
p4076
g28
tp4077
(S'personable'
p4078
g2
tp4079
tp4080
(lp4081
I0
aI1
aI0
as((S'not'
p4082
g28
tp4083
(S'able'
p4084
g2
tp4085
tp4086
(lp4087
I0
aI1
aI0
as((S'technical'
p4088
g2
tp4089
(S'knowledge'
p4090
g5
tp4091
tp4092
(lp4093
I0
aI2
aI0
as((S'Many'
p4094
g2
tp4095
(S'Many'
p4096
g2
tp4097
tp4098
(lp4099
I0
aI1
aI0
as((S'good'
p4100
g2
tp4101
(S'health'
p4102
g5
tp4103
tp4104
(lp4105
I0
aI0
aI1
as((S'not'
p4106
g28
tp4107
(S'encourage'
p4108
g132
tp4109
tp4110
(lp4111
I0
aI1
aI0
as((S'Unmatched'
p4112
g2
tp4113
(S'suite'
p4114
g5
tp4115
tp4116
(lp4117
I0
aI0
aI1
as((S"n't"
p4118
g28
tp4119
(S'need'
p4120
g132
tp4121
tp4122
(lp4123
I0
aI3
aI0
as((S'manner'
p4124
g5
tp4125
(S'similar'
p4126
g2
tp4127
tp4128
(lp4129
I0
aI1
aI0
as((S'Incredible'
p4130
g2
tp4131
(S'resources'
p4132
g125
tp4133
tp4134
(lp4135
I0
aI0
aI1
as((S'Japanese'
p4136
g2
tp4137
(S'culture'
p4138
g5
tp4139
tp4140
(lp4141
I0
aI1
aI0
as((S'add'
p4142
g2
tp4143
(S'expenses'
p4144
g125
tp4145
tp4146
(lp4147
I0
aI1
aI0
as((S'then'
p4148
g28
tp4149
(S'let'
p4150
g132
tp4151
tp4152
(lp4153
I0
aI1
aI0
as((S'too'
p4154
g28
tp4155
(S'policitical'
p4156
g2
tp4157
tp4158
(lp4159
I0
aI1
aI0
as((S'new'
p4160
g2
tp4161
(S'vehicles'
p4162
g125
tp4163
tp4164
(lp4165
I0
aI0
aI1
as((S'well'
p4166
g28
tp4167
(S'defined'
p4168
g87
tp4169
tp4170
(lp4171
I0
aI1
aI0
as((S'assistant'
p4172
g2
tp4173
(S'managers'
p4174
g125
tp4175
tp4176
(lp4177
I0
aI1
aI0
as((S'few'
p4178
g2
tp4179
(S'years'
p4180
g125
tp4181
tp4182
(lp4183
I0
aI1
aI1
as((S'good'
p4184
g2
tp4185
(S'manager'
p4186
g5
tp4187
tp4188
(lp4189
I0
aI0
aI1
as((S'additional'
p4190
g2
tp4191
(S'work'
p4192
g5
tp4193
tp4194
(lp4195
I0
aI1
aI0
as((S'many'
p4196
g2
tp4197
(S'hours'
p4198
g125
tp4199
tp4200
(lp4201
I0
aI2
aI0
as((S'special'
p4202
g2
tp4203
(S'relationship'
p4204
g5
tp4205
tp4206
(lp4207
I0
aI1
aI0
as((S'unhappy'
p4208
g2
tp4209
(S'robots'
p4210
g125
tp4211
tp4212
(lp4213
I0
aI1
aI0
as((S'poor'
p4214
g2
tp4215
(S'respect'
p4216
g5
tp4217
tp4218
(lp4219
I0
aI1
aI0
as((S'significant'
p4220
g2
tp4221
(S'increments'
p4222
g125
tp4223
tp4224
(lp4225
I0
aI1
aI0
as((S'automotive'
p4226
g2
tp4227
(S'leader'
p4228
g5
tp4229
tp4230
(lp4231
I0
aI0
aI1
as((S'individual'
p4232
g2
tp4233
(S'contributors'
p4234
g125
tp4235
tp4236
(lp4237
I0
aI1
aI0
as((S'really'
p4238
g28
tp4239
(S'took'
p4240
g118
tp4241
tp4242
(lp4243
I0
aI1
aI0
as((S'future'
p4244
g2
tp4245
(S'employment'
p4246
g5
tp4247
tp4248
(lp4249
I0
aI0
aI1
as((S'skilled'
p4250
g2
tp4251
(S'positions'
p4252
g125
tp4253
tp4254
(lp4255
I0
aI1
aI0
as((S'entire'
p4256
g2
tp4257
(S'summer'
p4258
g5
tp4259
tp4260
(lp4261
I0
aI1
aI0
as((S'very'
p4262
g28
tp4263
(S'good'
p4264
g2
tp4265
tp4266
(lp4267
I0
aI1
aI5
as((S'strongly'
p4268
g28
tp4269
(S'supported'
p4270
g118
tp4271
tp4272
(lp4273
I0
aI0
aI1
as((S'not'
p4274
g28
tp4275
(S'request'
p4276
g132
tp4277
tp4278
(lp4279
I0
aI1
aI0
as((S'really'
p4280
g28
tp4281
(S'evident'
p4282
g2
tp4283
tp4284
(lp4285
I0
aI1
aI0
as((S'big'
p4286
g2
tp4287
(S'project'
p4288
g5
tp4289
tp4290
(lp4291
I0
aI1
aI0
as((S'not'
p4292
g28
tp4293
(S'French'
p4294
g2
tp4295
tp4296
(lp4297
I0
aI1
aI0
as((S'not'
p4298
g28
tp4299
(S'provide'
p4300
g132
tp4301
tp4302
(lp4303
I0
aI1
aI0
as((S'-Slow'
p4304
g2
tp4305
(S'moving'
p4306
g5
tp4307
tp4308
(lp4309
I0
aI1
aI0
as((S'cross-functional'
p4310
g2
tp4311
(S'teams'
p4312
g125
tp4313
tp4314
(lp4315
I0
aI1
aI0
as((S'almost'
p4316
g28
tp4317
(S'impossible'
p4318
g2
tp4319
tp4320
(lp4321
I0
aI1
aI1
as((S'not'
p4322
g28
tp4323
(S'challenging'
p4324
g31
tp4325
tp4326
(lp4327
I0
aI1
aI0
as((S'possibly'
p4328
g28
tp4329
(S'remember'
p4330
g132
tp4331
tp4332
(lp4333
I0
aI1
aI0
as((S'Never'
p4334
g28
tp4335
(S'got'
p4336
g118
tp4337
tp4338
(lp4339
I0
aI1
aI0
as((S'complete'
p4340
g2
tp4341
(S'distraction'
p4342
g5
tp4343
tp4344
(lp4345
I0
aI1
aI0
as((S'Bad'
p4346
g2
tp4347
(S'leadership'
p4348
g5
tp4349
tp4350
(lp4351
I0
aI1
aI0
as((S'immediate'
p4352
g2
tp4353
(S'managers'
p4354
g125
tp4355
tp4356
(lp4357
I0
aI0
aI1
as((S"n't"
p4358
g28
tp4359
(S'trust'
p4360
g132
tp4361
tp4362
(lp4363
I0
aI1
aI0
as((S'different'
p4364
g2
tp4365
(S'departments'
p4366
g125
tp4367
tp4368
(lp4369
I0
aI1
aI0
as((S'Now'
p4370
g28
tp4371
(S'making'
p4372
g31
tp4373
tp4374
(lp4375
I0
aI1
aI0
as((S'many'
p4376
g2
tp4377
(S'trips'
p4378
g125
tp4379
tp4380
(lp4381
I0
aI0
aI1
as((S'casual'
p4382
g2
tp4383
(S'workplace'
p4384
g5
tp4385
tp4386
(lp4387
I0
aI0
aI1
as((S'not'
p4388
g28
tp4389
(S'popular'
p4390
g2
tp4391
tp4392
(lp4393
I0
aI1
aI0
as((S'good'
p4394
g2
tp4395
g2763
tp4396
(lp4397
I0
aI0
aI1
as((S'cultural'
p4398
g2
tp4399
(S'environment'
p4400
g5
tp4401
tp4402
(lp4403
I0
aI0
aI1
as((S'other'
p4404
g2
tp4405
(S'choices'
p4406
g125
tp4407
tp4408
(lp4409
I0
aI1
aI0
as((S'not'
p4410
g28
tp4411
(S'increase'
p4412
g132
tp4413
tp4414
(lp4415
I0
aI1
aI0
as((S'terrible'
p4416
g2
tp4417
(S'company'
p4418
g5
tp4419
tp4420
(lp4421
I0
aI1
aI0
as((S'huge'
p4422
g2
tp4423
(S'brand'
p4424
g5
tp4425
tp4426
(lp4427
I0
aI1
aI0
as((S'mental'
p4428
g2
tp4429
(S'instability'
p4430
g5
tp4431
tp4432
(lp4433
I0
aI1
aI0
as((S'really'
p4434
g28
tp4435
(S'support'
p4436
g132
tp4437
tp4438
(lp4439
I0
aI1
aI0
as((S"n't"
p4440
g28
tp4441
(S'blame'
p4442
g132
tp4443
tp4444
(lp4445
I0
aI1
aI0
as((S'medical'
p4446
g2
tp4447
(S'care'
p4448
g5
tp4449
tp4450
(lp4451
I0
aI0
aI1
as((S'much'
p4452
g2
tp4453
(S'work'
p4454
g5
tp4455
tp4456
(lp4457
I0
aI1
aI0
as((S'political'
p4458
g2
tp4459
(S'untochables'
p4460
g125
tp4461
tp4462
(lp4463
I0
aI1
aI0
as((S'never'
p4464
g28
tp4465
(S'worked'
p4466
g87
tp4467
tp4468
(lp4469
I0
aI1
aI0
as((S'little'
p4470
g2
tp4471
(S'work'
p4472
g5
tp4473
tp4474
(lp4475
I0
aI1
aI0
as((S'Highly'
p4476
g28
tp4477
(S'recommended'
p4478
g118
tp4479
tp4480
(lp4481
I0
aI0
aI1
as((S'politically'
p4482
g28
tp4483
(S'connected'
p4484
g87
tp4485
tp4486
(lp4487
I0
aI1
aI0
as((S'prioritized'
p4488
g2
tp4489
(S'focus'
p4490
g5
tp4491
tp4492
(lp4493
I0
aI1
aI0
as((S'good/bad'
p4494
g2
tp4495
(S'feedback'
p4496
g5
tp4497
tp4498
(lp4499
I0
aI1
aI0
as((S'late'
p4500
g2
tp4501
(S'sittings'
p4502
g125
tp4503
tp4504
(lp4505
I0
aI0
aI1
as((S'new'
p4506
g2
tp4507
(S'ideas'
p4508
g125
tp4509
tp4510
(lp4511
I0
aI1
aI0
as((S'objective'
p4512
g2
tp4513
(S'way'
p4514
g5
tp4515
tp4516
(lp4517
I0
aI1
aI0
as((S'very'
p4518
g28
tp4519
(S'much'
p4520
g2
tp4521
tp4522
(lp4523
I0
aI2
aI0
as((S'very'
p4524
g28
tp4525
(S'close'
p4526
g2
tp4527
tp4528
(lp4529
I0
aI1
aI0
as((S'many'
p4530
g2
tp4531
(S'people'
p4532
g125
tp4533
tp4534
(lp4535
I0
aI4
aI0
as((S'only'
p4536
g28
tp4537
(S'favorable'
p4538
g2
tp4539
tp4540
(lp4541
I0
aI1
aI0
as((S'mainly'
p4542
g28
tp4543
(S'related'
p4544
g87
tp4545
tp4546
(lp4547
I0
aI1
aI0
as((S"N'T"
p4548
g28
tp4549
(S'HAVE'
p4550
g132
tp4551
tp4552
(lp4553
I0
aI0
aI1
as((S'other'
p4554
g2
tp4555
(S'banks'
p4556
g125
tp4557
tp4558
(lp4559
I0
aI1
aI0
as((S'different'
p4560
g2
tp4561
(S'things'
p4562
g125
tp4563
tp4564
(lp4565
I0
aI1
aI0
as((S'same'
p4566
g2
tp4567
(S'grade'
p4568
g5
tp4569
tp4570
(lp4571
I0
aI1
aI0
as((S'Recently'
p4572
g28
tp4573
(S'implemented'
p4574
g118
tp4575
tp4576
(lp4577
I0
aI1
aI0
as((S'educational'
p4578
g2
tp4579
(S'opportunities'
p4580
g125
tp4581
tp4582
(lp4583
I0
aI0
aI1
as((S'great'
p4584
g2
tp4585
(S'company'
p4586
g5
tp4587
tp4588
(lp4589
I0
aI0
aI1
as((S'medical'
p4590
g2
tp4591
(S'insurance'
p4592
g5
tp4593
tp4594
(lp4595
I0
aI1
aI0
as((S'essential'
p4596
g2
tp4597
(S'departments'
p4598
g125
tp4599
tp4600
(lp4601
I0
aI1
aI0
as((S'entire'
p4602
g2
tp4603
(S'management/leadership'
p4604
g5
tp4605
tp4606
(lp4607
I0
aI1
aI0
as((S'incredibly'
p4608
g28
tp4609
(S'frustrating'
p4610
g31
tp4611
tp4612
(lp4613
I0
aI1
aI0
as((S'same'
p4614
g2
tp4615
(S'opportunities'
p4616
g125
tp4617
tp4618
(lp4619
I0
aI1
aI0
as((S'sensitive'
p4620
g2
tp4621
(S'people'
p4622
g125
tp4623
tp4624
(lp4625
I0
aI1
aI0
as((S'never'
p4626
g28
tp4627
(S'straight'
p4628
g2
tp4629
tp4630
(lp4631
I0
aI1
aI0
as((S'work/life'
p4632
g2
tp4633
(S'balance'
p4634
g5
tp4635
tp4636
(lp4637
I0
aI0
aI2
as((S'great'
p4638
g2
tp4639
(S'career'
p4640
g5
tp4641
tp4642
(lp4643
I0
aI0
aI1
as((S'Mid-level'
p4644
g2
tp4645
(S'managers'
p4646
g125
tp4647
tp4648
(lp4649
I0
aI1
aI0
as((S'other'
p4650
g2
tp4651
(S'friday'
p4652
g5
tp4653
tp4654
(lp4655
I0
aI1
aI0
as((S'free'
p4656
g2
tp4657
(S'drinks'
p4658
g125
tp4659
tp4660
(lp4661
I0
aI0
aI1
as((S'Large'
p4662
g2
tp4663
(S'building'
p4664
g5
tp4665
tp4666
(lp4667
I0
aI1
aI0
as((S'many'
p4668
g2
tp4669
(S'supervisors'
p4670
g125
tp4671
tp4672
(lp4673
I0
aI1
aI0
as((S'current'
p4674
g2
tp4675
(S'leadership'
p4676
g5
tp4677
tp4678
(lp4679
I0
aI0
aI1
as((S'top'
p4680
g2
tp4681
(S'executive'
p4682
g5
tp4683
tp4684
(lp4685
I0
aI0
aI1
as((S'exciting'
p4686
g2
tp4687
(S'place'
p4688
g5
tp4689
tp4690
(lp4691
I0
aI0
aI1
as((S'many'
p4692
g2
tp4693
(S'grow'
p4694
g5
tp4695
tp4696
(lp4697
I0
aI0
aI1
as((S'looks'
p4698
g125
tp4699
(S'great'
p4700
g2
tp4701
tp4702
(lp4703
I0
aI1
aI0
as((S'one-way'
p4704
g2
tp4705
(S'bet'
p4706
g5
tp4707
tp4708
(lp4709
I0
aI1
aI0
as((S'good'
p4710
g2
tp4711
(S'ratings'
p4712
g125
tp4713
tp4714
(lp4715
I0
aI0
aI1
as((S'hard'
p4716
g2
tp4717
(S'working'
p4718
g5
tp4719
tp4720
(lp4721
I0
aI1
aI0
as((S'not'
p4722
g28
tp4723
(S'based'
p4724
g87
tp4725
tp4726
(lp4727
I0
aI1
aI0
as((S'great'
p4728
g2
tp4729
(S'palce'
p4730
g5
tp4731
tp4732
(lp4733
I0
aI1
aI0
as((S'even'
p4734
g28
tp4735
(S'relate'
p4736
g132
tp4737
tp4738
(lp4739
I0
aI1
aI0
as((S"n't"
p4740
g28
tp4741
(S'care'
p4742
g132
tp4743
tp4744
(lp4745
I0
aI6
aI0
as((S'diverse'
p4746
g2
tp4747
(S'employees'
p4748
g125
tp4749
tp4750
(lp4751
I0
aI1
aI0
as((S'not'
p4752
g28
tp4753
(S'revolve'
p4754
g132
tp4755
tp4756
(lp4757
I0
aI1
aI0
as((S'upper'
p4758
g2
tp4759
(S'managers'
p4760
g125
tp4761
tp4762
(lp4763
I0
aI0
aI1
as((S'entire'
p4764
g2
tp4765
(S'day'
p4766
g5
tp4767
tp4768
(lp4769
I0
aI1
aI0
as((S'too'
p4770
g28
tp4771
(S'worried'
p4772
g87
tp4773
tp4774
(lp4775
I0
aI1
aI0
as((S'literally'
p4776
g28
tp4777
(S'nauseating'
p4778
g31
tp4779
tp4780
(lp4781
I0
aI1
aI0
as((S'other'
p4782
g2
tp4783
(S'people'
p4784
g125
tp4785
tp4786
(lp4787
I0
aI1
aI0
as((S'not'
p4788
g28
tp4789
(S'make'
p4790
g132
tp4791
tp4792
(lp4793
I0
aI1
aI0
as((S'non-diverse'
p4794
g2
tp4795
(S'employees'
p4796
g125
tp4797
tp4798
(lp4799
I0
aI1
aI0
as((S'politically'
p4800
g28
tp4801
(S'correct'
p4802
g2
tp4803
tp4804
(lp4805
I0
aI2
aI0
as((S'specific'
p4806
g2
tp4807
(S'role'
p4808
g5
tp4809
tp4810
(lp4811
I0
aI0
aI1
as((S'actual'
p4812
g2
tp4813
(S'ability'
p4814
g5
tp4815
tp4816
(lp4817
I0
aI1
aI0
as((S'never'
p4818
g28
tp4819
(S'pay'
p4820
g132
tp4821
tp4822
(lp4823
I0
aI1
aI0
as((S'severely'
p4824
g28
tp4825
(S'disconnected'
p4826
g87
tp4827
tp4828
(lp4829
I0
aI1
aI0
as((S'Services/Managed'
p4830
g2
tp4831
(S'Services'
p4832
g125
tp4833
tp4834
(lp4835
I0
aI0
aI1
as((S'potential'
p4836
g2
tp4837
(S'employees'
p4838
g125
tp4839
tp4840
(lp4841
I0
aI2
aI0
as((S'nothing'
p4842
g5
tp4843
(S'great'
p4844
g2
tp4845
tp4846
(lp4847
I0
aI0
aI1
as((S'great'
p4848
g2
tp4849
(S'vision'
p4850
g5
tp4851
tp4852
(lp4853
I0
aI0
aI1
as((S'ONLY'
p4854
g28
tp4855
(S'been'
p4856
g87
tp4857
tp4858
(lp4859
I0
aI1
aI0
as((S'corporate'
p4860
g2
tp4861
(S'management'
p4862
g5
tp4863
tp4864
(lp4865
I0
aI1
aI0
as((S'personal'
p4866
g2
tp4867
(S'line'
p4868
g5
tp4869
tp4870
(lp4871
I0
aI0
aI1
as((S'poor'
p4872
g2
tp4873
(S'management'
p4874
g5
tp4875
tp4876
(lp4877
I0
aI0
aI1
as((S'dead'
p4878
g2
tp4879
(S'weight'
p4880
g5
tp4881
tp4882
(lp4883
I0
aI1
aI0
as((S'vacation'
p4884
g5
tp4885
(S'non-existant'
p4886
g2
tp4887
tp4888
(lp4889
I0
aI1
aI0
as((S'other'
p4890
g2
tp4891
(S'minorities'
p4892
g125
tp4893
tp4894
(lp4895
I0
aI1
aI0
as((S'very'
p4896
g28
tp4897
(S'conservative'
p4898
g2
tp4899
tp4900
(lp4901
I0
aI1
aI0
as((S'constantly'
p4902
g28
tp4903
(S'breaking'
p4904
g31
tp4905
tp4906
(lp4907
I0
aI1
aI0
as((S'not'
p4908
g28
tp4909
(S'treated'
p4910
g87
tp4911
tp4912
(lp4913
I0
aI1
aI0
as((S'good'
p4914
g2
tp4915
(S'resume'
p4916
g5
tp4917
tp4918
(lp4919
I0
aI0
aI1
as((S'nothing'
p4920
g5
tp4921
g1222
tp4922
(lp4923
I0
aI1
aI0
as((S'Usual'
p4924
g2
tp4925
(S'management'
p4926
g5
tp4927
tp4928
(lp4929
I0
aI1
aI0
as((S"n't"
p4930
g28
tp4931
(S'much'
p4932
g2
tp4933
tp4934
(lp4935
I0
aI1
aI0
as((S'not'
p4936
g28
tp4937
(S'expect'
p4938
g132
tp4939
tp4940
(lp4941
I0
aI2
aI0
as((S'slow'
p4942
g2
tp4943
(S'mover'
p4944
g5
tp4945
tp4946
(lp4947
I0
aI1
aI0
as((S"n't"
p4948
g28
tp4949
(S'try'
p4950
g132
tp4951
tp4952
(lp4953
I0
aI1
aI0
as((S'big'
p4954
g2
tp4955
(S'push'
p4956
g5
tp4957
tp4958
(lp4959
I0
aI0
aI1
as((S'really'
p4960
g28
tp4961
(S'become'
p4962
g2
tp4963
tp4964
(lp4965
I0
aI1
aI0
as((S'new'
p4966
g2
tp4967
(S'position'
p4968
g5
tp4969
tp4970
(lp4971
I0
aI1
aI0
as((S"n't"
p4972
g28
tp4973
(S'foster'
p4974
g132
tp4975
tp4976
(lp4977
I0
aI1
aI0
as((S'many'
p4978
g2
tp4979
(S'chiefs'
p4980
g125
tp4981
tp4982
(lp4983
I0
aI1
aI0
as((S'more'
p4984
g48
tp4985
(S'satisfying'
p4986
g31
tp4987
tp4988
(lp4989
I0
aI0
aI1
as((S'painfully'
p4990
g28
tp4991
(S'slow'
p4992
g2
tp4993
tp4994
(lp4995
I0
aI1
aI0
as((S"n't"
p4996
g28
tp4997
(S'worth'
p4998
g2
tp4999
tp5000
(lp5001
I0
aI1
aI0
as((S'good'
p5002
g2
tp5003
(S'leadership'
p5004
g5
tp5005
tp5006
(lp5007
I0
aI1
aI0
as((S'constant'
p5008
g2
tp5009
(S'fear'
p5010
g5
tp5011
tp5012
(lp5013
I0
aI1
aI0
as((S'Long'
p5014
g2
tp5015
(S'hours'
p5016
g125
tp5017
tp5018
(lp5019
I0
aI1
aI0
as((S'new'
p5020
g2
tp5021
(S'hires'
p5022
g125
tp5023
tp5024
(lp5025
I0
aI1
aI0
as((S'Free-Fire'
p5026
g2
tp5027
(S'Zone'
p5028
g5
tp5029
tp5030
(lp5031
I0
aI1
aI0
as((S'good'
p5032
g2
tp5033
(S'rewards'
p5034
g125
tp5035
tp5036
(lp5037
I0
aI1
aI0
as((S'little'
p5038
g2
tp5039
(S'headache'
p5040
g5
tp5041
tp5042
(lp5043
I0
aI0
aI1
as((S'alone'
p5044
g28
tp5045
(S'learn'
p5046
g132
tp5047
tp5048
(lp5049
I0
aI1
aI0
as((S'other'
p5050
g2
tp5051
(S'committees'
p5052
g125
tp5053
tp5054
(lp5055
I0
aI1
aI0
as((S'not'
p5056
g28
tp5057
(S'care'
p5058
g132
tp5059
tp5060
(lp5061
I0
aI1
aI0
as((S'old'
p5062
g2
tp5063
(S'school'
p5064
g5
tp5065
tp5066
(lp5067
I0
aI1
aI0
as((S'truly'
p5068
g28
tp5069
(S'saw'
p5070
g118
tp5071
tp5072
(lp5073
I0
aI1
aI0
as((S'really'
p5074
g28
tp5075
(S'knowing'
p5076
g31
tp5077
tp5078
(lp5079
I0
aI1
aI0
as((S'not'
p5080
g28
tp5081
(S'followed'
p5082
g87
tp5083
tp5084
(lp5085
I0
aI1
aI0
as((S'ever'
p5086
g28
tp5087
(S'had'
p5088
g118
tp5089
tp5090
(lp5091
I0
aI1
aI0
as((S'same'
p5092
g2
tp5093
(S'job'
p5094
g5
tp5095
tp5096
(lp5097
I0
aI1
aI0
as((S'flexible'
p5098
g2
tp5099
(S'schedule'
p5100
g5
tp5101
tp5102
(lp5103
I0
aI0
aI1
as((S"n't"
p5104
g28
tp5105
(S'mind'
p5106
g132
tp5107
tp5108
(lp5109
I0
aI0
aI1
as((S'constantly'
p5110
g28
tp5111
(S'changing'
p5112
g31
tp5113
tp5114
(lp5115
I0
aI1
aI0
as((S'wonderful'
p5116
g2
tp5117
(S'company'
p5118
g5
tp5119
tp5120
(lp5121
I0
aI1
aI0
as((S'old'
p5122
g2
tp5123
(S'timer'
p5124
g5
tp5125
tp5126
(lp5127
I0
aI1
aI0
as((S'good'
p5128
g2
tp5129
(S'place'
p5130
g5
tp5131
tp5132
(lp5133
I0
aI3
aI2
as((S'not'
p5134
g28
tp5135
(S'grow'
p5136
g132
tp5137
tp5138
(lp5139
I0
aI1
aI0
as((S'Many'
p5140
g2
tp5141
(S'people'
p5142
g125
tp5143
tp5144
(lp5145
I0
aI1
aI1
as((S'Extremely'
p5146
g28
tp5147
(S'tiring'
p5148
g31
tp5149
tp5150
(lp5151
I0
aI1
aI0
as((S'myopic'
p5152
g2
tp5153
(S'management'
p5154
g5
tp5155
tp5156
(lp5157
I0
aI1
aI0
as((S'steadily'
p5158
g28
tp5159
(S'declined'
p5160
g87
tp5161
tp5162
(lp5163
I0
aI1
aI0
as((S'many'
p5164
g2
tp5165
(S'opportunities'
p5166
g125
tp5167
tp5168
(lp5169
I0
aI0
aI3
as((S'native'
p5170
g2
tp5171
(S'born'
p5172
g5
tp5173
tp5174
(lp5175
I0
aI1
aI0
as((S'however'
p5176
g28
tp5177
(S'balanced'
p5178
g87
tp5179
tp5180
(lp5181
I0
aI0
aI1
as((S'not'
p5182
g28
tp5183
(S'adversarial'
p5184
g2
tp5185
tp5186
(lp5187
I0
aI1
aI0
as((S'much'
p5188
g2
tp5189
(S'labor'
p5190
g5
tp5191
tp5192
(lp5193
I0
aI1
aI0
as((S'not'
p5194
g28
tp5195
(S'appreciate'
p5196
g132
tp5197
tp5198
(lp5199
I0
aI2
aI0
as((S'always'
p5200
g28
tp5201
(S'busy'
p5202
g2
tp5203
tp5204
(lp5205
I0
aI0
aI1
as((S'just'
p5206
g28
tp5207
(S'die'
p5208
g132
tp5209
tp5210
(lp5211
I0
aI1
aI0
as((S'promotional'
p5212
g2
tp5213
(S'opportunties'
p5214
g125
tp5215
tp5216
(lp5217
I0
aI1
aI0
as((S'not'
p5218
g28
tp5219
(S'follow'
p5220
g132
tp5221
tp5222
(lp5223
I0
aI2
aI0
as((S'deplorable'
p5224
g2
tp5225
(S'environment'
p5226
g5
tp5227
tp5228
(lp5229
I0
aI1
aI0
as((S'wrong'
p5230
g2
tp5231
(S'direction'
p5232
g5
tp5233
tp5234
(lp5235
I0
aI1
aI0
as((S'always'
p5236
g28
tp5237
(S'start'
p5238
g132
tp5239
tp5240
(lp5241
I0
aI1
aI0
as((S'good'
p5242
g2
tp5243
(S'chunk'
p5244
g5
tp5245
tp5246
(lp5247
I0
aI1
aI0
as((S'rich'
p5248
g2
tp5249
(S'career'
p5250
g5
tp5251
tp5252
(lp5253
I0
aI0
aI1
as((S'constant'
p5254
g2
tp5255
(S'threat'
p5256
g5
tp5257
tp5258
(lp5259
I0
aI1
aI0
as((S"n't"
p5260
g28
tp5261
(S'offer'
p5262
g132
tp5263
tp5264
(lp5265
I0
aI1
aI0
as((S'centralized'
p5266
g2
tp5267
(S'place'
p5268
g5
tp5269
tp5270
(lp5271
I0
aI1
aI0
as((S'very'
p5272
g28
tp5273
(S'discombobulated'
p5274
g87
tp5275
tp5276
(lp5277
I0
aI1
aI0
as((S'annual'
p5278
g2
tp5279
(S'black'
p5280
g5
tp5281
tp5282
(lp5283
I0
aI1
aI0
as((S'good'
p5284
g2
tp5285
(S'in-front'
p5286
g5
tp5287
tp5288
(lp5289
I0
aI1
aI0
as((S'good'
p5290
g2
tp5291
(S'went'
p5292
g5
tp5293
tp5294
(lp5295
I0
aI1
aI0
as((S'free'
p5296
g2
tp5297
(S't-shirts'
p5298
g125
tp5299
tp5300
(lp5301
I0
aI0
aI1
as((S'creative'
p5302
g2
tp5303
(S'problem'
p5304
g5
tp5305
tp5306
(lp5307
I0
aI1
aI0
as((S'Huge'
p5308
g2
tp5309
(S'company'
p5310
g5
tp5311
tp5312
(lp5313
I0
aI1
aI0
as((S'Great'
p5314
g2
tp5315
(S'place'
p5316
g5
tp5317
tp5318
(lp5319
I0
aI0
aI1
as((S'really'
p5320
g28
tp5321
(S'care'
p5322
g132
tp5323
tp5324
(lp5325
I0
aI2
aI0
as((S'world-class'
p5326
g2
tp5327
(S'colleagues'
p5328
g125
tp5329
tp5330
(lp5331
I0
aI0
aI1
as((S'Internal'
p5332
g2
tp5333
(S'infrastructure'
p5334
g5
tp5335
tp5336
(lp5337
I0
aI1
aI0
as((S'Generous'
p5338
g2
tp5339
(S'vacation'
p5340
g5
tp5341
tp5342
(lp5343
I0
aI0
aI1
as((S'Vindictive'
p5344
g2
tp5345
(S'leadership'
p5346
g5
tp5347
tp5348
(lp5349
I0
aI1
aI0
as((S'pretty'
p5350
g28
tp5351
(S'good'
p5352
g2
tp5353
tp5354
(lp5355
I0
aI0
aI1
as((S'micro-management'
p5356
g2
tp5357
(S'style'
p5358
g5
tp5359
tp5360
(lp5361
I0
aI1
aI0
as((S'very'
p5362
g28
tp5363
(S'boring'
p5364
g31
tp5365
tp5366
(lp5367
I0
aI1
aI0
as((S'+Industry'
p5368
g2
tp5369
(S'leader'
p5370
g5
tp5371
tp5372
(lp5373
I0
aI0
aI1
as((S'easily'
p5374
g28
tp5375
(S'get'
p5376
g132
tp5377
tp5378
(lp5379
I0
aI1
aI0
as((S'mental'
p5380
g2
tp5381
(g648
g5
tp5382
tp5383
(lp5384
I0
aI0
aI1
as((S'disposable'
p5385
g2
tp5386
(S'member'
p5387
g5
tp5388
tp5389
(lp5390
I0
aI1
aI0
as((S'minimum'
p5391
g2
tp5392
(S'threshold'
p5393
g5
tp5394
tp5395
(lp5396
I0
aI1
aI0
as((S'political'
p5397
g2
tp5398
(S'b.s'
p5399
g125
tp5400
tp5401
(lp5402
I0
aI1
aI0
as((S'Enormously'
p5403
g28
tp5404
(S'challenged'
p5405
g118
tp5406
tp5407
(lp5408
I0
aI1
aI0
as((S'national'
p5409
g2
tp5410
(S'origin'
p5411
g5
tp5412
tp5413
(lp5414
I0
aI1
aI0
as((S'extremely'
p5415
g28
tp5416
(S'low'
p5417
g2
tp5418
tp5419
(lp5420
I0
aI1
aI0
as((S'never'
p5421
g28
tp5422
(S'recommend'
p5423
g132
tp5424
tp5425
(lp5426
I0
aI1
aI0
as((S'Highly'
p5427
g28
tp5428
(S'unstable'
p5429
g2
tp5430
tp5431
(lp5432
I0
aI1
aI0
as((S'bureaucratic'
p5433
g2
tp5434
(S'/'
p5435
g5
tp5436
tp5437
(lp5438
I0
aI1
aI0
as((S'not'
p5439
g28
tp5440
(S'paying'
p5441
g31
tp5442
tp5443
(lp5444
I0
aI1
aI0
as((S'not'
p5445
g28
tp5446
(S'move'
p5447
g132
tp5448
tp5449
(lp5450
I0
aI1
aI0
as((S'Many'
p5451
g2
tp5452
(S'staff'
p5453
g5
tp5454
tp5455
(lp5456
I0
aI1
aI0
as((S'good'
p5457
g2
tp5458
(S'sales'
p5459
g125
tp5460
tp5461
(lp5462
I0
aI1
aI0
as((S'stable'
p5463
g2
tp5464
(S'company'
p5465
g5
tp5466
tp5467
(lp5468
I0
aI0
aI1
as((S'completely'
p5469
g28
tp5470
(S'untrue'
p5471
g2
tp5472
tp5473
(lp5474
I0
aI1
aI0
as((S'Large'
p5475
g2
tp5476
(S'corporation'
p5477
g5
tp5478
tp5479
(lp5480
I0
aI0
aI1
as((S'mid-lower'
p5481
g2
tp5482
(S'leaders'
p5483
g125
tp5484
tp5485
(lp5486
I0
aI1
aI0
as((S'marital'
p5487
g2
tp5488
(S'relationships'
p5489
g125
tp5490
tp5491
(lp5492
I0
aI1
aI0
as((S'good'
p5493
g2
tp5494
(S'product'
p5495
g5
tp5496
tp5497
(lp5498
I0
aI1
aI0
as((S"n't"
p5499
g28
tp5500
(S'being'
p5501
g31
tp5502
tp5503
(lp5504
I0
aI1
aI0
as((S'stressful'
p5505
g2
tp5506
(S'work'
p5507
g5
tp5508
tp5509
(lp5510
I0
aI1
aI0
as((S'many'
p5511
g2
tp5512
(S'employees'
p5513
g125
tp5514
tp5515
(lp5516
I0
aI0
aI1
as((S'surprisingly'
p5517
g28
tp5518
(S'functional'
p5519
g2
tp5520
tp5521
(lp5522
I0
aI0
aI1
as((S'good'
p5523
g2
tp5524
(S'nurse'
p5525
g5
tp5526
tp5527
(lp5528
I0
aI0
aI1
as((S'annual'
p5529
g2
tp5530
(S'blackout'
p5531
g5
tp5532
tp5533
(lp5534
I0
aI1
aI0
as((S'international'
p5535
g2
tp5536
(S'assignments'
p5537
g125
tp5538
tp5539
(lp5540
I0
aI1
aI0
as((S'very'
p5541
g28
tp5542
(S'interesting'
p5543
g2
tp5544
tp5545
(lp5546
I0
aI0
aI1
as((S'good'
p5547
g2
tp5548
(S'job'
p5549
g5
tp5550
tp5551
(lp5552
I0
aI2
aI1
as((S'absolutely'
p5553
g28
tp5554
(S'draining'
p5555
g31
tp5556
tp5557
(lp5558
I0
aI1
aI0
as((S'very'
p5559
g28
tp5560
(S'top'
p5561
g2
tp5562
tp5563
(lp5564
I0
aI1
aI0
as((S'yearly'
p5565
g2
tp5566
(S'bonus'
p5567
g5
tp5568
tp5569
(lp5570
I0
aI0
aI1
as((S'once'
p5571
g28
tp5572
(S'made'
p5573
g118
tp5574
tp5575
(lp5576
I0
aI1
aI0
as((S'rather'
p5577
g28
tp5578
(S'suggest'
p5579
g132
tp5580
tp5581
(lp5582
I0
aI1
aI0
as((S'also'
p5583
g28
tp5584
(S'bring'
p5585
g31
tp5586
tp5587
(lp5588
I0
aI1
aI0
as((S'inherent'
p5589
g2
tp5590
(S'risk'
p5591
g5
tp5592
tp5593
(lp5594
I0
aI1
aI0
as((S'Unrealistic'
p5595
g2
tp5596
(S'deadlines'
p5597
g125
tp5598
tp5599
(lp5600
I0
aI1
aI0
as((S'cult-like'
p5601
g2
tp5602
(S'place'
p5603
g5
tp5604
tp5605
(lp5606
I0
aI1
aI0
as((S'not'
p5607
g28
tp5608
(S'recommend'
p5609
g132
tp5610
tp5611
(lp5612
I0
aI2
aI0
as((S'partly'
p5613
g28
tp5614
(S'dictated'
p5615
g87
tp5616
tp5617
(lp5618
I0
aI1
aI0
as((S'low'
p5619
g2
tp5620
(S'amongst'
p5621
g5
tp5622
tp5623
(lp5624
I0
aI1
aI0
as((S'ever'
p5625
g28
tp5626
(S'went'
p5627
g118
tp5628
tp5629
(lp5630
I0
aI1
aI0
as((S'really'
p5631
g28
tp5632
(S'outspoken'
p5633
g87
tp5634
tp5635
(lp5636
I0
aI1
aI0
as((S'poorly'
p5637
g28
tp5638
(S'organized'
p5639
g87
tp5640
tp5641
(lp5642
I0
aI1
aI0
as((S'extremely'
p5643
g28
tp5644
(S'negative'
p5645
g2
tp5646
tp5647
(lp5648
I0
aI1
aI0
as((S'little'
p5649
g2
tp5650
(S'interest'
p5651
g5
tp5652
tp5653
(lp5654
I0
aI1
aI0
as((S'other'
p5655
g2
tp5656
(S'accountable'
p5657
g2
tp5658
tp5659
(lp5660
I0
aI0
aI1
as((S'strong'
p5661
g2
tp5662
(S'skill'
p5663
g5
tp5664
tp5665
(lp5666
I0
aI0
aI1
as((S'here'
p5667
g28
tp5668
(S'cause'
p5669
g132
tp5670
tp5671
(lp5672
I0
aI1
aI0
as((S'even'
p5673
g28
tp5674
(S'said'
p5675
g118
tp5676
tp5677
(lp5678
I0
aI1
aI0
as((S'nothing'
p5679
g5
tp5680
(S'good'
p5681
g2
tp5682
tp5683
(lp5684
I0
aI0
aI1
as((S'same'
p5685
g2
tp5686
(S'thing'
p5687
g5
tp5688
tp5689
(lp5690
I0
aI1
aI0
as((S'different'
p5691
g2
tp5692
(S'banks'
p5693
g125
tp5694
tp5695
(lp5696
I0
aI1
aI0
as((S'entrepreneurial'
p5697
g2
tp5698
(S'environment'
p5699
g5
tp5700
tp5701
(lp5702
I0
aI1
aI0
as((S'strong'
p5703
g2
tp5704
(S'performer'
p5705
g5
tp5706
tp5707
(lp5708
I0
aI1
aI0
as((S'much'
p5709
g2
tp5710
(S'time'
p5711
g5
tp5712
tp5713
(lp5714
I0
aI1
aI0
as((S"n't"
p5715
g28
tp5716
(S'promote'
p5717
g132
tp5718
tp5719
(lp5720
I0
aI1
aI0
as((S'ignorant'
p5721
g2
tp5722
(S'redundant'
p5723
g5
tp5724
tp5725
(lp5726
I0
aI1
aI0
as((S'very'
p5727
g28
tp5728
(S'high'
p5729
g2
tp5730
tp5731
(lp5732
I0
aI2
aI0
as((S'not'
p5733
g28
tp5734
(S'employee'
p5735
g132
tp5736
tp5737
(lp5738
I0
aI1
aI0
as((S'numbingly'
p5739
g28
tp5740
(S'dull'
p5741
g2
tp5742
tp5743
(lp5744
I0
aI1
aI0
as((S'many'
p5745
g2
tp5746
(S'smoke'
p5747
g5
tp5748
tp5749
(lp5750
I0
aI1
aI0
as((S'own'
p5751
g2
tp5752
(S'team'
p5753
g5
tp5754
tp5755
(lp5756
I0
aI1
aI0
as((S'just'
p5757
g28
tp5758
(S'cared'
p5759
g118
tp5760
tp5761
(lp5762
I0
aI1
aI0
as((S'clear'
p5763
g2
tp5764
(S'direction'
p5765
g5
tp5766
tp5767
(lp5768
I0
aI1
aI0
as((S'great'
p5769
g2
tp5770
(S'products'
p5771
g125
tp5772
tp5773
(lp5774
I0
aI1
aI0
as((S'statistically'
p5775
g28
tp5776
(S'valid'
p5777
g118
tp5778
tp5779
(lp5780
I0
aI1
aI0
as((S'expectations'
p5781
g125
tp5782
(S'due'
p5783
g2
tp5784
tp5785
(lp5786
I0
aI1
aI0
as((S'attractive'
p5787
g2
tp5788
(S'benefits'
p5789
g125
tp5790
tp5791
(lp5792
I0
aI1
aI0
as((S'now'
p5793
g28
tp5794
(S'tired'
p5795
g87
tp5796
tp5797
(lp5798
I0
aI1
aI0
as((S'new'
p5799
g2
tp5800
(S'upgrade'
p5801
g5
tp5802
tp5803
(lp5804
I0
aI1
aI0
as((S'recently'
p5805
g28
tp5806
(S'announced'
p5807
g118
tp5808
tp5809
(lp5810
I0
aI1
aI0
as((S'not'
p5811
g28
tp5812
(S'know'
p5813
g132
tp5814
tp5815
(lp5816
I0
aI0
aI1
as((S'verbal'
p5817
g2
tp5818
(S'dissertation'
p5819
g5
tp5820
tp5821
(lp5822
I0
aI1
aI0
as((S'good'
p5823
g2
tp5824
(S'software'
p5825
g5
tp5826
tp5827
(lp5828
I0
aI0
aI1
as((S'still'
p5829
g28
tp5830
(S'required'
p5831
g87
tp5832
tp5833
(lp5834
I0
aI1
aI0
as((S'good'
p5835
g2
tp5836
(S'people'
p5837
g125
tp5838
tp5839
(lp5840
I0
aI1
aI5
as((S'High'
p5841
g2
tp5842
(S'attrition'
p5843
g5
tp5844
tp5845
(lp5846
I0
aI1
aI0
as((S'benefits'
p5847
g125
tp5848
(S'overall'
p5849
g2
tp5850
tp5851
(lp5852
I0
aI0
aI1
as((S'low'
p5853
g2
tp5854
(S'salary'
p5855
g5
tp5856
tp5857
(lp5858
I0
aI1
aI0
as((S'various'
p5859
g2
tp5860
(S'departments'
p5861
g125
tp5862
tp5863
(lp5864
I0
aI0
aI1
as((S'barely'
p5865
g28
tp5866
(S'adequate'
p5867
g2
tp5868
tp5869
(lp5870
I0
aI1
aI0
as((S'third'
p5871
g2
tp5872
(S'degree'
p5873
g5
tp5874
tp5875
(lp5876
I0
aI1
aI0
as((S'new'
p5877
g2
tp5878
(S'supervisor'
p5879
g5
tp5880
tp5881
(lp5882
I0
aI1
aI0
as((S'cubical'
p5883
g2
tp5884
(S'walls'
p5885
g125
tp5886
tp5887
(lp5888
I0
aI1
aI0
as((S'+year'
p5889
g2
tp5890
(S'establishment'
p5891
g5
tp5892
tp5893
(lp5894
I0
aI1
aI0
as((S'-VERY'
p5895
g2
tp5896
(S'political'
p5897
g2
tp5898
tp5899
(lp5900
I0
aI1
aI0
as((S'completely'
p5901
g28
tp5902
(S'non-existent'
p5903
g2
tp5904
tp5905
(lp5906
I0
aI1
aI0
as((S'other'
p5907
g2
tp5908
(S'reps'
p5909
g125
tp5910
tp5911
(lp5912
I0
aI1
aI0
as((S"n't"
p5913
g28
tp5914
(S'leave'
p5915
g132
tp5916
tp5917
(lp5918
I0
aI1
aI0
as((S'expensive'
p5919
g2
tp5920
(S'sales'
p5921
g125
tp5922
tp5923
(lp5924
I0
aI1
aI0
as((S'promotional'
p5925
g2
tp5926
(S'opportunities'
p5927
g125
tp5928
tp5929
(lp5930
I0
aI1
aI0
as((S'generally'
p5931
g28
tp5932
(S'smart'
p5933
g132
tp5934
tp5935
(lp5936
I0
aI0
aI1
as((S'Extremely'
p5937
g28
tp5938
(S'political'
p5939
g2
tp5940
tp5941
(lp5942
I0
aI1
aI0
as((S'automotive'
p5943
g2
tp5944
(S'industry'
p5945
g5
tp5946
tp5947
(lp5948
I0
aI0
aI1
as((S"n't"
p5949
g28
tp5950
(S'use'
p5951
g132
tp5952
tp5953
(lp5954
I0
aI0
aI1
as((S'also'
p5955
g28
tp5956
(S'got'
p5957
g118
tp5958
tp5959
(lp5960
I0
aI1
aI0
as((S'creative'
p5961
g2
tp5962
(S'individuals'
p5963
g125
tp5964
tp5965
(lp5966
I0
aI1
aI0
as((S'automotive'
p5967
g2
tp5968
(S'experience'
p5969
g5
tp5970
tp5971
(lp5972
I0
aI0
aI1
as((S'hard'
p5973
g28
tp5974
(S'work'
p5975
g132
tp5976
tp5977
(lp5978
I0
aI1
aI0
as((S'great'
p5979
g2
tp5980
(g2762
g5
tp5981
tp5982
(lp5983
I0
aI1
aI0
as((S'High'
p5984
g2
tp5985
(S'pay'
p5986
g5
tp5987
tp5988
(lp5989
I0
aI1
aI0
as((S'other'
p5990
g2
tp5991
(S'departments'
p5992
g125
tp5993
tp5994
(lp5995
I0
aI1
aI1
as((S'other'
p5996
g2
tp5997
(S'majors'
p5998
g125
tp5999
tp6000
(lp6001
I0
aI2
aI0
as((S'direct'
p6002
g2
tp6003
(S'deposit'
p6004
g5
tp6005
tp6006
(lp6007
I0
aI0
aI1
as((S'just'
p6008
g28
tp6009
(S'completed'
p6010
g118
tp6011
tp6012
(lp6013
I0
aI1
aI0
as((S'upper'
p6014
g2
tp6015
(S'management'
p6016
g5
tp6017
tp6018
(lp6019
I0
aI4
aI0
as((S'superior'
p6020
g2
tp6021
(S'performance'
p6022
g5
tp6023
tp6024
(lp6025
I0
aI1
aI0
as((S'never'
p6026
g28
tp6027
(S'be'
p6028
g132
tp6029
tp6030
(lp6031
I0
aI1
aI0
as((S'not'
p6032
g28
tp6033
(S'much'
p6034
g2
tp6035
tp6036
(lp6037
I0
aI1
aI0
as((S'top'
p6038
g2
tp6039
(S'performers'
p6040
g125
tp6041
tp6042
(lp6043
I0
aI1
aI1
as.