(dp0
(S'functional'
p1
S'JJ'
p2
tp3
I11
s(S'profile'
p4
g2
tp5
I7
s(S'actually'
p6
S'RB'
p7
tp8
I12
s(S'co-op'
p9
S'NN'
p10
tp11
I7
s(S'rapid'
p12
g2
tp13
I7
s(S'Stable'
p14
g2
tp15
I10
s(S'fumbly'
p16
g7
tp17
I7
s(S'ously'
p18
g7
tp19
I7
s(S'pension'
p20
g10
tp21
I7
s(S'usual'
p22
g2
tp23
I8
s(S'internally'
p24
g7
tp25
I7
s(S'completely'
p26
g7
tp27
I12
s(S'reliable'
p28
g2
tp29
I7
s(S'weak'
p30
g2
tp31
I7
s(S"'really"
p32
g7
tp33
I7
s(S'level'
p34
g10
tp35
I10
s(S'merit'
p36
g10
tp37
I7
s(S'previous'
p38
g2
tp39
I9
s(S'department'
p40
g10
tp41
I8
s(S'wide'
p42
g2
tp43
I15
s(S'moral'
p44
g2
tp45
I8
s(S'already'
p46
g7
tp47
I8
s(S'mechanic'
p48
g2
tp49
I7
s(S'A*B'
p50
g2
tp51
I7
s(S'broadly'
p52
g7
tp53
I7
s(S'interactions'
p54
S'NNS'
p55
tp56
I7
s(S'wind/water/power'
p57
g2
tp58
I7
s(S'congenial'
p59
g2
tp60
I7
s(S'unresponsive/'
p61
g2
tp62
I7
s(S'unnecessary'
p63
g2
tp64
I7
s(S'drastic'
p65
g2
tp66
I7
s(S'Bright'
p67
g2
tp68
I7
s(S'uncomfortable'
p69
g2
tp70
I7
s(S'education'
p71
g10
tp72
I7
s(S'role'
p73
g10
tp74
I8
s(S'respects'
p75
g55
tp76
I7
s(S'optic'
p77
g2
tp78
I7
s(S'+Strong'
p79
g2
tp80
I7
s(S'small'
p81
g2
tp82
I14
s(S'likely'
p83
g2
tp84
I8
s(S'established'
p85
g2
tp86
I8
s(S'client'
p87
g10
tp88
I7
s(S'economical'
p89
g2
tp90
I7
s(S'innovative'
p91
g2
tp92
I11
s(S'happene'
p93
g10
tp94
I7
s(S'his/her'
p95
g2
tp96
I7
s(S'bureaucratic'
p97
g2
tp98
I11
s(S'downhill'
p99
g7
tp100
I7
s(S'poorly'
p101
g7
tp102
I9
s(S'economic'
p103
g2
tp104
I10
s(S'pretty'
p105
g10
tp106
I7
s(S'manageable'
p107
g2
tp108
I7
s(S'valuable'
p109
g2
tp110
I12
s(S'volume'
p111
g10
tp112
I7
s(S'independent'
p113
g2
tp114
I7
s(S'world-class'
p115
g2
tp116
I7
s(S'casual'
p117
g2
tp118
I10
s(S'massive'
p119
g2
tp120
I9
s(S'academic'
p121
g2
tp122
I7
s(S'Reasonable'
p123
g2
tp124
I8
s(S'Ridiculous'
p125
g2
tp126
I8
s(S'apps'
p127
g55
tp128
I7
s(S'young'
p129
g2
tp130
I10
s(S'Various'
p131
g2
tp132
I8
s(S'ever'
p133
g7
tp134
I21
s(S'factory'
p135
g10
tp136
I7
s(S'certainly'
p137
g7
tp138
I7
s(S'forward'
p139
g7
tp140
I9
s(S'Still'
p141
g7
tp142
I7
s(S'preferred'
p143
g2
tp144
I7
s(S'direction'
p145
g10
tp146
I8
s(S'prospective'
p147
g2
tp148
I7
s(S'institutional'
p149
g2
tp150
I7
s(S'thick'
p151
g2
tp152
I7
s(S'demanding'
p153
g10
tp154
I7
s(S'intense'
p155
g2
tp156
I7
s(S'technologically'
p157
g7
tp158
I7
s(S'more'
p159
S'RBR'
p160
tp161
I29
s(S'natural'
p162
g2
tp163
I7
s(S'Banker'
p164
g10
tp165
I8
s(S'push'
p166
g2
tp167
I7
s(S'now'
p168
g7
tp169
I13
s(S'unfair'
p170
g2
tp171
I8
s(S'fantastic'
p172
g2
tp173
I8
s(S'red'
p174
g2
tp175
I7
s(S'door'
p176
g10
tp177
I7
s(S'%'
p178
g10
tp179
I7
s(S'skilled'
p180
g2
tp181
I7
s(S'arrogance'
p182
g10
tp183
I7
s(S'little'
p184
g2
tp185
I31
s(S'just-in-time'
p186
g2
tp187
I7
s(S'mental'
p188
g2
tp189
I9
s(S'legal'
p190
g2
tp191
I7
s(S'seasonal'
p192
g2
tp193
I7
s(S'numbingly'
p194
g7
tp195
I7
s(S'common'
p196
g2
tp197
I10
s(S'process-oriented'
p198
g2
tp199
I7
s(S'experiences'
p200
g55
tp201
I9
s(S'middle'
p202
g2
tp203
I12
s(S'lay-offs'
p204
g55
tp205
I7
s(S'time-off'
p206
g2
tp207
I7
s(S'organisational'
p208
g2
tp209
I8
s(S'department-centric'
p210
g2
tp211
I7
s(S'dependable'
p212
g2
tp213
I7
s(S'street'
p214
g10
tp215
I7
s(S'pretty'
p216
g7
tp217
I17
s(S'perspective'
p218
g2
tp219
I7
s(S'prisoner'
p220
g10
tp221
I7
s(S'social'
p222
g2
tp223
I15
s(S'On-site'
p224
g2
tp225
I7
s(S'quire'
p226
g7
tp227
I7
s(S'barely'
p228
g7
tp229
I7
s(S'Experience'
p230
g10
tp231
I7
s(S'recordable'
p232
g2
tp233
I7
s(S'locations'
p234
g55
tp235
I7
s(S'particularly'
p236
g7
tp237
I7
s(S'plan'
p238
g10
tp239
I8
s(S'reasonably'
p240
g7
tp241
I7
s(S'legally'
p242
g7
tp243
I7
s(S'structure'
p244
g10
tp245
I9
s(S'effectivly'
p246
g7
tp247
I7
s(S'Management'
p248
g10
tp249
I7
s(S'merciful'
p250
g2
tp251
I7
s(S'open'
p252
g2
tp253
I9
s(S'fifth'
p254
g2
tp255
I7
s(S'Generous'
p256
g2
tp257
I8
s(S'minimum'
p258
g2
tp259
I9
s(S'third'
p260
g2
tp261
I9
s(S'usually'
p262
g7
tp263
I11
s(S'personal'
p264
g2
tp265
I28
s(S'promotion'
p266
g10
tp267
I9
s(S'Overly'
p268
g7
tp269
I8
s(S'decidedly'
p270
g7
tp271
I7
s(S'outside'
p272
g2
tp273
I9
s(S'fresh'
p274
g2
tp275
I10
s(S'banks'
p276
g55
tp277
I7
s(S'local'
p278
g2
tp279
I16
s(S'hard'
p280
g2
tp281
I16
s(S'minor'
p282
g2
tp283
I7
s(S'nauseum'
p284
g10
tp285
I8
s(S'past'
p286
g2
tp287
I7
s(S'educational'
p288
g2
tp289
I11
s(S'sensitive'
p290
g2
tp291
I8
s(S')'
p292
g10
tp293
I9
s(S'median'
p294
g2
tp295
I7
s(S'work'
p296
g10
tp297
I18
s(S'-Amazing'
p298
g2
tp299
I7
s(S'assistant'
p300
g2
tp301
I7
s(S'value'
p302
g10
tp303
I7
s(S'+Industry'
p304
g2
tp305
I7
s(S'visible'
p306
g2
tp307
I8
s(S'important'
p308
g2
tp309
I9
s(S'Spectacular'
p310
g2
tp311
I7
s(S'unambitious'
p312
g2
tp313
I7
s(S'equal'
p314
g2
tp315
I9
s(S'own'
p316
g2
tp317
I26
s(S'services'
p318
g55
tp319
I7
s(S'Extensive'
p320
g2
tp321
I7
s(S'replaceable'
p322
g2
tp323
I7
s(S'stellar'
p324
g2
tp325
I7
s(S'Free-Fire'
p326
g2
tp327
I7
s(S'incredible'
p328
g2
tp329
I8
s(S'appropriate'
p330
g2
tp331
I7
s(S'consulting'
p332
g10
tp333
I7
s(S'neck'
p334
g10
tp335
I7
s(S'informal'
p336
g2
tp337
I7
s(S'non-structured'
p338
g2
tp339
I7
s(S'issues'
p340
g55
tp341
I8
s(S'cut-throat'
p342
g2
tp343
I7
s(S'tough'
p344
g2
tp345
I8
s(S'C-level'
p346
g2
tp347
I7
s(S'emotional'
p348
g2
tp349
I7
s(S'-Slow'
p350
g2
tp351
I7
s(S'hourly'
p352
g7
tp353
I8
s(S'dysfunctional'
p354
g2
tp355
I8
s(S'promotion/'
p356
g2
tp357
I7
s(S'Passive'
p358
g2
tp359
I7
s(S'products'
p360
g55
tp361
I9
s(S'Dynamic'
p362
g2
tp363
I7
s(S'environme'
p364
g10
tp365
I7
s(S'book'
p366
g10
tp367
I7
s(S'historical'
p368
g2
tp369
I7
s(S'all-too'
p370
g2
tp371
I7
s(S'worth'
p372
g2
tp373
I9
s(S'projects'
p374
g55
tp375
I8
s(S'wold'
p376
g10
tp377
I7
s(S'wasteful'
p378
g2
tp379
I10
s(S'Political'
p380
g2
tp381
I7
s(S'free'
p382
g2
tp383
I12
s(S'however'
p384
g7
tp385
I8
s(S'morale'
p386
g10
tp387
I10
s(S'Self-imposed'
p388
g2
tp389
I7
s(S'serial'
p390
g2
tp391
I7
s(S'former'
p392
g2
tp393
I8
s(S'major'
p394
g2
tp395
I19
s(S'engineering/science'
p396
g2
tp397
I7
s(S'clear'
p398
g2
tp399
I12
s(S'Overall'
p400
g2
tp401
I10
s(S'Competitive'
p402
g2
tp403
I13
s(S'rigid'
p404
g2
tp405
I7
s(S'reputation'
p406
g10
tp407
I7
s(S'deeply'
p408
g7
tp409
I7
s(S'downsides'
p410
g55
tp411
I7
s(S'pyramid'
p412
g2
tp413
I7
s(S'Non-monetary'
p414
g2
tp415
I7
s(S'oil/energy'
p416
g2
tp417
I7
s(S'proper'
p418
g2
tp419
I8
s(S'exceptional'
p420
g2
tp421
I8
s(S'normal'
p422
g2
tp423
I8
s(S'professionally'
p424
g7
tp425
I7
s(S'timely'
p426
g2
tp427
I7
s(S'group'
p428
g10
tp429
I8
s(S'full'
p430
g2
tp431
I20
s(S'unqualified'
p432
g2
tp433
I7
s(S'endless'
p434
g2
tp435
I7
s(S'Current'
p436
g2
tp437
I8
s(S'genuinely'
p438
g7
tp439
I7
s(S'objective'
p440
g2
tp441
I7
s(S'line'
p442
g10
tp443
I8
s(S'-Very'
p444
g2
tp445
I7
s(S'here'
p446
g7
tp447
I9
s(S'divisions'
p448
g55
tp449
I8
s(S'undesirable'
p450
g2
tp451
I7
s(S'exact'
p452
g2
tp453
I7
s(S'-Work/Life'
p454
g2
tp455
I7
s(S'responsible'
p456
g2
tp457
I7
s(S'sub-par'
p458
g2
tp459
I7
s(S'training'
p460
g10
tp461
I9
s(S'Direct'
p462
g2
tp463
I7
s(S'namely'
p464
g7
tp465
I7
s(S'press'
p466
g10
tp467
I7
s(S'changes'
p468
g55
tp469
I8
s(S'instantly'
p470
g7
tp471
I7
s(S'students'
p472
g55
tp473
I8
s(S'cleverly'
p474
g7
tp475
I7
s(S'bottom'
p476
g2
tp477
I7
s(S'Professional'
p478
g2
tp479
I7
s(S'logistics'
p480
g55
tp481
I7
s(S'practices'
p482
g55
tp483
I7
s(S'future'
p484
g10
tp485
I7
s(S'rich'
p486
g2
tp487
I8
s(S'almost'
p488
g7
tp489
I11
s(S'extensive'
p490
g2
tp491
I7
s(S'catastrophic'
p492
g2
tp493
I7
s(S'obsessive'
p494
g2
tp495
I7
s(S'Inter-group'
p496
g2
tp497
I7
s(S'second'
p498
g2
tp499
I8
s(S'uncapped'
p500
g2
tp501
I7
s(S'respectful'
p502
g2
tp503
I8
s(S'responsive'
p504
g2
tp505
I7
s(S'opposite'
p506
g2
tp507
I7
s(S'Unmatched'
p508
g2
tp509
I7
s(S'WORK-LIFE'
p510
g2
tp511
I7
s(S'associates'
p512
g55
tp513
I7
s(S'beneffit'
p514
g10
tp515
I7
s(S'contractor'
p516
g10
tp517
I7
s(S'frugal'
p518
g2
tp519
I7
s(S'fiercely'
p520
g7
tp521
I7
s(S'Incomparable'
p522
g2
tp523
I7
s(S'Kids'
p524
g55
tp525
I7
s(S'possible'
p526
g2
tp527
I7
s(S'..the'
p528
g2
tp529
I7
s(S'spontaneously'
p530
g7
tp531
I7
s(S'drastically'
p532
g7
tp533
I7
s(S'managment'
p534
g10
tp535
I7
s(S'permanents'
p536
g55
tp537
I7
s(S'resume'
p538
g10
tp539
I8
s(S'always'
p540
g7
tp541
I46
s(S'hard'
p542
g7
tp543
I10
s(S'cubical'
p544
g2
tp545
I7
s(S'advancement'
p546
g10
tp547
I8
s(S'awful'
p548
g2
tp549
I9
s(S'expensive'
p550
g2
tp551
I8
s(S'healthy'
p552
g2
tp553
I7
s(S'under-controlled'
p554
g2
tp555
I7
s(S'growth'
p556
g10
tp557
I11
s(S'fields'
p558
g55
tp559
I7
s(S'term'
p560
g2
tp561
I8
s(S'trite'
p562
g2
tp563
I7
s(S'insiders'
p564
g55
tp565
I7
s(S'real'
p566
g2
tp567
I20
s(S'funny'
p568
g2
tp569
I7
s(S'paltry'
p570
g10
tp571
I7
s(S'-Exceptional'
p572
g2
tp573
I7
s(S'submission'
p574
g10
tp575
I7
s(S'secretive'
p576
g2
tp577
I7
s(S'friends'
p578
g55
tp579
I8
s(S'Numerous'
p580
g2
tp581
I7
s(S'week'
p582
g10
tp583
I7
s(S'lasting'
p584
g2
tp585
I7
s(S'bonuses'
p586
g55
tp587
I8
s(S'substantial'
p588
g2
tp589
I7
s(S'experienced'
p590
g2
tp591
I7
s(S'key'
p592
g2
tp593
I8
s(S'stable'
p594
g2
tp595
I12
s(S'reasonable'
p596
g2
tp597
I10
s(S'decent'
p598
g2
tp599
I8
s(S'administrative'
p600
g2
tp601
I7
s(S'things'
p602
g55
tp603
I7
s(S'reputational'
p604
g2
tp605
I7
s(S'reality'
p606
g10
tp607
I7
s(S'appreciated,'
p608
g2
tp609
I7
s(S'manual'
p610
g2
tp611
I7
s(S'market'
p612
g10
tp613
I11
s(S'comfortable'
p614
g2
tp615
I8
s(S'so-called'
p616
g2
tp617
I7
s(S'slowly'
p618
g7
tp619
I7
s(S'yesterday'
p620
g10
tp621
I7
s(S'others'
p622
g55
tp623
I7
s(S'fully'
p624
g7
tp625
I7
s(S'on-boarding'
p626
g2
tp627
I7
s(S'Many'
p628
g2
tp629
I29
s(S'unrealistic'
p630
g2
tp631
I7
s(S'expenses'
p632
g55
tp633
I8
s(S'mora'
p634
g10
tp635
I7
s(S'top'
p636
g2
tp637
I30
s(S'years'
p638
g55
tp639
I11
s(S'lucrative'
p640
g2
tp641
I7
s(S'la'
p642
g10
tp643
I7
s(S'steal'
p644
g2
tp645
I7
s(S'challenges'
p646
g55
tp647
I9
s(S'standards'
p648
g55
tp649
I7
s(S'reactive'
p650
g2
tp651
I7
s(S'Mostly'
p652
g7
tp653
I7
s(S'Organizational'
p654
g2
tp655
I7
s(S'far'
p656
g7
tp657
I7
s(S'single'
p658
g2
tp659
I8
s(S'gas'
p660
g10
tp661
I8
s(S'Executive'
p662
g2
tp663
I7
s(S'clearly'
p664
g7
tp665
I8
s(S'typical'
p666
g2
tp667
I11
s(S'disposable'
p668
g2
tp669
I7
s(S'easy-going'
p670
g2
tp671
I7
s(S'slow'
p672
g2
tp673
I16
s(S'less'
p674
g160
tp675
I8
s(S'global'
p676
g2
tp677
I35
s(S'workforce'
p678
g10
tp679
I7
s(S'*Great'
p680
g2
tp681
I7
s(S'absolutely'
p682
g7
tp683
I8
s(S'on-site'
p684
g2
tp685
I9
s(S'lunch'
p686
g10
tp687
I7
s(S'workload'
p688
g10
tp689
I7
s(S'changing'
p690
g10
tp691
I7
s(S'firms'
p692
g55
tp693
I8
s(S'happy'
p694
g2
tp695
I9
s(S'one-way'
p696
g2
tp697
I7
s(S'commission'
p698
g10
tp699
I7
s(S'leveraged'
p700
g2
tp701
I7
s(S'immediately'
p702
g7
tp703
I8
s(S'routine'
p704
g10
tp705
I7
s(S'politically'
p706
g7
tp707
I10
s(S'semiannual'
p708
g2
tp709
I7
s(S'cult-like'
p710
g2
tp711
I7
s(S'underqualified'
p712
g2
tp713
I7
s(S'lifestyle'
p714
g10
tp715
I7
s(S'-Arrogant'
p716
g2
tp717
I7
s(S'customer'
p718
g10
tp719
I8
s(S'all'
p720
g7
tp721
I7
s(S'necessary'
p722
g2
tp723
I7
s(S'legitimately'
p724
g7
tp725
I7
s(S'day-to-day'
p726
g2
tp727
I7
s(S'literally'
p728
g7
tp729
I7
s(S'unproductive'
p730
g2
tp731
I7
s(S'overall'
p732
g2
tp733
I18
s(S'work-life'
p734
g2
tp735
I16
s(S'names'
p736
g55
tp737
I7
s(S'unpractical'
p738
g2
tp739
I7
s(S'constantly'
p740
g7
tp741
I22
s(S'over-worked'
p742
g2
tp743
I7
s(S'absolute'
p744
g2
tp745
I7
s(S'Marvelous'
p746
g2
tp747
I7
s(S'other'
p748
g2
tp749
I88
s(S'Outstanding'
p750
g2
tp751
I9
s(S'away'
p752
g7
tp753
I7
s(S'long'
p754
g2
tp755
I40
s(S'scary'
p756
g2
tp757
I7
s(S'basically'
p758
g7
tp759
I9
s(S'lifelong'
p760
g2
tp761
I7
s(S'Continuous'
p762
g2
tp763
I7
s(S'expectations'
p764
g55
tp765
I8
s(S'quit'
p766
g10
tp767
I7
s(S'year'
p768
g10
tp769
I8
s(S'lateral'
p770
g2
tp771
I11
s(S'opportunity'
p772
g10
tp773
I13
s(S'with..rare'
p774
g2
tp775
I7
s(S're-org'
p776
g2
tp777
I7
s(S'correctly'
p778
g7
tp779
I8
s(S'developers'
p780
g55
tp781
I7
s(S'nonflexible'
p782
g2
tp783
I7
s(S'back'
p784
g10
tp785
I7
s(S'modules'
p786
g55
tp787
I7
s(S'mid-lower'
p788
g2
tp789
I7
s(S'stonewall'
p790
g2
tp791
I7
s(S'bank'
p792
g10
tp793
I7
s(S'complain'
p794
g10
tp795
I7
s(S'salaries'
p796
g55
tp797
I7
s(S'thoughtful'
p798
g2
tp799
I7
s(S'paramount'
p800
g10
tp801
I7
s(S'recallable'
p802
g2
tp803
I7
s(S'notch'
p804
g10
tp805
I7
s(S'excessive'
p806
g2
tp807
I7
s(S'regulatory'
p808
g2
tp809
I7
s(S'thoughtfully'
p810
g7
tp811
I7
s(S'employees'
p812
g55
tp813
I27
s(S'Opportunities'
p814
g55
tp815
I7
s(S'inform'
p816
g10
tp817
I7
s(S'and/or'
p818
g2
tp819
I8
s(S'worse'
p820
g10
tp821
I7
s(S'trajectory'
p822
g10
tp823
I7
s(S'excel'
p824
g10
tp825
I7
s(S'multi-focus'
p826
g2
tp827
I7
s(S'perfect'
p828
g10
tp829
I7
s(S'generous'
p830
g2
tp831
I11
s(S'wonderful'
p832
g2
tp833
I12
s(S'especially'
p834
g7
tp835
I9
s(S'national'
p836
g2
tp837
I10
s(S'miserable'
p838
g2
tp839
I7
s(S'Conservative'
p840
g2
tp841
I9
s(S'benefits'
p842
g55
tp843
I16
s(S'tx'
p844
g10
tp845
I7
s(S'meaningful'
p846
g2
tp847
I7
s(S'late'
p848
g2
tp849
I10
s(S'Seriously'
p850
g7
tp851
I7
s(S'Global'
p852
g2
tp853
I11
s(S'definitely'
p854
g7
tp855
I10
s(S'Vestigial'
p856
g2
tp857
I7
s(S'activites'
p858
g55
tp859
I7
s(S'skin'
p860
g10
tp861
I7
s(S'gladly'
p862
g7
tp863
I8
s(S'-VERY'
p864
g2
tp865
I7
s(S'intellegent'
p866
g2
tp867
I7
s(S'development'
p868
g10
tp869
I9
s(S'tactical'
p870
g2
tp871
I7
s(S'blows'
p872
g55
tp873
I7
s(S'Years'
p874
g55
tp875
I7
s(S'possibly'
p876
g7
tp877
I8
s(S'exhorbitantly-paid'
p878
g2
tp879
I7
s(S'drama'
p880
g10
tp881
I7
s(S'Outside'
p882
g2
tp883
I7
s(S'so'
p884
g7
tp885
I31
s(S'geographical'
p886
g2
tp887
I7
s(S'bad/poor'
p888
g2
tp889
I7
s(S'Sometimes'
p890
g7
tp891
I7
s(S'leave'
p892
g2
tp893
I7
s(S'technically'
p894
g7
tp895
I8
s(S'suck-up'
p896
g2
tp897
I7
s(S'incredibly'
p898
g7
tp899
I7
s(S'either'
p900
g7
tp901
I7
s(S'uniformity'
p902
g10
tp903
I7
s(S'Assistant'
p904
g2
tp905
I7
s(S'Unrealistic'
p906
g2
tp907
I7
s(S'TIght/small'
p908
g2
tp909
I7
s(S'competition'
p910
g10
tp911
I7
s(S'intimidation'
p912
g10
tp913
I7
s(S'relative'
p914
g2
tp915
I7
s(S'full-time'
p916
g2
tp917
I9
s(S'critical'
p918
g2
tp919
I9
s(S'Often'
p920
g7
tp921
I7
s(S'conceptual'
p922
g2
tp923
I7
s(S'*Better'
p924
g2
tp925
I7
s(S'average'
p926
g2
tp927
I19
s(S'steadily'
p928
g7
tp929
I9
s(S'automotive'
p930
g2
tp931
I10
s(S'advanced'
p932
g2
tp933
I7
s(S'difficult'
p934
g2
tp935
I8
s(S'little'
p936
g7
tp937
I12
s(S'perception'
p938
g10
tp939
I7
s(S'Vertical'
p940
g2
tp941
I7
s(S'flexible'
p942
g2
tp943
I35
s(S'immediate'
p944
g2
tp945
I13
s(S'wing'
p946
g10
tp947
I7
s(S'vacation'
p948
g10
tp949
I7
s(S'creative'
p950
g2
tp951
I9
s(S'sucks'
p952
g55
tp953
I7
s(S'various'
p954
g2
tp955
I17
s(S'co-operative'
p956
g2
tp957
I7
s(S'disciplines'
p958
g55
tp959
I7
s(S'Innovative'
p960
g2
tp961
I8
s(S'negatively'
p962
g7
tp963
I7
s(S'transistion'
p964
g10
tp965
I7
s(S'Little'
p966
g7
tp967
I7
s(S'last'
p968
g2
tp969
I9
s(S'ship'
p970
g10
tp971
I8
s(S'mainly'
p972
g7
tp973
I7
s(S'ONLY'
p974
g7
tp975
I7
s(S'cold-calling'
p976
g2
tp977
I7
s(S'hierarchical'
p978
g2
tp979
I7
s(S'holistic'
p980
g2
tp981
I7
s(S'business/department'
p982
g2
tp983
I7
s(S'typically'
p984
g7
tp985
I8
s(S'environmental'
p986
g2
tp987
I7
s(S'sales/profit'
p988
g2
tp989
I7
s(S'people'
p990
g55
tp991
I17
s(S'manifestly'
p992
g7
tp993
I7
s(S'effo'
p994
g10
tp995
I7
s(S'reorganizations'
p996
g55
tp997
I7
s(S'only'
p998
g2
tp999
I15
s(S'periods'
p1000
g55
tp1001
I7
s(S'desirable'
p1002
g2
tp1003
I7
s(S"n't"
p1004
g7
tp1005
I157
s(S'European'
p1006
g2
tp1007
I7
s(S'long'
p1008
g7
tp1009
I8
s(S'same'
p1010
g2
tp1011
I31
s(S'yearly'
p1012
g2
tp1013
I8
s(S'American'
p1014
g2
tp1015
I8
s(S'initial'
p1016
g2
tp1017
I8
s(S'firm-wide'
p1018
g2
tp1019
I7
s(S'Recent'
p1020
g2
tp1021
I7
s(S'manipulative'
p1022
g2
tp1023
I7
s(S'new'
p1024
g2
tp1025
I65
s(S'add'
p1026
g2
tp1027
I7
s(S'product'
p1028
g10
tp1029
I7
s(S'continuous'
p1030
g2
tp1031
I9
s(S'right'
p1032
g2
tp1033
I7
s(S'Zone'
p1034
g10
tp1035
I7
s(S'too'
p1036
g7
tp1037
I53
s(S'sometimes'
p1038
g7
tp1039
I20
s(S'multicultural'
p1040
g2
tp1041
I8
s(S'early'
p1042
g2
tp1043
I10
s(S'most'
p1044
S'RBS'
p1045
tp1046
I14
s(S'painfully'
p1047
g7
tp1048
I7
s(S'ever-increasing'
p1049
g2
tp1050
I7
s(S'French'
p1051
g2
tp1052
I16
s(S'Corporation'
p1053
g10
tp1054
I7
s(S'change'
p1055
g10
tp1056
I8
s(S'blatantly'
p1057
g7
tp1058
I7
s(S'intern'
p1059
g2
tp1060
I7
s(S'eventually'
p1061
g7
tp1062
I8
s(S'sales/service'
p1063
g2
tp1064
I7
s(S'joiner'
p1065
g10
tp1066
I7
s(S'regional'
p1067
g2
tp1068
I8
s(S'work/life'
p1069
g2
tp1070
I14
s(S'postal'
p1071
g2
tp1072
I7
s(S'unstable'
p1073
g2
tp1074
I8
s(S'raises'
p1075
g55
tp1076
I7
s(S'partly'
p1077
g7
tp1078
I7
s(S'plants'
p1079
g55
tp1080
I7
s(S'impossible'
p1081
g2
tp1082
I7
s(S'impersonal'
p1083
g2
tp1084
I7
s(S'politics'
p1085
g55
tp1086
I12
s(S'short'
p1087
g2
tp1088
I16
s(S'contractors'
p1089
g55
tp1090
I8
s(S'overwork/overstressed'
p1091
g2
tp1092
I7
s(S'offer'
p1093
g10
tp1094
I9
s(S'considerate'
p1095
g2
tp1096
I7
s(S'Extremely'
p1097
g7
tp1098
I10
s(S'current'
p1099
g2
tp1100
I16
s(S'ending'
p1101
g10
tp1102
I7
s(S'supervisiors'
p1103
g55
tp1104
I7
s(S'no-call'
p1105
g2
tp1106
I7
s(S'Only'
p1107
g7
tp1108
I7
s(S'team-oriented'
p1109
g2
tp1110
I7
s(S'limits.Great'
p1111
g2
tp1112
I7
s(S'price'
p1113
g10
tp1114
I8
s(S'unenjoyable'
p1115
g2
tp1116
I7
s(S'thus'
p1117
g7
tp1118
I8
s(S'Usual'
p1119
g2
tp1120
I7
s(S'few'
p1121
g2
tp1122
I37
s(S'Other'
p1123
g2
tp1124
I8
s(S'policies'
p1125
g55
tp1126
I7
s(S'Politically'
p1127
g7
tp1128
I7
s(S'galactic'
p1129
g2
tp1130
I7
s(S'areas'
p1131
g55
tp1132
I8
s(S'standard'
p1133
g2
tp1134
I8
s(S'fairly'
p1135
g7
tp1136
I10
s(S'pervasive'
p1137
g2
tp1138
I7
s(S'monthly'
p1139
g2
tp1140
I7
s(S'wildly'
p1141
g7
tp1142
I7
s(S'Repetitive'
p1143
g2
tp1144
I7
s(S'culture/workplace'
p1145
g10
tp1146
I7
s(S'ergonomics'
p1147
g55
tp1148
I7
s(S'Safety'
p1149
g10
tp1150
I7
s(S'mirrors'
p1151
g55
tp1152
I7
s(S'then'
p1153
g7
tp1154
I15
s(S'Sucks'
p1155
g55
tp1156
I9
s(S'inherent'
p1157
g2
tp1158
I7
s(S'potential'
p1159
g2
tp1160
I16
s(S'negative'
p1161
g2
tp1162
I18
s(S'salary'
p1163
g2
tp1164
I7
s(S'mundane'
p1165
g2
tp1166
I7
s(S'end'
p1167
g10
tp1168
I8
s(S'flexibility'
p1169
g10
tp1170
I7
s(S'recently'
p1171
g7
tp1172
I11
s(S'much'
p1173
g2
tp1174
I52
s(S'something'
p1175
g10
tp1176
I9
s(S'scared'
p1177
g2
tp1178
I7
s(S'favorite'
p1179
g2
tp1180
I7
s(S'movement'
p1181
g10
tp1182
I7
s(S'glacial'
p1183
g2
tp1184
I7
s(S'schedule'
p1185
g10
tp1186
I7
s(S'ride'
p1187
g10
tp1188
I7
s(S'centers'
p1189
g55
tp1190
I7
s(S'macroscopic'
p1191
g2
tp1192
I7
s(S'ideas'
p1193
g55
tp1194
I7
s(S'+Financial'
p1195
g2
tp1196
I7
s(S'hard-to-beat'
p1197
g2
tp1198
I7
s(S'British'
p1199
g2
tp1200
I8
s(S'stability'
p1201
g10
tp1202
I7
s(S'entrepreneurial'
p1203
g2
tp1204
I8
s(S'predictive'
p1205
g2
tp1206
I7
s(S'processes'
p1207
g55
tp1208
I8
s(S'Already'
p1209
g7
tp1210
I7
s(S'boa'
p1211
g10
tp1212
I7
s(S'whole'
p1213
g2
tp1214
I9
s(S'inflation-based'
p1215
g2
tp1216
I8
s(S'following'
p1217
g2
tp1218
I7
s(S'Strong'
p1219
g2
tp1220
I12
s(S'huge'
p1221
g2
tp1222
I21
s(S'ambitious'
p1223
g2
tp1224
I7
s(S'review'
p1225
g10
tp1226
I7
s(S'dogs'
p1227
g55
tp1228
I7
s(S'never'
p1229
g7
tp1230
I30
s(S'profile'
p1231
g10
tp1232
I7
s(S'movemoent'
p1233
g2
tp1234
I7
s(S'Bad'
p1235
g2
tp1236
I12
s(S'constant'
p1237
g2
tp1238
I21
s(S'way'
p1239
g10
tp1240
I7
s(S'tall'
p1241
g2
tp1242
I7
s(S'Retail'
p1243
g2
tp1244
I13
s(S'intellectual'
p1245
g2
tp1246
I10
s(S'competence'
p1247
g10
tp1248
I8
s(S'after-taste'
p1249
g2
tp1250
I7
s(S'leadership'
p1251
g10
tp1252
I7
s(S'wear'
p1253
g2
tp1254
I7
s(S'attendant'
p1255
g2
tp1256
I7
s(S'positive'
p1257
g2
tp1258
I15
s(S'ignorant'
p1259
g2
tp1260
I7
s(S'mutual'
p1261
g2
tp1262
I7
s(S'soon-to-be-completed'
p1263
g2
tp1264
I7
s(S'place'
p1265
g10
tp1266
I10
s(S'solid'
p1267
g2
tp1268
I12
s(S'not'
p1269
g7
tp1270
I228
s(S'organic'
p1271
g2
tp1272
I7
s(S'Junior-level'
p1273
g2
tp1274
I7
s(S'Part-time'
p1275
g2
tp1276
I7
s(S'overseas'
p1277
g2
tp1278
I7
s(S'terrific'
p1279
g2
tp1280
I7
s(S'nice'
p1281
g2
tp1282
I25
s(S'compensation'
p1283
g10
tp1284
I8
s(S'Few'
p1285
g2
tp1286
I8
s(S'rapidly'
p1287
g7
tp1288
I7
s(S'statistically'
p1289
g7
tp1290
I7
s(S'bag'
p1291
g10
tp1292
I7
s(S'clueless'
p1293
g10
tp1294
I7
s(S'terrible'
p1295
g2
tp1296
I10
s(S'Questionable'
p1297
g2
tp1298
I7
s(S'chase'
p1299
g10
tp1300
I7
s(S'unclear'
p1301
g2
tp1302
I7
s(S'multiple'
p1303
g2
tp1304
I9
s(S'myopic'
p1305
g2
tp1306
I7
s(S'deplorable'
p1307
g2
tp1308
I7
s(S'unstoppable'
p1309
g2
tp1310
I7
s(S'central'
p1311
g2
tp1312
I7
s(S'properly'
p1313
g7
tp1314
I7
s(S'ample'
p1315
g2
tp1316
I7
s(S'money'
p1317
g10
tp1318
I9
s(S'worth'
p1319
g10
tp1320
I7
s(S'primary'
p1321
g2
tp1322
I7
s(S'unhappy'
p1323
g2
tp1324
I7
s(S'stuff'
p1325
g10
tp1326
I9
s(S'low'
p1327
g2
tp1328
I34
s(S'Relative'
p1329
g2
tp1330
I7
s(S'just'
p1331
g7
tp1332
I25
s(S'non-management'
p1333
g2
tp1334
I9
s(S'track'
p1335
g10
tp1336
I7
s(S'idealistic'
p1337
g2
tp1338
I7
s(S'Services/Managed'
p1339
g2
tp1340
I7
s(S'related'
p1341
g2
tp1342
I7
s(S'onsite'
p1343
g2
tp1344
I9
s(S'decently'
p1345
g7
tp1346
I7
s(S'successful'
p1347
g2
tp1348
I8
s(S"N'T"
p1349
g7
tp1350
I7
s(S'manager'
p1351
g10
tp1352
I9
s(S'ahead'
p1353
g7
tp1354
I7
s(S'sharp'
p1355
g2
tp1356
I7
s(S'geographic'
p1357
g2
tp1358
I8
s(S'-Demanding'
p1359
g2
tp1360
I7
s(S'strategic'
p1361
g2
tp1362
I11
s(S'entitlement'
p1363
g10
tp1364
I7
s(S'highly-qualified'
p1365
g2
tp1366
I7
s(S'system'
p1367
g10
tp1368
I7
s(S'Confortable'
p1369
g2
tp1370
I7
s(S'Small'
p1371
g2
tp1372
I7
s(S'Incredible'
p1373
g2
tp1374
I8
s(S'corporation'
p1375
g10
tp1376
I7
s(S'seasoned'
p1377
g2
tp1378
I7
s(S'operational'
p1379
g2
tp1380
I7
s(S'bad'
p1381
g2
tp1382
I44
s(S'risk-averse'
p1383
g2
tp1384
I7
s(S'.just'
p1385
g2
tp1386
I7
s(S'safe'
p1387
g2
tp1388
I7
s(S'secondary'
p1389
g2
tp1390
I9
s(S'tight'
p1391
g2
tp1392
I7
s(S'still'
p1393
g7
tp1394
I19
s(S'rules'
p1395
g55
tp1396
I7
s(S'irrational'
p1397
g2
tp1398
I7
s(S'quick'
p1399
g2
tp1400
I7
s(S'equitable'
p1401
g2
tp1402
I7
s(S'unpolished'
p1403
g2
tp1404
I7
s(S'Work-life'
p1405
g2
tp1406
I7
s(S'directly'
p1407
g7
tp1408
I7
s(S'efficient'
p1409
g2
tp1410
I7
s(S'old'
p1411
g2
tp1412
I17
s(S'hostile'
p1413
g2
tp1414
I7
s(S'favorites'
p1415
g55
tp1416
I7
s(S'competitive'
p1417
g2
tp1418
I18
s(S'mission'
p1419
g10
tp1420
I7
s(S'anonymously'
p1421
g7
tp1422
I7
s(S'significant'
p1423
g2
tp1424
I12
s(S'unduly'
p1425
g7
tp1426
I7
s(S'high'
p1427
g2
tp1428
I50
s(S'first'
p1429
g7
tp1430
I12
s(S'bureaucracy'
p1431
g10
tp1432
I8
s(S'tech'
p1433
g10
tp1434
I7
s(S'Important'
p1435
g2
tp1436
I7
s(S'Just'
p1437
g7
tp1438
I8
s(S'heavily'
p1439
g7
tp1440
I8
s(S'heavy'
p1441
g2
tp1442
I7
s(S'monstrous'
p1443
g2
tp1444
I7
s(S'mouth'
p1445
g10
tp1446
I7
s(S'activities'
p1447
g55
tp1448
I7
s(S'buddy'
p1449
g2
tp1450
I7
s(S'frequently'
p1451
g7
tp1452
I7
s(S'Several'
p1453
g2
tp1454
I7
s(S'internal'
p1455
g2
tp1456
I23
s(S'Oddly'
p1457
g7
tp1458
I7
s(S'part-time'
p1459
g2
tp1460
I8
s(S'Huge'
p1461
g2
tp1462
I12
s(S'above'
p1463
g7
tp1464
I7
s(S'non-exempt'
p1465
g2
tp1466
I8
s(S'perhaps'
p1467
g7
tp1468
I7
s(S'area'
p1469
g10
tp1470
I8
s(S'Once'
p1471
g7
tp1472
I7
s(S'results'
p1473
g55
tp1474
I7
s(S'Dead-end'
p1475
g2
tp1476
I7
s(S'logical'
p1477
g2
tp1478
I7
s(S'redundancy'
p1479
g10
tp1480
I7
s(S'operations'
p1481
g55
tp1482
I7
s(S'B+D'
p1483
g2
tp1484
I7
s(S'bright'
p1485
g2
tp1486
I8
s(S'defintely'
p1487
g7
tp1488
I7
s(S'customers'
p1489
g55
tp1490
I7
s(S'attractive'
p1491
g2
tp1492
I8
s(S'relatively'
p1493
g7
tp1494
I12
s(S'uncompetence'
p1495
g10
tp1496
I7
s(S'Analyst'
p1497
g10
tp1498
I7
s(S'consciously'
p1499
g7
tp1500
I7
s(S'Medical'
p1501
g2
tp1502
I9
s(S'good'
p1503
g2
tp1504
I282
s(S'very'
p1505
g2
tp1506
I9
s(S'roller-coaster'
p1507
g2
tp1508
I7
s(S'store..excellent'
p1509
g2
tp1510
I7
s(S'verbal'
p1511
g2
tp1512
I8
s(S'merger'
p1513
g10
tp1514
I7
s(S'further'
p1515
g2
tp1516
I7
s(S'guilty'
p1517
g2
tp1518
I7
s(S'lucky'
p1519
g2
tp1520
I9
s(S'throughbe'
p1521
g10
tp1522
I7
s(S'knowledgable'
p1523
g2
tp1524
I8
s(S'regardless'
p1525
g10
tp1526
I7
s(S'knowledge'
p1527
g10
tp1528
I8
s(S'computers'
p1529
g55
tp1530
I7
s(S'jobs'
p1531
g55
tp1532
I7
s(S'mostly'
p1533
g7
tp1534
I9
s(S'quite'
p1535
g7
tp1536
I14
s(S'overtime'
p1537
g10
tp1538
I8
s(S'cost'
p1539
g10
tp1540
I7
s(S'monthly'
p1541
g7
tp1542
I7
s(S'personally'
p1543
g7
tp1544
I8
s(S'restrictedly'
p1545
g7
tp1546
I7
s(S'approachable'
p1547
g2
tp1548
I7
s(S'royal'
p1549
g2
tp1550
I7
s(S'site'
p1551
g2
tp1552
I7
s(S'even'
p1553
g7
tp1554
I14
s(S'everyone'
p1555
g10
tp1556
I8
s(S'Significant'
p1557
g2
tp1558
I9
s(S'unemployment'
p1559
g10
tp1560
I7
s(S'knowledgeable'
p1561
g2
tp1562
I9
s(S'perpetual'
p1563
g2
tp1564
I8
s(S'better'
p1565
g160
tp1566
I8
s(S'incremental'
p1567
g2
tp1568
I7
s(S'NOT'
p1569
g7
tp1570
I7
s(S'organizational'
p1571
g2
tp1572
I12
s(S'medical'
p1573
g2
tp1574
I15
s(S'shift'
p1575
g10
tp1576
I9
s(S'signifcant'
p1577
g2
tp1578
I7
s(S'-Solid'
p1579
g2
tp1580
I7
s(S'enthusiastic'
p1581
g2
tp1582
I7
s(S'spills'
p1583
g55
tp1584
I7
s(S'professional'
p1585
g2
tp1586
I36
s(S'oil/gas'
p1587
g2
tp1588
I7
s(S'extremely'
p1589
g7
tp1590
I24
s(S'!'
p1591
g10
tp1592
I11
s(S'enormous'
p1593
g2
tp1594
I7
s(S'perfect'
p1595
g2
tp1596
I8
s(S'programs'
p1597
g55
tp1598
I8
s(S'private'
p1599
g2
tp1600
I8
s(S'life'
p1601
g10
tp1602
I7
s(S'promotional'
p1603
g2
tp1604
I12
s(S'wrong'
p1605
g2
tp1606
I9
s(S'nearly'
p1607
g7
tp1608
I8
s(S'receive'
p1609
g2
tp1610
I7
s(S'orthodox'
p1611
g10
tp1612
I7
s(S'break-through'
p1613
g2
tp1614
I7
s(S'Oppressive'
p1615
g2
tp1616
I7
s(S'work-related'
p1617
g2
tp1618
I7
s(S'feelings'
p1619
g55
tp1620
I7
s(S'prosper'
p1621
g10
tp1622
I7
s(S'family'
p1623
g10
tp1624
I7
s(S'simple'
p1625
g2
tp1626
I9
s(S'Always'
p1627
g7
tp1628
I7
s(S'expansion'
p1629
g10
tp1630
I7
s(S'mentioning'
p1631
g10
tp1632
I7
s(S'Major'
p1633
g2
tp1634
I7
s(S'companies'
p1635
g55
tp1636
I8
s(S'several'
p1637
g2
tp1638
I11
s(S'analyst'
p1639
g10
tp1640
I7
s(S'good/bad'
p1641
g2
tp1642
I7
s(S'managerial'
p1643
g2
tp1644
I7
s(S'traditional'
p1645
g2
tp1646
I7
s(S'code'
p1647
g10
tp1648
I7
s(S'kaizen'
p1649
g10
tp1650
I7
s(S'crime-filled'
p1651
g2
tp1652
I7
s(S'back'
p1653
g7
tp1654
I7
s(S'strongly'
p1655
g7
tp1656
I9
s(S'weeks'
p1657
g55
tp1658
I7
s(S'managers'
p1659
g55
tp1660
I7
s(S'slow-moving'
p1661
g2
tp1662
I7
s(S'broad'
p1663
g2
tp1664
I8
s(S'executive'
p1665
g2
tp1666
I10
s(S'intern'
p1667
g10
tp1668
I7
s(S'employee'
p1669
g10
tp1670
I9
s(S'strictly'
p1671
g7
tp1672
I8
s(S'steady'
p1673
g2
tp1674
I8
s(S'fellow'
p1675
g2
tp1676
I8
s(S'departments'
p1677
g55
tp1678
I10
s(S'raise'
p1679
g10
tp1680
I7
s(S'ful'
p1681
g2
tp1682
I7
s(S'diff'
p1683
g10
tp1684
I7
s(S'crafts-people'
p1685
g2
tp1686
I7
s(S'friendly'
p1687
g2
tp1688
I10
s(S'vague'
p1689
g2
tp1690
I7
s(S'ridiculous'
p1691
g2
tp1692
I7
s(S'3rd'
p1693
g2
tp1694
I7
s(S'pay'
p1695
g10
tp1696
I9
s(S'generally'
p1697
g7
tp1698
I14
s(S'ok'
p1699
g10
tp1700
I7
s(S'middle-management'
p1701
g2
tp1702
I7
s(S'engineer'
p1703
g10
tp1704
I9
s(S'bit'
p1705
g10
tp1706
I8
s(S'talent'
p1707
g10
tp1708
I9
s(S'many'
p1709
g2
tp1710
I135
s(S'Annual'
p1711
g2
tp1712
I7
s(S'number'
p1713
g10
tp1714
I7
s(S'formal'
p1715
g2
tp1716
I10
s(S'Work/life'
p1717
g2
tp1718
I8
s(S'Average'
p1719
g2
tp1720
I8
s(S'such'
p1721
g2
tp1722
I12
s(S'daily'
p1723
g2
tp1724
I15
s(S'Too'
p1725
g7
tp1726
I25
s(S'generic'
p1727
g2
tp1728
I7
s(S'essential'
p1729
g2
tp1730
I7
s(S'days'
p1731
g55
tp1732
I8
s(S'non-existent'
p1733
g2
tp1734
I7
s(S'-People'
p1735
g2
tp1736
I7
s(S'noticeable'
p1737
g2
tp1738
I7
s(S'glorious'
p1739
g2
tp1740
I7
s(S'well'
p1741
g7
tp1742
I34
s(S'insight'
p1743
g10
tp1744
I7
s(S'walmart'
p1745
g10
tp1746
I8
s(S'Large'
p1747
g2
tp1748
I29
s(S'interesting'
p1749
g2
tp1750
I23
s(S'engineering'
p1751
g10
tp1752
I7
s(S'complex'
p1753
g2
tp1754
I8
s(S'technical'
p1755
g2
tp1756
I30
s(S'Promotions'
p1757
g55
tp1758
I7
s(S'surprisingly'
p1759
g7
tp1760
I7
s(S'region'
p1761
g10
tp1762
I7
s(S'somewhat'
p1763
g7
tp1764
I9
s(S'Institutional'
p1765
g2
tp1766
I7
s(S'builder'
p1767
g10
tp1768
I7
s(S'officially'
p1769
g7
tp1770
I7
s(S'inwardly'
p1771
g7
tp1772
I7
s(S'end-of-month'
p1773
g2
tp1774
I7
s(S'court'
p1775
g10
tp1776
I7
s(S'comforts'
p1777
g55
tp1778
I7
s(S'easily'
p1779
g7
tp1780
I13
s(S'OK'
p1781
g10
tp1782
I9
s(S'recent'
p1783
g2
tp1784
I8
s(S'complete'
p1785
g2
tp1786
I7
s(S'Appliances'
p1787
g55
tp1788
I7
s(S'Headquarter-centric'
p1789
g2
tp1790
I8
s(S'anything'
p1791
g10
tp1792
I7
s(S'annual'
p1793
g2
tp1794
I16
s(S'special'
p1795
g2
tp1796
I7
s(S'Casual'
p1797
g2
tp1798
I7
s(S'goods'
p1799
g55
tp1800
I7
s(S'company,'
p1801
g10
tp1802
I7
s(S'continuously'
p1803
g7
tp1804
I8
s(S"'ole"
p1805
g2
tp1806
I7
s(S'finance'
p1807
g10
tp1808
I7
s(S'horrible'
p1809
g2
tp1810
I8
s(S'fruition'
p1811
g10
tp1812
I7
s(S'impact'
p1813
g10
tp1814
I8
s(S'improvement'
p1815
g10
tp1816
I11
s(S'retail'
p1817
g2
tp1818
I29
s(S'Terrible'
p1819
g2
tp1820
I8
s(S'economics'
p1821
g55
tp1822
I7
s(S'recreational'
p1823
g2
tp1824
I7
s(S'pragmatic'
p1825
g2
tp1826
I7
s(S'intensive'
p1827
g2
tp1828
I7
s(S'livable'
p1829
g2
tp1830
I7
s(S'qualified'
p1831
g2
tp1832
I7
s(S'varied'
p1833
g2
tp1834
I7
s(S'extra'
p1835
g2
tp1836
I8
s(S'next'
p1837
g2
tp1838
I15
s(S'upper'
p1839
g2
tp1840
I23
s(S'sick/personal'
p1841
g2
tp1842
I7
s(S'space'
p1843
g10
tp1844
I7
s(S'making/closing'
p1845
g2
tp1846
I7
s(S'CONSTANTLY'
p1847
g7
tp1848
I7
s(S'safety'
p1849
g10
tp1850
I7
s(S'paths'
p1851
g55
tp1852
I7
s(S'fundamentals'
p1853
g55
tp1854
I7
s(S'mad'
p1855
g10
tp1856
I7
s(S'equitqable'
p1857
g2
tp1858
I7
s(S'unprofessional'
p1859
g2
tp1860
I7
s(S'house'
p1861
g10
tp1862
I7
s(S'financial'
p1863
g2
tp1864
I23
s(S'opportunities'
p1865
g55
tp1866
I11
s(S'-Some'
p1867
g2
tp1868
I8
s(S'balance'
p1869
g10
tp1870
I15
s(S'specific'
p1871
g2
tp1872
I9
s(S'upward'
p1873
g2
tp1874
I9
s(S'enough'
p1875
g7
tp1876
I12
s(S'college'
p1877
g10
tp1878
I7
s(S'increadible'
p1879
g2
tp1880
I7
s(S'quantitative'
p1881
g2
tp1882
I7
s(S'cubicles'
p1883
g55
tp1884
I7
s(S'nothing'
p1885
g10
tp1886
I11
s(S'ongoing'
p1887
g2
tp1888
I7
s(S'wha'
p1889
g10
tp1890
I7
s(S'Technical'
p1891
g2
tp1892
I7
s(S'package'
p1893
g10
tp1894
I7
s(S'marketable'
p1895
g2
tp1896
I7
s(S'once'
p1897
g7
tp1898
I10
s(S'effectively'
p1899
g7
tp1900
I7
s(S'dis-functional'
p1901
g2
tp1902
I7
s(S'unit'
p1903
g10
tp1904
I7
s(S'stone'
p1905
g10
tp1906
I7
s(S'fundamental'
p1907
g2
tp1908
I7
s(S'action'
p1909
g10
tp1910
I8
s(S'senior'
p1911
g2
tp1912
I34
s(S'big'
p1913
g2
tp1914
I47
s(S'justifiable'
p1915
g2
tp1916
I7
s(S'comparable'
p1917
g2
tp1918
I8
s(S'bp'
p1919
g10
tp1920
I7
s(S'Not'
p1921
g7
tp1922
I26
s(S'recognizable'
p1923
g2
tp1924
I7
s(S'stre'
p1925
g10
tp1926
I7
s(S'hierarchal'
p1927
g2
tp1928
I7
s(S'blue'
p1929
g2
tp1930
I7
s(S'truly'
p1931
g7
tp1932
I12
s(S'seem'
p1933
g10
tp1934
I7
s(S'peers'
p1935
g55
tp1936
I7
s(S'rough'
p1937
g2
tp1938
I7
s(S'new-hire'
p1939
g2
tp1940
I7
s(S'depts'
p1941
g55
tp1942
I7
s(S'-Faire'
p1943
g2
tp1944
I7
s(S'salary'
p1945
g10
tp1946
I8
s(S'supervisors'
p1947
g55
tp1948
I7
s(S'time'
p1949
g10
tp1950
I10
s(S'One-Stop'
p1951
g2
tp1952
I7
s(S'approach'
p1953
g10
tp1954
I7
s(S'overly'
p1955
g7
tp1956
I8
s(S'Adversarial'
p1957
g2
tp1958
I7
s(S'inadequate'
p1959
g2
tp1960
I8
s(S'REALLY'
p1961
g7
tp1962
I8
s(S'Internal'
p1963
g2
tp1964
I7
s(S'Vindictive'
p1965
g2
tp1966
I8
s(S'inertial'
p1967
g2
tp1968
I7
s(S'understaffing'
p1969
g10
tp1970
I7
s(S'commercial'
p1971
g2
tp1972
I7
s(S'strong'
p1973
g2
tp1974
I25
s(S'dead'
p1975
g2
tp1976
I9
s(S'honest'
p1977
g2
tp1978
I7
s(S'ac'
p1979
g10
tp1980
I7
s(S'hugely'
p1981
g7
tp1982
I7
s(S'cutthroat'
p1983
g2
tp1984
I7
s(S'wor'
p1985
g10
tp1986
I7
s(S'Never'
p1987
g7
tp1988
I11
s(S'hours'
p1989
g55
tp1990
I14
s(S'offices'
p1991
g55
tp1992
I8
s(S'realistic'
p1993
g2
tp1994
I7
s(S'eduactional'
p1995
g2
tp1996
I7
s(S'Flexible'
p1997
g2
tp1998
I20
s(S'Total'
p1999
g2
tp2000
I7
s(S'recognition'
p2001
g10
tp2002
I7
s(S'sprawling'
p2003
g2
tp2004
I7
s(S'service'
p2005
g10
tp2006
I8
s(S'autonomous'
p2007
g2
tp2008
I7
s(S'anonymity'
p2009
g10
tp2010
I8
s(S'Constantly'
p2011
g7
tp2012
I8
s(S'experience'
p2013
g10
tp2014
I24
s(S'offshoring'
p2015
g10
tp2016
I7
s(S'skills'
p2017
g55
tp2018
I8
s(S'appear'
p2019
g2
tp2020
I7
s(S'High'
p2021
g2
tp2022
I18
s(S'-Much'
p2023
g2
tp2024
I7
s(S'junior'
p2025
g2
tp2026
I7
s(S'compartmentalized'
p2027
g2
tp2028
I7
s(S'cool'
p2029
g2
tp2030
I8
s(S'families/children/other'
p2031
g2
tp2032
I7
s(S'Personal'
p2033
g2
tp2034
I10
s(S'analytical'
p2035
g2
tp2036
I7
s(S'capable'
p2037
g2
tp2038
I7
s(S'inititative'
p2039
g2
tp2040
I7
s(S'Nothing'
p2041
g10
tp2042
I7
s(S'Horrible'
p2043
g2
tp2044
I7
s(S'travel'
p2045
g10
tp2046
I7
s(S'trivial'
p2047
g2
tp2048
I7
s(S'locomotive'
p2049
g2
tp2050
I7
s(S'clinically'
p2051
g7
tp2052
I7
s(S'weak/poor'
p2053
g2
tp2054
I7
s(S'laziness'
p2055
g10
tp2056
I7
s(S'highly'
p2057
g7
tp2058
I19
s(S'-Ignorant/impatient/rude'
p2059
g2
tp2060
I7
s(S'necessarily'
p2061
g7
tp2062
I11
s(S'non-essential'
p2063
g2
tp2064
I7
s(S'there'
p2065
g7
tp2066
I8
s(S'native'
p2067
g2
tp2068
I7
s(S'yields'
p2069
g55
tp2070
I7
s(S'exciting'
p2071
g2
tp2072
I8
s(S'VP/Director/MD'
p2073
g2
tp2074
I7
s(S'sympathizers'
p2075
g55
tp2076
I7
s(S'accessible'
p2077
g2
tp2078
I7
s(S'marital'
p2079
g2
tp2080
I7
s(S'management'
p2081
g10
tp2082
I17
s(S'matrix'
p2083
g10
tp2084
I7
s(S'Mechanical'
p2085
g2
tp2086
I7
s(S'exposure'
p2087
g10
tp2088
I7
s(S'Great'
p2089
g2
tp2090
I8
s(S'inclusive'
p2091
g2
tp2092
I7
s(S'Japanese'
p2093
g2
tp2094
I14
s(S'consrvatorship'
p2095
g10
tp2096
I7
s(S'severely'
p2097
g7
tp2098
I8
s(S'over-all'
p2099
g2
tp2100
I7
s(S'rather'
p2101
g7
tp2102
I8
s(S'privacy'
p2103
g10
tp2104
I7
s(S'similar'
p2105
g2
tp2106
I13
s(S'numerical'
p2107
g2
tp2108
I7
s(S'theoretically'
p2109
g7
tp2110
I7
s(S'-Conforming'
p2111
g2
tp2112
I7
s(S'great'
p2113
g2
tp2114
I197
s(S'strict'
p2115
g2
tp2116
I7
s(S'Georgaphical'
p2117
g2
tp2118
I7
s(S'career'
p2119
g10
tp2120
I10
s(S'lean'
p2121
g2
tp2122
I8
s(S'moderate'
p2123
g2
tp2124
I7
s(S'day'
p2125
g10
tp2126
I8
s(S'history'
p2127
g10
tp2128
I7
s(S'okay'
p2129
g10
tp2130
I7
s(S'easy'
p2131
g2
tp2132
I8
s(S'performance'
p2133
g10
tp2134
I8
s(S'globally'
p2135
g7
tp2136
I7
s(S'consistently'
p2137
g7
tp2138
I9
s(S'interim'
p2139
g2
tp2140
I7
s(S'culture'
p2141
g10
tp2142
I11
s(S'Now'
p2143
g7
tp2144
I7
s(S'-Being'
p2145
g2
tp2146
I7
s(S'care'
p2147
g10
tp2148
I7
s(S'greatly'
p2149
g7
tp2150
I7
s(S'wonderfull'
p2151
g2
tp2152
I7
s(S'-Great'
p2153
g2
tp2154
I9
s(S'convenient'
p2155
g2
tp2156
I7
s(S'numerous'
p2157
g2
tp2158
I9
s(S'crises'
p2159
g55
tp2160
I7
s(S'-challenging'
p2161
g2
tp2162
I7
s(S'profits'
p2163
g55
tp2164
I7
s(S'ar'
p2165
g7
tp2166
I7
s(S'manner'
p2167
g10
tp2168
I7
s(S'alone'
p2169
g7
tp2170
I8
s(S'fat'
p2171
g2
tp2172
I8
s(S'Enormously'
p2173
g7
tp2174
I7
s(S'Mid-level'
p2175
g2
tp2176
I7
s(S'German'
p2177
g2
tp2178
I7
s(S'Corporate'
p2179
g2
tp2180
I12
s(S'o.t'
p2181
g2
tp2182
I8
s(S'micro-managing'
p2183
g2
tp2184
I7
s(S'likely'
p2185
g7
tp2186
I7
s(S'aggressively'
p2187
g7
tp2188
I8
s(S'optimal'
p2189
g2
tp2190
I7
s(S'workers'
p2191
g55
tp2192
I7
s(S'Fire-fight'
p2193
g2
tp2194
I7
s(S'are'
p2195
g2
tp2196
I7
s(S'informally'
p2197
g7
tp2198
I7
s(S'cross-functional'
p2199
g2
tp2200
I7
s(S'times'
p2201
g55
tp2202
I9
s(S'sales'
p2203
g55
tp2204
I8
s(S'cons'
p2205
g55
tp2206
I9
s(S'Financial'
p2207
g2
tp2208
I7
s(S'allowing'
p2209
g10
tp2210
I7
s(S'skill'
p2211
g10
tp2212
I7
s(S'non-diverse'
p2213
g2
tp2214
I7
s(S'main'
p2215
g2
tp2216
I11
s(S'circumstances'
p2217
g55
tp2218
I7
s(S'classes'
p2219
g55
tp2220
I7
s(S'diverse'
p2221
g2
tp2222
I14
s(S'previously'
p2223
g7
tp2224
I7
s(S'ever-changing'
p2225
g2
tp2226
I7
s(S'large'
p2227
g2
tp2228
I37
s(S'automation'
p2229
g10
tp2230
I7
s(S'much'
p2231
g7
tp2232
I17
s(S'groups'
p2233
g55
tp2234
I7
s(S'serious'
p2235
g2
tp2236
I7
s(S'employment'
p2237
g10
tp2238
I7
s(S'geologists'
p2239
g55
tp2240
I7
s(S'crap'
p2241
g10
tp2242
I7
s(S'hectic'
p2243
g2
tp2244
I7
s(S'Daily'
p2245
g7
tp2246
I7
s(S'Relatively'
p2247
g7
tp2248
I7
s(S'different'
p2249
g2
tp2250
I53
s(S'follow'
p2251
g2
tp2252
I7
s(S'grown-up'
p2253
g2
tp2254
I8
s(S'37.5hr'
p2255
g2
tp2256
I7
s(S'close'
p2257
g2
tp2258
I7
s(S'certain'
p2259
g2
tp2260
I18
s(S'public'
p2261
g2
tp2262
I12
s(S'development/training'
p2263
g2
tp2264
I7
s(S'regular'
p2265
g2
tp2266
I8
s(S'additional'
p2267
g2
tp2268
I13
s(S'engineers'
p2269
g55
tp2270
I7
s(S'conservative'
p2271
g2
tp2272
I10
s(S'industrial'
p2273
g2
tp2274
I7
s(S'alternative'
p2275
g2
tp2276
I7
s(S'location'
p2277
g10
tp2278
I7
s(S'touch'
p2279
g2
tp2280
I7
s(S'pleasant'
p2281
g2
tp2282
I8
s(S'feels'
p2283
g55
tp2284
I7
s(S'couple'
p2285
g2
tp2286
I7
s(S'non-business'
p2287
g2
tp2288
I7
s(S'poor'
p2289
g2
tp2290
I32
s(S'busy'
p2291
g2
tp2292
I9
s(S'roles'
p2293
g55
tp2294
I7
s(S'guidance'
p2295
g10
tp2296
I7
s(S'Positive'
p2297
g2
tp2298
I9
s(S'sexual'
p2299
g2
tp2300
I7
s(S'totally'
p2301
g7
tp2302
I8
s(S'holidays'
p2303
g55
tp2304
I7
s(S'really'
p2305
g7
tp2306
I38
s(S'also'
p2307
g7
tp2308
I21
s(S'useful'
p2309
g2
tp2310
I8
s(S'bonus'
p2311
g10
tp2312
I8
s(S'security'
p2313
g10
tp2314
I7
s(S'Long'
p2315
g2
tp2316
I13
s(S'toooooooo'
p2317
g7
tp2318
I7
s(S'vastly'
p2319
g7
tp2320
I7
s(S'enjoyable'
p2321
g2
tp2322
I7
s(S'isnt'
p2323
g10
tp2324
I7
s(S'willing'
p2325
g2
tp2326
I7
s(S'quarterly'
p2327
g2
tp2328
I7
s(S'greedy'
p2329
g2
tp2330
I7
s(S'stressful'
p2331
g2
tp2332
I10
s(S'Highly'
p2333
g7
tp2334
I13
s(S'visual'
p2335
g2
tp2336
I7
s(S'utterly'
p2337
g7
tp2338
I7
s(S'Family'
p2339
g7
tp2340
I7
s(S'Finally'
p2341
g7
tp2342
I7
s(S'workplace'
p2343
g10
tp2344
I7
s(S'ages'
p2345
g55
tp2346
I7
s(S'international'
p2347
g2
tp2348
I25
s(S'dynamic'
p2349
g2
tp2350
I8
s(S'abundant'
p2351
g2
tp2352
I7
s(S'fast'
p2353
g7
tp2354
I7
s(S'profitable'
p2355
g2
tp2356
I7
s(S'plant'
p2357
g10
tp2358
I7
s(S'corporate'
p2359
g2
tp2360
I41
s(S'game'
p2361
g10
tp2362
I8
s(S'originally'
p2363
g7
tp2364
I7
s(S'political'
p2365
g2
tp2366
I19
s(S'direct'
p2367
g2
tp2368
I13
s(S'reputable'
p2369
g2
tp2370
I8
s(S'environment'
p2371
g10
tp2372
I16
s(S'togather'
p2373
g10
tp2374
I7
s(S'sweet'
p2375
g2
tp2376
I7
s(S'general'
p2377
g2
tp2378
I12
s(S'outrageous'
p2379
g2
tp2380
I7
s(S'essentially'
p2381
g7
tp2382
I7
s(S'individual'
p2383
g2
tp2384
I24
s(S'meritocracy'
p2385
g10
tp2386
I7
s(S'unique'
p2387
g2
tp2388
I7
s(S'centralized'
p2389
g2
tp2390
I7
s(S'soon'
p2391
g7
tp2392
I7
s(S'banking'
p2393
g10
tp2394
I7
s(S'initiatives'
p2395
g55
tp2396
I7
s(S'business'
p2397
g10
tp2398
I7
s(S'diminshed'
p2399
g2
tp2400
I7
s(S'basic'
p2401
g2
tp2402
I10
s(S'research'
p2403
g10
tp2404
I7
s(S'charitable'
p2405
g2
tp2406
I8
s(S'innovation'
p2407
g10
tp2408
I7
s(S'excellent'
p2409
g2
tp2410
I9
s(S'monetary'
p2411
g2
tp2412
I9
s(S'very'
p2413
g7
tp2414
I201
s(S'.but'
p2415
g2
tp2416
I7
s(S'outsourcing'
p2417
g10
tp2418
I7
s(S'silo'
p2419
g7
tp2420
I7
s(S'More'
p2421
g160
tp2422
I9
s(S'competitors'
p2423
g55
tp2424
I7
s(S'+year'
p2425
g2
tp2426
I7
s(S'active'
p2427
g2
tp2428
I7
s(S'give'
p2429
g2
tp2430
I7
s(S'moderately'
p2431
g7
tp2432
I7
s(S'unreasonable'
p2433
g2
tp2434
I7
s(S'else'
p2435
g7
tp2436
I9
s(S'electrical'
p2437
g2
tp2438
I7
s(S'b'
p2439
g7
tp2440
I7
s(S'homeless'
p2441
g2
tp2442
I7
s(S'micro-management'
p2443
g2
tp2444
I7
s(S'toyota'
p2445
g10
tp2446
I7
s(S'sour-tasting'
p2447
g2
tp2448
I7
s(S'Fantastic'
p2449
g2
tp2450
I7
s(S'talents'
p2451
g55
tp2452
I7
s(S'acceptable'
p2453
g2
tp2454
I7
s(S'superior'
p2455
g2
tp2456
I9
s(S'tremendous'
p2457
g2
tp2458
I8
s(S'fast'
p2459
g2
tp2460
I8
s(S'first'
p2461
g2
tp2462
I16
s(S'separate'
p2463
g2
tp2464
I7
s(S'not-so-great'
p2465
g2
tp2466
I7
s(S'commonly'
p2467
g7
tp2468
I7
s(S'stores'
p2469
g55
tp2470
I7
s(S'again'
p2471
g7
tp2472
I7
s(S'progress'
p2473
g10
tp2474
I7
s(S'fair'
p2475
g2
tp2476
I11
s(S'flex-work/remote'
p2477
g2
tp2478
I7
s(S'-Long'
p2479
g2
tp2480
I7
s(S'entire'
p2481
g2
tp2482
I14
s(S'-On'
p2483
g2
tp2484
I7
s(S'Looks'
p2485
g55
tp2486
I7
s(S'hands-on'
p2487
g2
tp2488
I7
s(S'as'
p2489
g7
tp2490
I10
s(S'prestigious'
p2491
g2
tp2492
I7
s(S'non-core'
p2493
g2
tp2494
I7
s(S'delays'
p2495
g55
tp2496
I7
s(S'vision'
p2497
g10
tp2498
I7
s(S'staff'
p2499
g10
tp2500
I7
s(S'ethical'
p2501
g2
tp2502
I8
s(S'Tremendous'
p2503
g2
tp2504
I7
s(S'company'
p2505
g10
tp2506
I38
s(S'positions'
p2507
g55
tp2508
I7
s(S'supporting/developing'
p2509
g2
tp2510
I7
s(S'future'
p2511
g2
tp2512
I14
s(S'grow'
p2513
g10
tp2514
I8
s(S'soul-less'
p2515
g2
tp2516
I7
s(S'Under-appreciated'
p2517
g2
tp2518
I7
s(S'Added'
p2519
g2
tp2520
I7
s(S'name'
p2521
g10
tp2522
I7
s(S'arrogant'
p2523
g2
tp2524
I7
s(S'cultural'
p2525
g2
tp2526
I8
s(S'sometime'
p2527
g2
tp2528
I7
s(S'referrals,'
p2529
g2
tp2530
I7
s(S'often'
p2531
g7
tp2532
I16
s(S'controls'
p2533
g55
tp2534
I7
s(S'needs'
p2535
g55
tp2536
I7
s(S'looks'
p2537
g55
tp2538
I7
s(S'instant'
p2539
g2
tp2540
I8
s(S'technologies'
p2541
g55
tp2542
I7
s(S'Benefits'
p2543
g55
tp2544
I7
s(S'prioritized'
p2545
g2
tp2546
I7
s(S'leaders'
p2547
g55
tp2548
I7
s(S'in-house'
p2549
g2
tp2550
I8
s(S'rarely'
p2551
g7
tp2552
I7
s(S'actual'
p2553
g2
tp2554
I13
s(S'ta'
p2555
g10
tp2556
I7
s(S'only'
p2557
g7
tp2558
I25
s(S'self-serve'
p2559
g2
tp2560
I7
s(S'particular'
p2561
g2
tp2562
I7
s(S'industry'
p2563
g10
tp2564
I11
s(S'true'
p2565
g2
tp2566
I12
s(S'integrated'
p2567
g2
tp2568
I7
s(S'Recently'
p2569
g7
tp2570
I7
s(S'process'
p2571
g10
tp2572
I9
s(S'('
p2573
g10
tp2574
I8
s(S'supportive'
p2575
g2
tp2576
I9
s(S'open-door'
p2577
g2
tp2578
I7
s(S'departmentalize'
p2579
g10
tp2580
I7
s(S'hires'
p2581
g55
tp2582
I7
s(S'limited'
p2583
g2
tp2584
I7
s(S'Short'
p2585
g2
tp2586
I7
s(S'human'
p2587
g2
tp2588
I7
s(S'friendly'
p2589
g7
tp2590
I8
s(S'job'
p2591
g10
tp2592
I12
s(S'walls'
p2593
g55
tp2594
I7
s(S'non-retail'
p2595
g2
tp2596
I7
s(S'C*D'
p2597
g2
tp2598
I7
s(S'probably'
p2599
g7
tp2600
I8
s(S'able'
p2601
g2
tp2602
I7
s(S'autocratic'
p2603
g2
tp2604
I7
s.