(dp0
(S'sensible'
p1
S'JJ'
p2
tp3
I7
s(S'rapid'
p4
g2
tp5
I12
s(S'Stable'
p6
g2
tp7
I10
s(S'siginificant'
p8
g2
tp9
I7
s(S'fumbly'
p10
S'RB'
p11
tp12
I7
s(S'ously'
p13
g11
tp14
I7
s(S'up-or-out'
p15
g2
tp16
I7
s(S'usual'
p17
g2
tp18
I12
s(S'internally'
p19
g11
tp20
I10
s(S'-Good'
p21
g2
tp22
I7
s(S'weak'
p23
g2
tp24
I12
s(S'young'
p25
g2
tp26
I32
s(S'level'
p27
S'NN'
p28
tp29
I18
s(S'truthful'
p30
g2
tp31
I7
s(S'merit'
p32
g28
tp33
I9
s(S'eventually'
p34
g11
tp35
I10
s(S'challeng'
p36
g2
tp37
I7
s(S'typically'
p38
g11
tp39
I12
s(S'arduous'
p40
g2
tp41
I7
s(S'wide'
p42
g2
tp43
I31
s(S'already'
p44
g11
tp45
I12
s(S'wind/water/power'
p46
g2
tp47
I7
s(S'unresponsive/'
p48
g2
tp49
I7
s(S'unnecessary'
p50
g2
tp51
I9
s(S'after-work'
p52
g2
tp53
I8
s(S'role'
p54
g28
tp55
I9
s(S'respects'
p56
S'NNS'
p57
tp58
I7
s(S'-Work/Life'
p59
g2
tp60
I9
s(S'Promotions'
p61
g57
tp62
I7
s(S'Individualized'
p63
g2
tp64
I7
s(S'hunky'
p65
g2
tp66
I7
s(S'likely'
p67
g2
tp68
I11
s(S'clerical'
p69
g2
tp70
I7
s(S'longtime'
p71
g2
tp72
I7
s(S'extra'
p73
g28
tp74
I7
s(S'expensive'
p75
g2
tp76
I10
s(S'documentations'
p77
g57
tp78
I7
s(S'poorly'
p79
g11
tp80
I19
s(S'economic'
p81
g2
tp82
I20
s(S'military'
p83
g2
tp84
I9
s(S'manageable'
p85
g2
tp86
I7
s(S'volume'
p87
g28
tp88
I7
s(S'reliable'
p89
g2
tp90
I7
s(S'packaged'
p91
g2
tp92
I7
s(S'physcially'
p93
g11
tp94
I7
s(S'solidly'
p95
g11
tp96
I7
s(S'academic'
p97
g2
tp98
I8
s(S'Ridiculous'
p99
g2
tp100
I8
s(S'Institutional'
p101
g2
tp102
I7
s(S'toxic'
p103
g2
tp104
I7
s(S'apps'
p105
g57
tp106
I7
s(S'easy'
p107
g2
tp108
I19
s(S'officially'
p109
g11
tp110
I7
s(S'certainly'
p111
g11
tp112
I8
s(S'forward'
p113
g11
tp114
I12
s(S'outstanding'
p115
g2
tp116
I13
s(S'preferred'
p117
g2
tp118
I7
s(S'tedious'
p119
g2
tp120
I9
s(S'prospective'
p121
g2
tp122
I7
s(S'suburbs'
p123
g57
tp124
I7
s(S'institutional'
p125
g2
tp126
I7
s(S'cafeteria'
p127
g28
tp128
I7
s(S'intense'
p129
g2
tp130
I9
s(S'technologically'
p131
g11
tp132
I9
s(S'centrally'
p133
g11
tp134
I7
s(S'more'
p135
S'RBR'
p136
tp137
I64
s(S'natural'
p138
g2
tp139
I8
s(S'Fabulous'
p140
g2
tp141
I7
s(S'Passive/Agressive'
p142
g2
tp143
I7
s(S'non-exempt'
p144
g2
tp145
I9
s(S'project'
p146
g28
tp147
I7
s(S'inflexible'
p148
g2
tp149
I7
s(S'practitioner'
p150
g28
tp151
I7
s(S'policy'
p152
g28
tp153
I7
s(S'favours'
p154
g57
tp155
I7
s(S'vacation/year'
p156
g2
tp157
I7
s(S'Company-wide'
p158
g2
tp159
I7
s(S'Outside'
p160
g2
tp161
I7
s(S'kids'
p162
g57
tp163
I10
s(S'red'
p164
g2
tp165
I9
s(S'inflation-based'
p166
g2
tp167
I8
s(S'so'
p168
g11
tp169
I79
s(S'transformation'
p170
g28
tp171
I7
s(S'end-of-month'
p172
g2
tp173
I7
s(S'Super-flexible'
p174
g2
tp175
I7
s(S'%'
p176
g28
tp177
I9
s(S'favorable'
p178
g2
tp179
I7
s(S'life/work'
p180
g2
tp181
I8
s(S'bad/poor'
p182
g2
tp183
I8
s(S'mental'
p184
g2
tp185
I10
s(S'seasonal'
p186
g2
tp187
I9
s(S'ecery'
p188
g11
tp189
I7
s(S'Sabbatical'
p190
g2
tp191
I7
s(S'common'
p192
g2
tp193
I20
s(S'solid'
p194
g2
tp195
I30
s(S'level,'
p196
g28
tp197
I7
s(S'committments'
p198
g57
tp199
I7
s(S'experiences'
p200
g57
tp201
I10
s(S'middle'
p202
g2
tp203
I18
s(S'~6'
p204
g2
tp205
I7
s(S'cross-office'
p206
g2
tp207
I7
s(S'department-centric'
p208
g2
tp209
I7
s(S'dependable'
p210
g2
tp211
I7
s(S'numbingly'
p212
g11
tp213
I8
s(S'racial'
p214
g2
tp215
I7
s(S'quire'
p216
g11
tp217
I7
s(S'sky-high'
p218
g2
tp219
I7
s(S'barely'
p220
g11
tp221
I9
s(S'mission'
p222
g28
tp223
I7
s(S'locations'
p224
g57
tp225
I7
s(S'-Lower'
p226
g2
tp227
I7
s(S'Exceptional'
p228
g2
tp229
I7
s(S'reasonably'
p230
g11
tp231
I9
s(S'type'
p232
g28
tp233
I7
s(S'structure'
p234
g28
tp235
I14
s(S'effectivly'
p236
g11
tp237
I7
s(S'merciful'
p238
g2
tp239
I7
s(S'open'
p240
g2
tp241
I23
s(S'overworked'
p242
g2
tp243
I8
s(S'minimum'
p244
g2
tp245
I20
s(S'third'
p246
g2
tp247
I11
s(S'enthusiastic'
p248
g2
tp249
I10
s(S'Overly'
p250
g11
tp251
I8
s(S'decidedly'
p252
g11
tp253
I7
s(S'cutting-edge'
p254
g2
tp255
I10
s(S'local'
p256
g2
tp257
I40
s(S'hard'
p258
g2
tp259
I37
s(S'minor'
p260
g2
tp261
I8
s(S'past'
p262
g2
tp263
I16
s(S'educational'
p264
g2
tp265
I16
s(S'sensitive'
p266
g2
tp267
I9
s(S')'
p268
g28
tp269
I20
s(S'work'
p270
g28
tp271
I38
s(S'quick-turnaround'
p272
g2
tp273
I7
s(S'-Amazing'
p274
g2
tp275
I7
s(S'appeal'
p276
g28
tp277
I7
s(S'value'
p278
g28
tp279
I8
s(S'visible'
p280
g2
tp281
I10
s(S'Ineffective'
p282
g2
tp283
I8
s(S'transparency'
p284
g28
tp285
I8
s(S'Increased'
p286
g2
tp287
I7
s(S'fact'
p288
g28
tp289
I7
s(S'equal'
p290
g2
tp291
I11
s(S'own'
p292
g2
tp293
I104
s(S'services'
p294
g57
tp295
I12
s(S'replaceable'
p296
g2
tp297
I7
s(S'audit'
p298
g28
tp299
I8
s(S'ineffective'
p300
g2
tp301
I7
s(S'incredible'
p302
g2
tp303
I18
s(S'skill-set'
p304
g2
tp305
I7
s(S'try'
p306
g28
tp307
I7
s(S'Truly'
p308
g11
tp309
I9
s(S'reviews'
p310
g28
tp311
I7
s(S'informal'
p312
g2
tp313
I10
s(S'vacant'
p314
g2
tp315
I7
s(S'Friendly'
p316
g11
tp317
I7
s(S'issues'
p318
g57
tp319
I15
s(S'geographically'
p320
g11
tp321
I7
s(S'TIght/small'
p322
g2
tp323
I8
s(S'subtly'
p324
g11
tp325
I7
s(S'opportunties'
p326
g57
tp327
I7
s(S'emotional'
p328
g2
tp329
I8
s(S'intimidation'
p330
g28
tp331
I7
s(S'relationship'
p332
g28
tp333
I7
s(S'phenomenal'
p334
g2
tp335
I7
s(S'company-wide'
p336
g2
tp337
I7
s(S'unusual'
p338
g2
tp339
I7
s(S'Dynamic'
p340
g2
tp341
I8
s(S'hollow'
p342
g2
tp343
I7
s(S'book'
p344
g28
tp345
I7
s(S'historical'
p346
g2
tp347
I7
s(S'schedules'
p348
g57
tp349
I10
s(S'all-too'
p350
g2
tp351
I8
s(S'respect'
p352
g28
tp353
I7
s(S'industry-lead'
p354
g2
tp355
I7
s(S'Often'
p356
g11
tp357
I8
s(S'overburdened'
p358
g2
tp359
I7
s(S'optical'
p360
g2
tp361
I7
s(S'wold'
p362
g28
tp363
I7
s(S'known'
p364
g2
tp365
I7
s(S'guilt-free'
p366
g2
tp367
I7
s(S'Self-imposed'
p368
g2
tp369
I7
s(S'unambitious'
p370
g2
tp371
I7
s(S'advanced-tech'
p372
g2
tp373
I7
s(S'former'
p374
g2
tp375
I12
s(S'glamorous'
p376
g2
tp377
I7
s(S'time/effort'
p378
g2
tp379
I7
s(S'overwhelming/frustrating'
p380
g2
tp381
I7
s(S'goods'
p382
g57
tp383
I7
s(S'Invaluable'
p384
g2
tp385
I7
s(S'Overall'
p386
g2
tp387
I22
s(S'kaizen'
p388
g28
tp389
I7
s(S'rigid'
p390
g2
tp391
I8
s(S'reputation'
p392
g28
tp393
I8
s(S'deeply'
p394
g11
tp395
I8
s(S'solely'
p396
g11
tp397
I8
s(S'tuition'
p398
g28
tp399
I7
s(S'Partner/MD'
p400
g2
tp401
I9
s(S'oil/energy'
p402
g2
tp403
I7
s(S'Career'
p404
g28
tp405
I7
s(S'exceptional'
p406
g2
tp407
I14
s(S'professionally'
p408
g11
tp409
I9
s(S'sides'
p410
g57
tp411
I7
s(S'group'
p412
g28
tp413
I14
s(S'full'
p414
g2
tp415
I41
s(S'unqualified'
p416
g2
tp417
I7
s(S'Typically'
p418
g11
tp419
I7
s(S'silo-ed'
p420
g2
tp421
I7
s(S'genuinely'
p422
g11
tp423
I11
s(S'financially'
p424
g11
tp425
I8
s(S'budgetary'
p426
g2
tp427
I7
s(S'-Very'
p428
g2
tp429
I9
s(S'here'
p430
g11
tp431
I16
s(S'pony'
p432
g28
tp433
I7
s(S'fiscal'
p434
g2
tp435
I7
s(S'undesirable'
p436
g2
tp437
I7
s(S'optic'
p438
g2
tp439
I7
s(S'weeks'
p440
g57
tp441
I7
s(S'+Strong'
p442
g2
tp443
I7
s(S'directors'
p444
g57
tp445
I9
s(S'officer'
p446
g28
tp447
I7
s(S'sub-par'
p448
g2
tp449
I7
s(S'Direct'
p450
g2
tp451
I7
s(S'namely'
p452
g11
tp453
I7
s(S'basis'
p454
g28
tp455
I7
s(S'Rigorous'
p456
g2
tp457
I9
s(S'bottom'
p458
g2
tp459
I8
s(S'Professional'
p460
g2
tp461
I13
s(S'horrible'
p462
g2
tp463
I14
s(S'logistics'
p464
g57
tp465
I7
s(S'practices'
p466
g57
tp467
I9
s(S'-Ignorant/impatient/rude'
p468
g2
tp469
I8
s(S'rich'
p470
g2
tp471
I11
s(S'almost'
p472
g11
tp473
I14
s(S'c-suite'
p474
g2
tp475
I9
s(S'overall'
p476
g28
tp477
I7
s(S'second'
p478
g2
tp479
I14
s(S'high-ranking'
p480
g2
tp481
I7
s(S'uncapped'
p482
g2
tp483
I7
s(S'impressive'
p484
g2
tp485
I9
s(S'opposite'
p486
g2
tp487
I7
s(S'qualitative'
p488
g2
tp489
I7
s(S'chal'
p490
g2
tp491
I7
s(S'due'
p492
g2
tp493
I9
s(S'WORK-LIFE'
p494
g2
tp495
I7
s(S'beneffit'
p496
g28
tp497
I7
s(S'Managers/Senior'
p498
g2
tp499
I7
s(S'chiefs'
p500
g57
tp501
I7
s(S'target'
p502
g28
tp503
I7
s(S'Kids'
p504
g57
tp505
I7
s(S'fiercely'
p506
g11
tp507
I7
s(S'Incomparable'
p508
g2
tp509
I7
s(S'Variable'
p510
g2
tp511
I7
s(S'innovative'
p512
g2
tp513
I29
s(S'possible'
p514
g2
tp515
I12
s(S'..the'
p516
g2
tp517
I7
s(S'permanents'
p518
g57
tp519
I7
s(S'resume'
p520
g28
tp521
I13
s(S'cubical'
p522
g2
tp523
I7
s(S'prolly'
p524
g11
tp525
I7
s(S'bio-tech'
p526
g2
tp527
I7
s(S'various'
p528
g2
tp529
I52
s(S'commission'
p530
g28
tp531
I8
s(S'Distinct'
p532
g2
tp533
I7
s(S'co-operative'
p534
g2
tp535
I7
s(S'unbelievably'
p536
g11
tp537
I7
s(S'fields'
p538
g57
tp539
I7
s(S'well-run'
p540
g2
tp541
I7
s(S"'re"
p542
g2
tp543
I7
s(S'blood'
p544
g28
tp545
I7
s(S'Hypercritical'
p546
g2
tp547
I7
s(S'funny'
p548
g2
tp549
I8
s(S'paltry'
p550
g28
tp551
I7
s(S'submission'
p552
g28
tp553
I8
s(S'd'
p554
g28
tp555
I7
s(S'federal'
p556
g2
tp557
I8
s(S'friends'
p558
g57
tp559
I8
s(S'undergraduate'
p560
g2
tp561
I8
s(S'week'
p562
g28
tp563
I10
s(S'lasting'
p564
g2
tp565
I8
s(S'Little'
p566
g2
tp567
I7
s(S'desk'
p568
g28
tp569
I7
s(S'careful'
p570
g2
tp571
I7
s(S'competitiveness'
p572
g28
tp573
I8
s(S'experienced'
p574
g2
tp575
I8
s(S'Reasonable'
p576
g2
tp577
I10
s(S'bland'
p578
g28
tp579
I7
s(S'stable'
p580
g2
tp581
I23
s(S'decent'
p582
g2
tp583
I12
s(S'administrative'
p584
g2
tp585
I14
s(S'things'
p586
g57
tp587
I11
s(S'reputational'
p588
g2
tp589
I7
s(S'reality'
p590
g28
tp591
I7
s(S'appreciated,'
p592
g2
tp593
I7
s(S"'corporate"
p594
g2
tp595
I7
s(S'team-based'
p596
g2
tp597
I7
s(S'valuable'
p598
g2
tp599
I22
s(S'manual'
p600
g2
tp601
I8
s(S'market'
p602
g28
tp603
I14
s(S'detailed'
p604
g2
tp605
I7
s(S'sad'
p606
g2
tp607
I7
s(S'so-called'
p608
g2
tp609
I7
s(S'delivery'
p610
g28
tp611
I7
s(S'Many'
p612
g2
tp613
I60
s(S'-Poor'
p614
g2
tp615
I10
s(S'Work/Life'
p616
g2
tp617
I9
s(S'5th'
p618
g2
tp619
I8
s(S"'experienced"
p620
g2
tp621
I7
s(S'widely'
p622
g11
tp623
I8
s(S'virtually'
p624
g11
tp625
I8
s(S'la'
p626
g28
tp627
I7
s(S'challenges'
p628
g57
tp629
I10
s(S'high-tech'
p630
g2
tp631
I7
s(S'cohesive'
p632
g2
tp633
I7
s(S'recreational'
p634
g2
tp635
I8
s(S'caustic'
p636
g2
tp637
I8
s(S'gas'
p638
g28
tp639
I9
s(S'typical'
p640
g2
tp641
I15
s(S'disposable'
p642
g2
tp643
I8
s(S'easy-going'
p644
g2
tp645
I7
s(S'slow'
p646
g2
tp647
I37
s(S'less'
p648
g136
tp649
I13
s(S'Hands-on'
p650
g2
tp651
I7
s(S'global'
p652
g2
tp653
I84
s(S'minimal'
p654
g2
tp655
I16
s(S'yesterday'
p656
g28
tp657
I7
s(S'philosophy'
p658
g28
tp659
I7
s(S'*Great'
p660
g2
tp661
I8
s(S'business/department'
p662
g2
tp663
I8
s(S'coworkers'
p664
g57
tp665
I7
s(S'metric'
p666
g2
tp667
I7
s(S'work-personal'
p668
g2
tp669
I7
s(S'workload'
p670
g28
tp671
I7
s(S'comps'
p672
g57
tp673
I7
s(S'firms'
p674
g57
tp675
I14
s(S'mentality'
p676
g28
tp677
I8
s(S'happy'
p678
g2
tp679
I11
s(S'-Big'
p680
g2
tp681
I8
s(S'upper'
p682
g2
tp683
I45
s(S'politically'
p684
g11
tp685
I10
s(S'Intelectually'
p686
g11
tp687
I7
s(S'ok'
p688
g28
tp689
I8
s(S'need-to-know'
p690
g2
tp691
I7
s(S'-Arrogant'
p692
g2
tp693
I7
s(S'Large'
p694
g2
tp695
I54
s(S'necessary'
p696
g2
tp697
I9
s(S'space'
p698
g28
tp699
I7
s(S'redundant'
p700
g2
tp701
I7
s(S'intellectually'
p702
g11
tp703
I11
s(S'day-to-day'
p704
g2
tp705
I9
s(S'rite'
p706
g2
tp707
I7
s(S"'core"
p708
g2
tp709
I7
s(S'self-serving'
p710
g2
tp711
I7
s(S'unproductive'
p712
g2
tp713
I8
s(S'problems'
p714
g57
tp715
I8
s(S'overall'
p716
g2
tp717
I34
s(S'differe'
p718
g2
tp719
I7
s(S'work-life'
p720
g2
tp721
I50
s(S'names'
p722
g57
tp723
I7
s(S'conditions'
p724
g57
tp725
I7
s(S'constantly'
p726
g11
tp727
I39
s(S'e-commerce'
p728
g2
tp729
I7
s(S'other'
p730
g2
tp731
I308
s(S'Outstanding'
p732
g2
tp733
I15
s(S'away'
p734
g11
tp735
I7
s(S'Daily'
p736
g11
tp737
I8
s(S'scary'
p738
g2
tp739
I7
s(S'right'
p740
g11
tp741
I7
s(S'basically'
p742
g11
tp743
I14
s(S'lifelong'
p744
g2
tp745
I9
s(S'expectations'
p746
g57
tp747
I12
s(S'quit'
p748
g28
tp749
I7
s(S'doing'
p750
g28
tp751
I7
s(S'lateral'
p752
g2
tp753
I18
s(S'insecurity'
p754
g28
tp755
I7
s(S'with..rare'
p756
g2
tp757
I7
s(S're-org'
p758
g2
tp759
I7
s(S'myopically'
p760
g11
tp761
I7
s(S'loyal'
p762
g2
tp763
I9
s(S'resource'
p764
g28
tp765
I8
s(S'correctly'
p766
g11
tp767
I8
s(S'utilization'
p768
g28
tp769
I9
s(S'increadible'
p770
g2
tp771
I7
s(S'mid-lower'
p772
g2
tp773
I7
s(S'fast-track'
p774
g2
tp775
I7
s(S'complain'
p776
g28
tp777
I7
s(S'available'
p778
g2
tp779
I10
s(S'thoughtful'
p780
g2
tp781
I7
s(S'support'
p782
g28
tp783
I10
s(S'Broad'
p784
g2
tp785
I8
s(S'Administrative'
p786
g2
tp787
I7
s(S'emphasis'
p788
g28
tp789
I7
s(S'vendors'
p790
g57
tp791
I7
s(S'regulatory'
p792
g2
tp793
I7
s(S'recommendation'
p794
g28
tp795
I7
s(S'Actually'
p796
g11
tp797
I8
s(S'tech'
p798
g2
tp799
I7
s(S'worse'
p800
g28
tp801
I7
s(S'excel'
p802
g28
tp803
I8
s(S'-Horrible'
p804
g2
tp805
I7
s(S'perfect'
p806
g28
tp807
I8
s(S'wonderful'
p808
g2
tp809
I27
s(S'especially'
p810
g11
tp811
I23
s(S'mysterious'
p812
g2
tp813
I7
s(S'national'
p814
g2
tp815
I13
s(S'close'
p816
g2
tp817
I12
s(S'Conservative'
p818
g2
tp819
I11
s(S'assistance'
p820
g28
tp821
I7
s(S'appreciation'
p822
g28
tp823
I8
s(S'tx'
p824
g28
tp825
I7
s(S'share'
p826
g28
tp827
I7
s(S'delivery,'
p828
g28
tp829
I7
s(S'late'
p830
g2
tp831
I20
s(S'uncompetitive'
p832
g2
tp833
I7
s(S'co-op'
p834
g28
tp835
I7
s(S'elsewhere'
p836
g11
tp837
I8
s(S'-VERY'
p838
g2
tp839
I7
s(S'total'
p840
g2
tp841
I13
s(S'intellegent'
p842
g2
tp843
I7
s(S'mid-level'
p844
g2
tp845
I9
s(S'men'
p846
g57
tp847
I7
s(S'readily'
p848
g11
tp849
I8
s(S'vague'
p850
g2
tp851
I8
s(S'rates'
p852
g57
tp853
I7
s(S'Reliable'
p854
g2
tp855
I7
s(S'door'
p856
g28
tp857
I8
s(S'just-in-time'
p858
g2
tp859
I7
s(S'Interesting'
p860
g2
tp861
I9
s(S'Sometimes'
p862
g11
tp863
I11
s(S'-Depressing'
p864
g2
tp865
I7
s(S'days/year'
p866
g2
tp867
I7
s(S'throat'
p868
g2
tp869
I9
s(S'suck-up'
p870
g2
tp871
I7
s(S'incredibly'
p872
g11
tp873
I12
s(S'stores'
p874
g57
tp875
I8
s(S'protection'
p876
g28
tp877
I7
s(S'either'
p878
g11
tp879
I7
s(S'cases'
p880
g57
tp881
I7
s(S'competition'
p882
g28
tp883
I9
s(S'competive'
p884
g28
tp885
I7
s(S'Globally'
p886
g11
tp887
I7
s(S'LITTLE'
p888
g2
tp889
I7
s(S'critical'
p890
g2
tp891
I15
s(S'ergonomic'
p892
g2
tp893
I8
s(S'*Better'
p894
g2
tp895
I7
s(S'selfishly'
p896
g11
tp897
I7
s(S'impressions'
p898
g57
tp899
I7
s(S'update'
p900
g2
tp901
I8
s(S'the'
p902
g2
tp903
I7
s(S'automotive'
p904
g2
tp905
I15
s(S'advanced'
p906
g2
tp907
I9
s(S'difficult'
p908
g2
tp909
I22
s(S'Vertical'
p910
g2
tp911
I11
s(S'overpaid/overfed'
p912
g2
tp913
I7
s(S'simply'
p914
g11
tp915
I9
s(S'disciplines'
p916
g57
tp917
I7
s(S'trite'
p918
g2
tp919
I7
s(S'negatively'
p920
g11
tp921
I7
s(S'Recent'
p922
g2
tp923
I10
s(S'transistion'
p924
g28
tp925
I7
s(S'last'
p926
g2
tp927
I23
s(S'supportive/organized'
p928
g2
tp929
I7
s(S'ship'
p930
g28
tp931
I11
s(S'ONLY'
p932
g11
tp933
I7
s(S'Discounts'
p934
g57
tp935
I7
s(S'Pretty'
p936
g11
tp937
I12
s(S'importnat'
p938
g2
tp939
I7
s(S'absolutely'
p940
g11
tp941
I17
s(S'white'
p942
g2
tp943
I11
s(S'normally'
p944
g11
tp945
I7
s(S'deadline'
p946
g28
tp947
I7
s(S'Northeast'
p948
g28
tp949
I7
s(S'people'
p950
g57
tp951
I60
s(S'effo'
p952
g28
tp953
I7
s(S'only'
p954
g2
tp955
I35
s(S'new'
p956
g2
tp957
I222
s(S'periods'
p958
g57
tp959
I8
s(S'drawbacks'
p960
g57
tp961
I7
s(S'Prestigious'
p962
g2
tp963
I7
s(S'Long-tenured'
p964
g2
tp965
I7
s(S'yearly'
p966
g2
tp967
I12
s(S'monoxides'
p968
g57
tp969
I7
s(S'evolution'
p970
g28
tp971
I7
s(S'Hours'
p972
g57
tp973
I7
s(S'firm-wide'
p974
g2
tp975
I9
s(S'sites'
p976
g57
tp977
I7
s(S'product'
p978
g28
tp979
I8
s(S'manipulative'
p980
g2
tp981
I7
s(S'Maslovian'
p982
g2
tp983
I7
s(S'staying'
p984
g28
tp985
I7
s(S'right'
p986
g2
tp987
I7
s(S'measures'
p988
g57
tp989
I7
s(S'regional'
p990
g2
tp991
I8
s(S'smart-phone'
p992
g2
tp993
I7
s(S'popular'
p994
g2
tp995
I7
s(S'ever-increasing'
p996
g2
tp997
I7
s(S'Clear'
p998
g2
tp999
I9
s(S'change'
p1000
g28
tp1001
I10
s(S'developmental'
p1002
g2
tp1003
I8
s(S'teaches'
p1004
g57
tp1005
I7
s(S'joiner'
p1006
g28
tp1007
I7
s(S'stone'
p1008
g28
tp1009
I9
s(S'sometimes'
p1010
g11
tp1011
I55
s(S'Narrowly'
p1012
g11
tp1013
I7
s(S'abuse'
p1014
g28
tp1015
I7
s(S'dark'
p1016
g2
tp1017
I7
s(S'partly'
p1018
g11
tp1019
I9
s(S'*Extremely'
p1020
g11
tp1021
I7
s(S'Incentive'
p1022
g2
tp1023
I8
s(S'impossible'
p1024
g2
tp1025
I9
s(S'impersonal'
p1026
g2
tp1027
I8
s(S'events'
p1028
g57
tp1029
I10
s(S'Managers'
p1030
g57
tp1031
I7
s(S'sustainability'
p1032
g28
tp1033
I7
s(S'overwork/overstressed'
p1034
g2
tp1035
I7
s(S'current'
p1036
g2
tp1037
I38
s(S'ending'
p1038
g28
tp1039
I8
s(S'supervisiors'
p1040
g57
tp1041
I7
s(S'city'
p1042
g28
tp1043
I7
s(S'-Engaged'
p1044
g2
tp1045
I7
s(S'no-call'
p1046
g2
tp1047
I7
s(S'work/ife'
p1048
g2
tp1049
I7
s(S'desirable'
p1050
g2
tp1051
I10
s(S'Only'
p1052
g11
tp1053
I7
s(S'arrangements'
p1054
g57
tp1055
I7
s(S'collaboration'
p1056
g28
tp1057
I7
s(S'unenjoyable'
p1058
g2
tp1059
I7
s(S'low-skilled'
p1060
g2
tp1061
I7
s(S'egotistical'
p1062
g2
tp1063
I7
s(S'comparable'
p1064
g2
tp1065
I10
s(S'few'
p1066
g2
tp1067
I94
s(S'abysmal'
p1068
g2
tp1069
I7
s(S'policies'
p1070
g57
tp1071
I7
s(S'frequesntly'
p1072
g11
tp1073
I7
s(S'bp'
p1074
g28
tp1075
I7
s(S'blatantly'
p1076
g11
tp1077
I9
s(S'monthly'
p1078
g2
tp1079
I7
s(S'sabotage-prone'
p1080
g2
tp1081
I7
s(S'slightly'
p1082
g11
tp1083
I7
s(S'culture/workplace'
p1084
g28
tp1085
I7
s(S'choice'
p1086
g28
tp1087
I7
s(S'skilled'
p1088
g2
tp1089
I8
s(S'upper-middle'
p1090
g2
tp1091
I7
s(S'mirrors'
p1092
g57
tp1093
I7
s(S'individuals'
p1094
g57
tp1095
I7
s(S'dilettantes'
p1096
g57
tp1097
I7
s(S'negative'
p1098
g2
tp1099
I29
s(S'salary'
p1100
g2
tp1101
I8
s(S'collegiate'
p1102
g2
tp1103
I7
s(S'mundane'
p1104
g2
tp1105
I8
s(S'end'
p1106
g28
tp1107
I8
s(S'Inconsistencies'
p1108
g57
tp1109
I7
s(S'Initial'
p1110
g2
tp1111
I7
s(S'well-known'
p1112
g2
tp1113
I7
s(S'much'
p1114
g2
tp1115
I126
s(S'fire-drill'
p1116
g2
tp1117
I7
s(S'squarely'
p1118
g11
tp1119
I8
s(S'favorite'
p1120
g2
tp1121
I10
s(S'Supportive'
p1122
g2
tp1123
I8
s(S'asap'
p1124
g28
tp1125
I7
s(S'challenge'
p1126
g28
tp1127
I10
s(S'successfully'
p1128
g11
tp1129
I7
s(S'accenture'
p1130
g28
tp1131
I7
s(S'ideas'
p1132
g57
tp1133
I9
s(S'harsh'
p1134
g2
tp1135
I8
s(S'British'
p1136
g2
tp1137
I8
s(S'entrepreneurial'
p1138
g2
tp1139
I12
s(S'predictive'
p1140
g2
tp1141
I8
s(S'processes'
p1142
g57
tp1143
I11
s(S'boa'
p1144
g28
tp1145
I8
s(S'festivals'
p1146
g57
tp1147
I7
s(S'impactful'
p1148
g2
tp1149
I8
s(S'impression'
p1150
g28
tp1151
I8
s(S'larg'
p1152
g28
tp1153
I7
s(S'following'
p1154
g2
tp1155
I7
s(S'strengths'
p1156
g57
tp1157
I7
s(S'hopeful'
p1158
g2
tp1159
I8
s(S'culture'
p1160
g28
tp1161
I23
s(S'new-hire'
p1162
g2
tp1163
I7
s(S'review'
p1164
g28
tp1165
I11
s(S'movemoent'
p1166
g2
tp1167
I7
s(S'Bad'
p1168
g2
tp1169
I17
s(S'questionaire'
p1170
g28
tp1171
I7
s(S'Privileged'
p1172
g2
tp1173
I7
s(S'intellectual'
p1174
g2
tp1175
I14
s(S'competence'
p1176
g28
tp1177
I9
s(S'laid'
p1178
g2
tp1179
I7
s(S'pace'
p1180
g28
tp1181
I8
s(S'salary'
p1182
g28
tp1183
I15
s(S'positive'
p1184
g2
tp1185
I36
s(S'geoscientist'
p1186
g28
tp1187
I7
s(S'rate'
p1188
g28
tp1189
I9
s(S'soon-to-be-completed'
p1190
g2
tp1191
I7
s(S'postal'
p1192
g2
tp1193
I7
s(S'not'
p1194
g11
tp1195
I723
s(S'supervisors'
p1196
g57
tp1197
I8
s(S'Part-time'
p1198
g2
tp1199
I8
s(S'-Much'
p1200
g2
tp1201
I7
s(S'comment'
p1202
g28
tp1203
I7
s(S'temporary'
p1204
g2
tp1205
I8
s(S'insignificant'
p1206
g2
tp1207
I7
s(S'procedural-strict'
p1208
g2
tp1209
I7
s(S'relationships'
p1210
g57
tp1211
I7
s(S'Questionable'
p1212
g2
tp1213
I7
s(S'chase'
p1214
g28
tp1215
I7
s(S'unclear'
p1216
g2
tp1217
I8
s(S'-Exciting'
p1218
g2
tp1219
I7
s(S'myopic'
p1220
g2
tp1221
I7
s(S'unstoppable'
p1222
g2
tp1223
I7
s(S'-For'
p1224
g28
tp1225
I8
s(S'central'
p1226
g2
tp1227
I9
s(S'spectacular'
p1228
g2
tp1229
I7
s(S'terribly'
p1230
g11
tp1231
I8
s(S'money'
p1232
g28
tp1233
I10
s(S'presentation/public'
p1234
g2
tp1235
I7
s(S'starter'
p1236
g28
tp1237
I7
s(S'stuff'
p1238
g28
tp1239
I9
s(S'Billable'
p1240
g2
tp1241
I9
s(S'rewarding'
p1242
g28
tp1243
I7
s(S'high.a'
p1244
g2
tp1245
I7
s(S'mid-career'
p1246
g2
tp1247
I7
s(S'atmosphere.Good'
p1248
g2
tp1249
I7
s(S'idealistic'
p1250
g2
tp1251
I7
s(S'Managers/Directors/Partners'
p1252
g57
tp1253
I7
s(S'related'
p1254
g2
tp1255
I8
s(S'add'
p1256
g2
tp1257
I7
s(S'newly'
p1258
g11
tp1259
I7
s(S'intelligent'
p1260
g2
tp1261
I10
s(S'manager'
p1262
g28
tp1263
I15
s(S'world-class'
p1264
g28
tp1265
I7
s(S'actively'
p1266
g11
tp1267
I9
s(S'strategic'
p1268
g2
tp1269
I27
s(S'term'
p1270
g28
tp1271
I8
s(S'banks'
p1272
g57
tp1273
I8
s(S'inadequate'
p1274
g2
tp1275
I8
s(S'sorts'
p1276
g57
tp1277
I7
s(S'Small'
p1278
g2
tp1279
I14
s(S'operational'
p1280
g2
tp1281
I12
s(S'bad'
p1282
g2
tp1283
I109
s(S'Unpredictable'
p1284
g2
tp1285
I7
s(S'qui'
p1286
g28
tp1287
I7
s(S'floor'
p1288
g28
tp1289
I7
s(S'mediocre'
p1290
g2
tp1291
I9
s(S'secondary'
p1292
g2
tp1293
I9
s(S'politics'
p1294
g57
tp1295
I23
s(S'-Really'
p1296
g11
tp1297
I7
s(S'irrational'
p1298
g2
tp1299
I7
s(S'old-business'
p1300
g2
tp1301
I8
s(S'equitable'
p1302
g2
tp1303
I7
s(S'Work-life'
p1304
g2
tp1305
I9
s(S'balance'
p1306
g28
tp1307
I38
s(S'efficient'
p1308
g2
tp1309
I7
s(S'religious'
p1310
g2
tp1311
I8
s(S'curve'
p1312
g28
tp1313
I8
s(S'hostile'
p1314
g2
tp1315
I7
s(S'Experience'
p1316
g28
tp1317
I9
s(S'technology'
p1318
g28
tp1319
I10
s(S'competitive'
p1320
g2
tp1321
I59
s(S'balance,'
p1322
g28
tp1323
I7
s(S'horizontally'
p1324
g11
tp1325
I7
s(S'rose-colored'
p1326
g2
tp1327
I7
s(S'significant'
p1328
g2
tp1329
I34
s(S'Massive'
p1330
g2
tp1331
I7
s(S'nicely'
p1332
g11
tp1333
I7
s(S'unduly'
p1334
g11
tp1335
I7
s(S'bureaucracy'
p1336
g28
tp1337
I12
s(S'action'
p1338
g28
tp1339
I8
s(S'dead'
p1340
g2
tp1341
I13
s(S'geniuses'
p1342
g57
tp1343
I7
s(S'forever'
p1344
g28
tp1345
I7
s(S'Jan-Mar'
p1346
g2
tp1347
I7
s(S'monstrous'
p1348
g2
tp1349
I7
s(S'ranks'
p1350
g57
tp1351
I8
s(S'buddy'
p1352
g2
tp1353
I8
s(S'rigorously'
p1354
g11
tp1355
I7
s(S'frequently'
p1356
g11
tp1357
I10
s(S'only'
p1358
g11
tp1359
I60
s(S'part-time'
p1360
g2
tp1361
I11
s(S'Huge'
p1362
g2
tp1363
I17
s(S'above'
p1364
g11
tp1365
I9
s(S'perhaps'
p1366
g11
tp1367
I7
s(S'steep'
p1368
g2
tp1369
I10
s(S'tremendously'
p1370
g11
tp1371
I7
s(S'results'
p1372
g57
tp1373
I8
s(S'Dead-end'
p1374
g2
tp1375
I8
s(S'Tough'
p1376
g2
tp1377
I7
s(S'operations'
p1378
g57
tp1379
I9
s(S'B+D'
p1380
g2
tp1381
I7
s(S'bright'
p1382
g2
tp1383
I19
s(S'reorganizations'
p1384
g57
tp1385
I7
s(S'attractive'
p1386
g2
tp1387
I10
s(S'relatively'
p1388
g11
tp1389
I20
s(S'a/c'
p1390
g2
tp1391
I7
s(S'interpersonal'
p1392
g2
tp1393
I7
s(S'helpful'
p1394
g2
tp1395
I13
s(S'forced'
p1396
g2
tp1397
I7
s(S'beurocratic'
p1398
g2
tp1399
I7
s(S'profesional'
p1400
g2
tp1401
I7
s(S'consciously'
p1402
g11
tp1403
I7
s(S'flat'
p1404
g2
tp1405
I9
s(S'good'
p1406
g2
tp1407
I781
s(S'very'
p1408
g2
tp1409
I11
s(S'roller-coaster'
p1410
g2
tp1411
I7
s(S'Poorly'
p1412
g11
tp1413
I9
s(S'Public'
p1414
g2
tp1415
I8
s(S'drain'
p1416
g28
tp1417
I7
s(S'season'
p1418
g28
tp1419
I11
s(S'seriously'
p1420
g11
tp1421
I9
s(S'regardless'
p1422
g28
tp1423
I7
s(S'knowledge'
p1424
g28
tp1425
I10
s(S'computers'
p1426
g57
tp1427
I7
s(S'theoretical'
p1428
g2
tp1429
I7
s(S'jobs'
p1430
g57
tp1431
I11
s(S'engagements'
p1432
g57
tp1433
I7
s(S'-Fantastic'
p1434
g2
tp1435
I7
s(S'overtime'
p1436
g28
tp1437
I9
s(S'Cultish'
p1438
g2
tp1439
I7
s(S'monthly'
p1440
g11
tp1441
I7
s(S'overseas'
p1442
g11
tp1443
I7
s(S'meritorious'
p1444
g2
tp1445
I7
s(S'transparent'
p1446
g2
tp1447
I7
s(S'vertical'
p1448
g2
tp1449
I12
s(S'team'
p1450
g28
tp1451
I12
s(S'dental'
p1452
g2
tp1453
I7
s(S'royal'
p1454
g2
tp1455
I8
s(S'big-company'
p1456
g2
tp1457
I7
s(S'phase-gated'
p1458
g2
tp1459
I7
s(S'site'
p1460
g2
tp1461
I9
s(S'even'
p1462
g11
tp1463
I42
s(S'diversity'
p1464
g28
tp1465
I7
s(S'animal'
p1466
g2
tp1467
I7
s(S'calls'
p1468
g57
tp1469
I7
s(S'effective'
p1470
g2
tp1471
I12
s(S'knowledgeable'
p1472
g2
tp1473
I12
s(S'perpetual'
p1474
g2
tp1475
I8
s(S'incremental'
p1476
g2
tp1477
I8
s(S'organizational'
p1478
g2
tp1479
I18
s(S'clear'
p1480
g2
tp1481
I31
s(S'shift'
p1482
g28
tp1483
I10
s(S'signifcant'
p1484
g2
tp1485
I7
s(S'promotion'
p1486
g28
tp1487
I11
s(S'matter'
p1488
g28
tp1489
I7
s(S'billable'
p1490
g2
tp1491
I15
s(S'globe'
p1492
g28
tp1493
I7
s(S'oil/gas'
p1494
g2
tp1495
I7
s(S'extremely'
p1496
g11
tp1497
I57
s(S'!'
p1498
g28
tp1499
I37
s(S'Technically'
p1500
g11
tp1501
I8
s(S'respective'
p1502
g2
tp1503
I7
s(S'programs'
p1504
g57
tp1505
I12
s(S'bit'
p1506
g28
tp1507
I12
s(S'earth'
p1508
g2
tp1509
I7
s(S'promotional'
p1510
g2
tp1511
I17
s(S'modest'
p1512
g2
tp1513
I8
s(S'ambiguous'
p1514
g2
tp1515
I8
s(S'nearly'
p1516
g11
tp1517
I8
s(S'receive'
p1518
g2
tp1519
I7
s(S'orthodox'
p1520
g28
tp1521
I7
s(S'extra-curricular'
p1522
g2
tp1523
I8
s(S'outdated'
p1524
g2
tp1525
I7
s(S'outside'
p1526
g2
tp1527
I11
s(S'prosper'
p1528
g28
tp1529
I7
s(S'tenuous'
p1530
g2
tp1531
I7
s(S'simple'
p1532
g2
tp1533
I15
s(S'expansion'
p1534
g28
tp1535
I7
s(S'mentioning'
p1536
g28
tp1537
I7
s(S'-Flexible'
p1538
g2
tp1539
I8
s(S'tape'
p1540
g28
tp1541
I7
s(S'straightforward'
p1542
g2
tp1543
I7
s(S'operations/sourcing'
p1544
g2
tp1545
I7
s(S'companies'
p1546
g57
tp1547
I14
s(S'Adversarial'
p1548
g2
tp1549
I7
s(S'standard'
p1550
g2
tp1551
I15
s(S'differentiators'
p1552
g57
tp1553
I7
s(S'traditional'
p1554
g2
tp1555
I9
s(S'-Nice'
p1556
g2
tp1557
I7
s(S'receptive'
p1558
g2
tp1559
I7
s(S'notable'
p1560
g2
tp1561
I7
s(S'crime-filled'
p1562
g2
tp1563
I8
s(S'strongly'
p1564
g11
tp1565
I9
s(S'managers'
p1566
g57
tp1567
I12
s(S'slow-moving'
p1568
g2
tp1569
I7
s(S'sears'
p1570
g57
tp1571
I8
s(S're-tool'
p1572
g2
tp1573
I7
s(S'broad'
p1574
g2
tp1575
I13
s(S'executive'
p1576
g2
tp1577
I17
s(S'Socially'
p1578
g11
tp1579
I10
s(S'newly-minted'
p1580
g2
tp1581
I7
s(S'intern'
p1582
g28
tp1583
I11
s(S'-Fairly'
p1584
g11
tp1585
I7
s(S'departments'
p1586
g57
tp1587
I12
s(S'finished'
p1588
g2
tp1589
I7
s(S'raise'
p1590
g28
tp1591
I7
s(S'ful'
p1592
g2
tp1593
I8
s(S'diff'
p1594
g28
tp1595
I7
s(S'ridiculous'
p1596
g2
tp1597
I7
s(S'merely'
p1598
g11
tp1599
I7
s(S'generally'
p1600
g11
tp1601
I32
s(S'perfect'
p1602
g2
tp1603
I9
s(S'talent'
p1604
g28
tp1605
I11
s(S'clic'
p1606
g2
tp1607
I7
s(S'yes'
p1608
g57
tp1609
I7
s(S'Annual'
p1610
g2
tp1611
I14
s(S'frequent'
p1612
g2
tp1613
I7
s(S'number'
p1614
g28
tp1615
I8
s(S'Work/life'
p1616
g2
tp1617
I19
s(S'daily'
p1618
g2
tp1619
I31
s(S'Too'
p1620
g11
tp1621
I47
s(S'generic'
p1622
g2
tp1623
I8
s(S'booo'
p1624
g11
tp1625
I7
s(S'self'
p1626
g28
tp1627
I7
s(S'days'
p1628
g57
tp1629
I11
s(S'non-challenging'
p1630
g2
tp1631
I7
s(S'-People'
p1632
g2
tp1633
I7
s(S'touch'
p1634
g2
tp1635
I7
s(S'well'
p1636
g11
tp1637
I80
s(S'insight'
p1638
g28
tp1639
I8
s(S'promotions'
p1640
g57
tp1641
I7
s(S'Even'
p1642
g11
tp1643
I8
s(S'audit/accounting'
p1644
g2
tp1645
I8
s(S'compartmentalized'
p1646
g2
tp1647
I8
s(S'interesting'
p1648
g2
tp1649
I64
s(S'pricewaterhousecoopers'
p1650
g57
tp1651
I7
s(S'Firm'
p1652
g28
tp1653
I7
s(S'physical'
p1654
g2
tp1655
I7
s(S'complex'
p1656
g2
tp1657
I11
s(S'life-long'
p1658
g2
tp1659
I7
s(S'region'
p1660
g28
tp1661
I7
s(S'tap'
p1662
g28
tp1663
I7
s(S'somewhat'
p1664
g11
tp1665
I12
s(S'assistant'
p1666
g2
tp1667
I7
s(S'ever'
p1668
g11
tp1669
I70
s(S'unavoidable'
p1670
g2
tp1671
I7
s(S't'
p1672
g28
tp1673
I8
s(S'springboard'
p1674
g28
tp1675
I7
s(S'mind'
p1676
g2
tp1677
I7
s(S'non-charge'
p1678
g2
tp1679
I7
s(S'severe'
p1680
g2
tp1681
I7
s(S'verbally'
p1682
g11
tp1683
I8
s(S'recent'
p1684
g2
tp1685
I29
s(S'Reputable'
p1686
g2
tp1687
I7
s(S'complete'
p1688
g2
tp1689
I12
s(S'co-workers'
p1690
g57
tp1691
I7
s(S'Headquarter-centric'
p1692
g2
tp1693
I8
s(S'Future'
p1694
g2
tp1695
I7
s(S'basketball'
p1696
g2
tp1697
I7
s(S'distinct'
p1698
g2
tp1699
I7
s(S'annual'
p1700
g2
tp1701
I47
s(S'Casual'
p1702
g2
tp1703
I7
s(S'Past'
p1704
g2
tp1705
I7
s(S'currently'
p1706
g11
tp1707
I8
s(S'company,'
p1708
g28
tp1709
I7
s(S'internship'
p1710
g28
tp1711
I9
s(S"'ole"
p1712
g2
tp1713
I7
s(S'deep'
p1714
g2
tp1715
I7
s(S'first-hand'
p1716
g2
tp1717
I7
s(S'finance'
p1718
g28
tp1719
I8
s(S'fruition'
p1720
g28
tp1721
I7
s(S'positively'
p1722
g11
tp1723
I7
s(S'impact'
p1724
g28
tp1725
I8
s(S'improvement'
p1726
g28
tp1727
I15
s(S'giant'
p1728
g2
tp1729
I7
s(S'Nothing'
p1730
g28
tp1731
I8
s(S'retail'
p1732
g2
tp1733
I51
s(S'stupifyingly'
p1734
g11
tp1735
I7
s(S'super-fast'
p1736
g2
tp1737
I7
s(S'Top-notch'
p1738
g2
tp1739
I7
s(S'economics'
p1740
g57
tp1741
I7
s(S'something'
p1742
g28
tp1743
I19
s(S'final'
p1744
g2
tp1745
I7
s(S'intensive'
p1746
g2
tp1747
I8
s(S'qualified'
p1748
g2
tp1749
I7
s(S'extra'
p1750
g2
tp1751
I22
s(S'Politics'
p1752
g57
tp1753
I7
s(S'O.K'
p1754
g2
tp1755
I7
s(S'heaven'
p1756
g11
tp1757
I7
s(S'C-suite'
p1758
g2
tp1759
I7
s(S'-Little'
p1760
g2
tp1761
I8
s(S'staff-aug'
p1762
g2
tp1763
I7
s(S'safety'
p1764
g28
tp1765
I8
s(S'fun'
p1766
g2
tp1767
I7
s(S'equitqable'
p1768
g2
tp1769
I8
s(S'equivalent'
p1770
g2
tp1771
I7
s(S'house'
p1772
g28
tp1773
I7
s(S'stonewall'
p1774
g2
tp1775
I7
s(S'opportunities'
p1776
g57
tp1777
I37
s(S'-The'
p1778
g2
tp1779
I11
s(S'investigative'
p1780
g2
tp1781
I7
s(S'success'
p1782
g28
tp1783
I7
s(S'COMPANY'
p1784
g28
tp1785
I7
s(S'world'
p1786
g28
tp1787
I10
s(S'-Some'
p1788
g2
tp1789
I8
s(S'bands'
p1790
g57
tp1791
I7
s(S'l'
p1792
g28
tp1793
I7
s(S'development'
p1794
g28
tp1795
I21
s(S'upward'
p1796
g2
tp1797
I13
s(S'satisfactory'
p1798
g2
tp1799
I7
s(S'ambitious'
p1800
g2
tp1801
I10
s(S'college'
p1802
g28
tp1803
I11
s(S'Other'
p1804
g2
tp1805
I10
s(S'bur'
p1806
g28
tp1807
I7
s(S'pretty'
p1808
g11
tp1809
I58
s(S'sure'
p1810
g2
tp1811
I9
s(S'irrationally'
p1812
g11
tp1813
I7
s(S'Technical'
p1814
g2
tp1815
I8
s(S'marketable'
p1816
g2
tp1817
I7
s(S'once'
p1818
g11
tp1819
I14
s(S'plus'
p1820
g28
tp1821
I7
s(S'learning'
p1822
g28
tp1823
I8
s(S'dis-functional'
p1824
g2
tp1825
I8
s(S'select'
p1826
g28
tp1827
I7
s(S'trim'
p1828
g2
tp1829
I7
s(S'personality'
p1830
g28
tp1831
I7
s(S'ride'
p1832
g28
tp1833
I10
s(S'scale'
p1834
g28
tp1835
I7
s(S'Decentralized'
p1836
g2
tp1837
I8
s(S'fundamental'
p1838
g2
tp1839
I9
s(S'senior'
p1840
g2
tp1841
I117
s(S'elite'
p1842
g2
tp1843
I7
s(S'occasional'
p1844
g2
tp1845
I9
s(S'Full-time'
p1846
g2
tp1847
I7
s(S'-Excellent'
p1848
g2
tp1849
I7
s(S'recognizable'
p1850
g2
tp1851
I9
s(S'hierarchal'
p1852
g2
tp1853
I7
s(S'centers'
p1854
g57
tp1855
I7
s(S'necessarily'
p1856
g11
tp1857
I18
s(S'aggressive'
p1858
g2
tp1859
I9
s(S'double'
p1860
g2
tp1861
I9
s(S'-Faire'
p1862
g2
tp1863
I7
s(S'Non-revenue'
p1864
g2
tp1865
I7
s(S'willi'
p1866
g11
tp1867
I7
s(S'organic'
p1868
g2
tp1869
I11
s(S'time'
p1870
g28
tp1871
I29
s(S'approach'
p1872
g28
tp1873
I7
s(S'overly'
p1874
g11
tp1875
I11
s(S'certain'
p1876
g2
tp1877
I41
s(S'odd'
p1878
g2
tp1879
I8
s(S'lifetim'
p1880
g28
tp1881
I7
s(S'Complete'
p1882
g2
tp1883
I7
s(S'REALLY'
p1884
g11
tp1885
I8
s(S'Vindictive'
p1886
g2
tp1887
I8
s(S'inertial'
p1888
g2
tp1889
I7
s(S'understaffing'
p1890
g28
tp1891
I7
s(S'commercial'
p1892
g2
tp1893
I7
s(S'strong'
p1894
g2
tp1895
I73
s(S'backlogged'
p1896
g2
tp1897
I7
s(S'honest'
p1898
g2
tp1899
I7
s(S'hugely'
p1900
g11
tp1901
I7
s(S'native'
p1902
g2
tp1903
I8
s(S'Never'
p1904
g11
tp1905
I14
s(S'hours'
p1906
g57
tp1907
I43
s(S'realistic'
p1908
g2
tp1909
I8
s(S'bike'
p1910
g2
tp1911
I7
s(S'places'
p1912
g57
tp1913
I8
s(S'eduactional'
p1914
g2
tp1915
I7
s(S'non-managerial'
p1916
g2
tp1917
I7
s(S'socially'
p1918
g11
tp1919
I9
s(S'recognition'
p1920
g28
tp1921
I11
s(S'pre-planned'
p1922
g2
tp1923
I7
s(S'exotic'
p1924
g2
tp1925
I7
s(S'archaic'
p1926
g2
tp1927
I8
s(S'initiative'
p1928
g2
tp1929
I7
s(S'service'
p1930
g28
tp1931
I11
s(S'university'
p1932
g28
tp1933
I7
s(S'anonymity'
p1934
g28
tp1935
I8
s(S'east'
p1936
g28
tp1937
I7
s(S'experience'
p1938
g28
tp1939
I62
s(S'feelings'
p1940
g57
tp1941
I8
s(S'VP/Director/MD'
p1942
g2
tp1943
I7
s(S'equivalently'
p1944
g11
tp1945
I8
s(S'skills'
p1946
g57
tp1947
I14
s(S'appear'
p1948
g2
tp1949
I7
s(S'kind/pleasant'
p1950
g2
tp1951
I7
s(S'data-oriented'
p1952
g2
tp1953
I7
s(S'insincerely'
p1954
g11
tp1955
I7
s(S'downside.In'
p1956
g2
tp1957
I7
s(S'High'
p1958
g2
tp1959
I52
s(S'keeper'
p1960
g28
tp1961
I7
s(S'minutes'
p1962
g57
tp1963
I7
s(S'junior'
p1964
g2
tp1965
I21
s(S'town'
p1966
g28
tp1967
I7
s(S'cool'
p1968
g2
tp1969
I18
s(S'capable'
p1970
g2
tp1971
I8
s(S'whenever'
p1972
g28
tp1973
I7
s(S'non-competitive'
p1974
g2
tp1975
I7
s(S'hospitality'
p1976
g28
tp1977
I7
s(S'Horrible'
p1978
g2
tp1979
I13
s(S'travel'
p1980
g28
tp1981
I14
s(S'trivial'
p1982
g2
tp1983
I8
s(S'stingy'
p1984
g2
tp1985
I7
s(S'boss'
p1986
g28
tp1987
I7
s(S'financial'
p1988
g2
tp1989
I43
s(S'intangible'
p1990
g2
tp1991
I8
s(S'Front-line'
p1992
g2
tp1993
I7
s(S'rigorous'
p1994
g2
tp1995
I7
s(S'acquisitions'
p1996
g57
tp1997
I7
s(S'Knowledgable'
p1998
g2
tp1999
I7
s(S'hot'
p2000
g2
tp2001
I7
s(S'cooker'
p2002
g28
tp2003
I7
s(S'morning'
p2004
g28
tp2005
I7
s(S'there'
p2006
g11
tp2007
I16
s(S'offices'
p2008
g57
tp2009
I11
s(S"'ll"
p2010
g2
tp2011
I7
s(S'inorganic'
p2012
g2
tp2013
I7
s(S'Mechanical'
p2014
g2
tp2015
I7
s(S'Incredibly'
p2016
g11
tp2017
I8
s(S'south'
p2018
g11
tp2019
I7
s(S'matrix'
p2020
g28
tp2021
I7
s(S'relax'
p2022
g28
tp2023
I7
s(S'-Slow'
p2024
g2
tp2025
I8
s(S'lear'
p2026
g2
tp2027
I7
s(S'Japanese'
p2028
g2
tp2029
I14
s(S'affiliates'
p2030
g57
tp2031
I7
s(S'consrvatorship'
p2032
g28
tp2033
I7
s(S'severely'
p2034
g11
tp2035
I11
s(S'early'
p2036
g11
tp2037
I7
s(S'privacy'
p2038
g28
tp2039
I8
s(S'tangible'
p2040
g2
tp2041
I7
s(S'similar'
p2042
g2
tp2043
I22
s(S'numerical'
p2044
g2
tp2045
I7
s(S'theoretically'
p2046
g11
tp2047
I7
s(S'inevitable'
p2048
g2
tp2049
I7
s(S'-Conforming'
p2050
g2
tp2051
I7
s(S'Great'
p2052
g2
tp2053
I21
s(S'strict'
p2054
g2
tp2055
I9
s(S'ton'
p2056
g28
tp2057
I7
s(S'career'
p2058
g28
tp2059
I62
s(S'deliberate'
p2060
g2
tp2061
I7
s(S'moderate'
p2062
g2
tp2063
I7
s(S'day'
p2064
g28
tp2065
I10
s(S'affordable'
p2066
g2
tp2067
I7
s(S'top-tier'
p2068
g2
tp2069
I7
s(S'occupied'
p2070
g2
tp2071
I7
s(S'exactly'
p2072
g11
tp2073
I7
s(S'promotion/'
p2074
g2
tp2075
I7
s(S'adequately'
p2076
g11
tp2077
I7
s(S'consistently'
p2078
g11
tp2079
I14
s(S'interim'
p2080
g2
tp2081
I8
s(S'lacks'
p2082
g57
tp2083
I7
s(S'Now'
p2084
g11
tp2085
I7
s(S'Important'
p2086
g2
tp2087
I7
s(S'-Being'
p2088
g2
tp2089
I7
s(S'levels'
p2090
g57
tp2091
I12
s(S'friendly'
p2092
g11
tp2093
I17
s(S'Passive'
p2094
g2
tp2095
I7
s(S'wonderfull'
p2096
g2
tp2097
I8
s(S'-Great'
p2098
g2
tp2099
I19
s(S'convenient'
p2100
g2
tp2101
I9
s(S'business/management'
p2102
g2
tp2103
I7
s(S'crises'
p2104
g57
tp2105
I7
s(S'engaged'
p2106
g2
tp2107
I7
s(S'employer'
p2108
g28
tp2109
I8
s(S'ar'
p2110
g11
tp2111
I7
s(S'manner'
p2112
g28
tp2113
I7
s(S'hire'
p2114
g28
tp2115
I7
s(S'Mid-level'
p2116
g2
tp2117
I7
s(S'German'
p2118
g2
tp2119
I7
s(S'leg'
p2120
g28
tp2121
I7
s(S'-great'
p2122
g2
tp2123
I8
s(S'Corporate'
p2124
g2
tp2125
I24
s(S'incompetent'
p2126
g2
tp2127
I7
s(S'associates'
p2128
g57
tp2129
I8
s(S'C-Staff'
p2130
g2
tp2131
I7
s(S'overhead'
p2132
g2
tp2133
I7
s(S'Fire-fight'
p2134
g2
tp2135
I7
s(S'are'
p2136
g2
tp2137
I10
s(S'chaotic'
p2138
g2
tp2139
I9
s(S'inititative'
p2140
g2
tp2141
I7
s(S'engineering-friendly'
p2142
g2
tp2143
I7
s(S'recessions'
p2144
g57
tp2145
I7
s(S'allowing'
p2146
g28
tp2147
I7
s(S'non-diverse'
p2148
g2
tp2149
I7
s(S'laid-back'
p2150
g2
tp2151
I7
s(S'brutal'
p2152
g2
tp2153
I8
s(S'macroscopic'
p2154
g2
tp2155
I7
s(S'continually'
p2156
g11
tp2157
I10
s(S'over-competitive'
p2158
g2
tp2159
I7
s(S'Vestigial'
p2160
g2
tp2161
I8
s(S'systems'
p2162
g57
tp2163
I7
s(S'gradual'
p2164
g2
tp2165
I7
s(S'reach'
p2166
g28
tp2167
I7
s(S'MIs-managed'
p2168
g2
tp2169
I7
s(S'large'
p2170
g2
tp2171
I122
s(S'automation'
p2172
g28
tp2173
I7
s(S'Entrepreneurial'
p2174
g2
tp2175
I10
s(S'Management'
p2176
g28
tp2177
I7
s(S'groups'
p2178
g57
tp2179
I8
s(S'serious'
p2180
g2
tp2181
I9
s(S'flexbility'
p2182
g28
tp2183
I7
s(S'geologists'
p2184
g57
tp2185
I8
s(S'crap'
p2186
g28
tp2187
I7
s(S'tall'
p2188
g2
tp2189
I7
s(S'workable'
p2190
g2
tp2191
I7
s(S'executive/technical'
p2192
g2
tp2193
I7
s(S'lifer'
p2194
g28
tp2195
I7
s(S'Relatively'
p2196
g11
tp2197
I7
s(S'different'
p2198
g2
tp2199
I176
s(S'upstairs'
p2200
g57
tp2201
I7
s(S'follow'
p2202
g2
tp2203
I8
s(S'salary/bonus'
p2204
g2
tp2205
I7
s(S'*Confidentiality'
p2206
g2
tp2207
I7
s(S'fragmented/local'
p2208
g2
tp2209
I7
s(S'public'
p2210
g2
tp2211
I32
s(S'dissatisfaction'
p2212
g28
tp2213
I8
s(S'out-sourcing'
p2214
g2
tp2215
I7
s(S'development/training'
p2216
g2
tp2217
I7
s(S'beginning'
p2218
g28
tp2219
I7
s(S'industries'
p2220
g57
tp2221
I12
s(S'conservative'
p2222
g2
tp2223
I17
s(S'industrial'
p2224
g2
tp2225
I8
s(S'Seriously'
p2226
g11
tp2227
I7
s(S'alternative'
p2228
g2
tp2229
I7
s(S'non-partners'
p2230
g57
tp2231
I7
s(S'proactive'
p2232
g2
tp2233
I8
s(S'pleasant'
p2234
g2
tp2235
I13
s(S'-Everyone'
p2236
g2
tp2237
I7
s(S'Flexable'
p2238
g2
tp2239
I7
s(S'feels'
p2240
g57
tp2241
I7
s(S'Individual'
p2242
g2
tp2243
I11
s(S'couple'
p2244
g2
tp2245
I7
s(S'non-business'
p2246
g2
tp2247
I7
s(S'Intellectual'
p2248
g2
tp2249
I8
s(S'transparent'
p2250
g28
tp2251
I8
s(S'self-driven'
p2252
g2
tp2253
I9
s(S'busy'
p2254
g2
tp2255
I44
s(S'roles'
p2256
g57
tp2257
I9
s(S'guidance'
p2258
g28
tp2259
I7
s(S'hyper'
p2260
g28
tp2261
I7
s(S'IT/Web'
p2262
g2
tp2263
I7
s(S'balanced'
p2264
g2
tp2265
I7
s(S'security'
p2266
g28
tp2267
I10
s(S'Long'
p2268
g2
tp2269
I104
s(S'toooooooo'
p2270
g11
tp2271
I7
s(S'-Entrepreneurial'
p2272
g2
tp2273
I8
s(S'superfluous'
p2274
g2
tp2275
I7
s(S'enjoyable'
p2276
g2
tp2277
I12
s(S'strategy'
p2278
g28
tp2279
I9
s(S'Disastrous'
p2280
g2
tp2281
I7
s(S'moments'
p2282
g57
tp2283
I7
s(S'quarterly'
p2284
g2
tp2285
I9
s(S'start-up'
p2286
g2
tp2287
I7
s(S'place'
p2288
g28
tp2289
I17
s(S'however'
p2290
g11
tp2291
I11
s(S'Highly'
p2292
g11
tp2293
I23
s(S'utterly'
p2294
g11
tp2295
I8
s(S'focal'
p2296
g2
tp2297
I7
s(S'Finally'
p2298
g11
tp2299
I7
s(S'..very'
p2300
g2
tp2301
I7
s(S'workplace'
p2302
g28
tp2303
I9
s(S'furnished'
p2304
g2
tp2305
I7
s(S'ages'
p2306
g57
tp2307
I8
s(S'abundant'
p2308
g2
tp2309
I7
s(S'fast'
p2310
g11
tp2311
I15
s(S'graduates'
p2312
g57
tp2313
I7
s(S'plant'
p2314
g28
tp2315
I8
s(S'globally'
p2316
g11
tp2317
I9
s(S'game'
p2318
g28
tp2319
I8
s(S'who-you-know'
p2320
g2
tp2321
I7
s(S'energetic'
p2322
g2
tp2323
I8
s(S'modules'
p2324
g57
tp2325
I7
s(S'thus'
p2326
g11
tp2327
I9
s(S'areas'
p2328
g57
tp2329
I11
s(S'serial'
p2330
g2
tp2331
I8
s(S'help'
p2332
g28
tp2333
I8
s(S'revenue'
p2334
g28
tp2335
I7
s(S'togather'
p2336
g28
tp2337
I7
s(S'sweet'
p2338
g2
tp2339
I10
s(S'project'
p2340
g2
tp2341
I7
s(S'cronyism'
p2342
g28
tp2343
I7
s(S'individual'
p2344
g2
tp2345
I36
s(S'irregular'
p2346
g2
tp2347
I8
s(S'board'
p2348
g28
tp2349
I7
s(S'centralized'
p2350
g2
tp2351
I7
s(S'soon'
p2352
g11
tp2353
I7
s(S'ATK'
p2354
g28
tp2355
I7
s(S'Salary/bonus'
p2356
g2
tp2357
I7
s(S'bag'
p2358
g28
tp2359
I10
s(S'initiatives'
p2360
g57
tp2361
I7
s(S'agile'
p2362
g2
tp2363
I7
s(S'congressional'
p2364
g2
tp2365
I7
s(S'research'
p2366
g28
tp2367
I7
s(S'dead-end'
p2368
g2
tp2369
I7
s(S'in-charge'
p2370
g2
tp2371
I7
s(S'acheive'
p2372
g2
tp2373
I7
s(S'anyone'
p2374
g28
tp2375
I8
s(S'fa'
p2376
g28
tp2377
I7
s(S'repeatedly'
p2378
g11
tp2379
I7
s(S'meritocracy'
p2380
g28
tp2381
I7
s(S'clients'
p2382
g57
tp2383
I8
s(S'unethical'
p2384
g2
tp2385
I8
s(S'supplemental'
p2386
g2
tp2387
I9
s(S'silo'
p2388
g11
tp2389
I7
s(S'unbelievable'
p2390
g2
tp2391
I7
s(S'level-appropriate'
p2392
g2
tp2393
I7
s(S'compa'
p2394
g28
tp2395
I7
s(S'+year'
p2396
g2
tp2397
I7
s(S'active'
p2398
g2
tp2399
I10
s(S'moderately'
p2400
g11
tp2401
I7
s(S'unreasonable'
p2402
g2
tp2403
I9
s(S'else'
p2404
g11
tp2405
I12
s(S'management..what'
p2406
g2
tp2407
I7
s(S'determine'
p2408
g2
tp2409
I7
s(S'feedback'
p2410
g28
tp2411
I8
s(S'micro-management'
p2412
g2
tp2413
I7
s(S'toyota'
p2414
g28
tp2415
I7
s(S'enormous'
p2416
g2
tp2417
I8
s(S'managers.And'
p2418
g2
tp2419
I7
s(S'talents'
p2420
g57
tp2421
I7
s(S'inefficient'
p2422
g2
tp2423
I7
s(S'acceptable'
p2424
g2
tp2425
I8
s(S'sprawling'
p2426
g2
tp2427
I7
s(S'intra-preneurial'
p2428
g2
tp2429
I7
s(S'Barely'
p2430
g11
tp2431
I7
s(S'constant'
p2432
g2
tp2433
I41
s(S'separate'
p2434
g2
tp2435
I10
s(S'weak/poor'
p2436
g2
tp2437
I7
s(S'ignorant'
p2438
g2
tp2439
I7
s(S'inwardly'
p2440
g11
tp2441
I7
s(S'again'
p2442
g11
tp2443
I10
s(S'profits'
p2444
g57
tp2445
I7
s(S'whenever'
p2446
g11
tp2447
I7
s(S'administration'
p2448
g28
tp2449
I7
s(S'horribly'
p2450
g11
tp2451
I7
s(S'fair'
p2452
g2
tp2453
I21
s(S'countries'
p2454
g57
tp2455
I8
s(S'Continuously'
p2456
g11
tp2457
I8
s(S'curious'
p2458
g2
tp2459
I7
s(S'-Long'
p2460
g2
tp2461
I8
s(S'entire'
p2462
g2
tp2463
I19
s(S'marginal'
p2464
g2
tp2465
I7
s(S'Looks'
p2466
g57
tp2467
I8
s(S'Non-hierarchical'
p2468
g2
tp2469
I7
s(S'prestigious'
p2470
g2
tp2471
I7
s(S'maintain'
p2472
g11
tp2473
I7
s(S'Especially'
p2474
g11
tp2475
I9
s(S'large-scale'
p2476
g2
tp2477
I7
s(S'Overwhelmingly'
p2478
g11
tp2479
I7
s(S'-Competitive'
p2480
g2
tp2481
I7
s(S'universally'
p2482
g11
tp2483
I7
s(S'locker/shower'
p2484
g2
tp2485
I7
s(S'staff'
p2486
g28
tp2487
I11
s(S'mile'
p2488
g28
tp2489
I7
s(S'-Strong'
p2490
g2
tp2491
I7
s(S'risky'
p2492
g2
tp2493
I7
s(S'continuous'
p2494
g2
tp2495
I11
s(S'supporting/developing'
p2496
g2
tp2497
I7
s(S'passion'
p2498
g28
tp2499
I7
s(S'unafforadble'
p2500
g2
tp2501
I7
s(S'did'
p2502
g28
tp2503
I7
s(S'them.I'
p2504
g2
tp2505
I7
s(S'grow'
p2506
g28
tp2507
I10
s(S'soul-less'
p2508
g2
tp2509
I7
s(S'appasial'
p2510
g2
tp2511
I7
s(S'C-Suite'
p2512
g2
tp2513
I7
s(S'diverse'
p2514
g2
tp2515
I34
s(S'referrals,'
p2516
g2
tp2517
I7
s(S'demonstrable'
p2518
g2
tp2519
I7
s(S'needs'
p2520
g57
tp2521
I10
s(S'mentorship/training'
p2522
g2
tp2523
I7
s(S'looks'
p2524
g57
tp2525
I9
s(S'technologies'
p2526
g57
tp2527
I11
s(S'repetitive'
p2528
g2
tp2529
I7
s(S'autonomous'
p2530
g2
tp2531
I7
s(S'prioritized'
p2532
g2
tp2533
I7
s(S'leaders'
p2534
g57
tp2535
I7
s(S'micromanage'
p2536
g28
tp2537
I7
s(S'actual'
p2538
g2
tp2539
I29
s(S'general'
p2540
g2
tp2541
I19
s(S'product-driven'
p2542
g2
tp2543
I7
s(S'program'
p2544
g28
tp2545
I7
s(S'self-serve'
p2546
g2
tp2547
I7
s(S'know'
p2548
g11
tp2549
I7
s(S'excellent'
p2550
g2
tp2551
I11
s(S'industry'
p2552
g28
tp2553
I23
s(S'vast'
p2554
g2
tp2555
I8
s(S'perks'
p2556
g57
tp2557
I7
s(S'under-represented'
p2558
g2
tp2559
I7
s(S'immature'
p2560
g28
tp2561
I8
s(S'('
p2562
g28
tp2563
I12
s(S'flex-work/remote'
p2564
g2
tp2565
I8
s(S'cafeteria,'
p2566
g28
tp2567
I7
s(S'hires'
p2568
g57
tp2569
I13
s(S'limited'
p2570
g2
tp2571
I10
s(S'Short'
p2572
g2
tp2573
I8
s(S'dangerous'
p2574
g2
tp2575
I7
s(S'C*D'
p2576
g2
tp2577
I7
s(S'probably'
p2578
g11
tp2579
I13
s(S'able'
p2580
g2
tp2581
I9
s(S'autocratic'
p2582
g2
tp2583
I7
s(S'functional'
p2584
g2
tp2585
I24
s(S'profile'
p2586
g2
tp2587
I7
s(S'actually'
p2588
g11
tp2589
I30
s(S'sponsored'
p2590
g2
tp2591
I7
s(S'reviews'
p2592
g57
tp2593
I7
s(S'Bi-weekly'
p2594
g2
tp2595
I7
s(S'Physical'
p2596
g2
tp2597
I8
s(S'straight'
p2598
g2
tp2599
I8
s(S'together'
p2600
g11
tp2601
I8
s(S"'really"
p2602
g11
tp2603
I7
s(S'co-op'
p2604
g2
tp2605
I7
s(S'Absolutely'
p2606
g11
tp2607
I7
s(S'-HR'
p2608
g2
tp2609
I7
s(S'everybody'
p2610
g28
tp2611
I8
s(S'previous'
p2612
g2
tp2613
I19
s(S'Relative'
p2614
g2
tp2615
I7
s(S'sight'
p2616
g28
tp2617
I7
s(S'auto'
p2618
g28
tp2619
I7
s(S'department'
p2620
g28
tp2621
I10
s(S'moral'
p2622
g2
tp2623
I10
s(S'mechanic'
p2624
g2
tp2625
I7
s(S'A*B'
p2626
g2
tp2627
I7
s(S'back-office'
p2628
g2
tp2629
I8
s(S'collegial'
p2630
g2
tp2631
I13
s(S'Mentor/Counseling'
p2632
g2
tp2633
I8
s(S'broadly'
p2634
g11
tp2635
I7
s(S'interactions'
p2636
g57
tp2637
I8
s(S'leads.Your'
p2638
g2
tp2639
I7
s(S'congenial'
p2640
g2
tp2641
I7
s(S'vary'
p2642
g2
tp2643
I7
s(S'remote'
p2644
g28
tp2645
I9
s(S'self-study'
p2646
g2
tp2647
I7
s(S'Bright'
p2648
g2
tp2649
I8
s(S'world-wide'
p2650
g2
tp2651
I8
s(S'-Middle'
p2652
g2
tp2653
I7
s(S'education'
p2654
g28
tp2655
I8
s(S'atmosphere'
p2656
g11
tp2657
I9
s(S'internationally'
p2658
g11
tp2659
I9
s(S'york'
p2660
g28
tp2661
I9
s(S'small'
p2662
g2
tp2663
I46
s(S'Generally'
p2664
g11
tp2665
I8
s(S'deadlines'
p2666
g57
tp2667
I7
s(S'established'
p2668
g2
tp2669
I9
s(S'client'
p2670
g28
tp2671
I8
s(S'economical'
p2672
g2
tp2673
I7
s(S'necesarily'
p2674
g11
tp2675
I7
s(S'just'
p2676
g11
tp2677
I66
s(S'his/her'
p2678
g2
tp2679
I9
s(S'bureaucratic'
p2680
g2
tp2681
I18
s(S'downhill'
p2682
g11
tp2683
I7
s(S'pretty'
p2684
g28
tp2685
I7
s(S'exercise'
p2686
g28
tp2687
I7
s(S'independent'
p2688
g2
tp2689
I8
s(S'world-class'
p2690
g2
tp2691
I8
s(S'busy/crunch'
p2692
g2
tp2693
I7
s(S'.top'
p2694
g2
tp2695
I7
s(S'mentally'
p2696
g11
tp2697
I8
s(S'casual'
p2698
g2
tp2699
I19
s(S'massive'
p2700
g2
tp2701
I17
s(S'concrete'
p2702
g2
tp2703
I7
s(S'internal'
p2704
g2
tp2705
I72
s(S'aspect'
p2706
g28
tp2707
I7
s(S'underqualified'
p2708
g2
tp2709
I7
s(S'Financial'
p2710
g2
tp2711
I9
s(S'hours/more'
p2712
g2
tp2713
I8
s(S'Various'
p2714
g2
tp2715
I11
s(S'onsite'
p2716
g2
tp2717
I12
s(S'factory'
p2718
g28
tp2719
I7
s(S'-Health'
p2720
g2
tp2721
I7
s(S'Still'
p2722
g11
tp2723
I12
s(S'direction'
p2724
g28
tp2725
I11
s(S'low-end'
p2726
g2
tp2727
I7
s(S'cardinal'
p2728
g2
tp2729
I7
s(S'Serious'
p2730
g2
tp2731
I7
s(S'thick'
p2732
g2
tp2733
I7
s(S'demanding'
p2734
g28
tp2735
I7
s(S'full-time'
p2736
g2
tp2737
I11
s(S'Banker'
p2738
g28
tp2739
I9
s(S'push'
p2740
g2
tp2741
I9
s(S'communication'
p2742
g28
tp2743
I7
s(S'now'
p2744
g11
tp2745
I21
s(S'unfair'
p2746
g2
tp2747
I11
s(S'Severely'
p2748
g11
tp2749
I7
s(S'adequate'
p2750
g2
tp2751
I7
s(S'path'
p2752
g28
tp2753
I7
s(S'fantastic'
p2754
g2
tp2755
I19
s(S'Cons'
p2756
g57
tp2757
I7
s(S'classes'
p2758
g57
tp2759
I7
s(S'plants'
p2760
g57
tp2761
I7
s(S'less-clear'
p2762
g2
tp2763
I7
s(S'solicitation'
p2764
g28
tp2765
I7
s(S'downturns'
p2766
g57
tp2767
I7
s(S'community'
p2768
g28
tp2769
I8
s(S'-Massive'
p2770
g2
tp2771
I7
s(S'improper'
p2772
g2
tp2773
I7
s(S'arrogance'
p2774
g28
tp2775
I7
s(S'flexibility'
p2776
g28
tp2777
I8
s(S'consistent'
p2778
g2
tp2779
I7
s(S'legal'
p2780
g2
tp2781
I9
s(S'fluid'
p2782
g2
tp2783
I7
s(S'hard-working'
p2784
g2
tp2785
I9
s(S'Consulting'
p2786
g28
tp2787
I7
s(S'organizations'
p2788
g57
tp2789
I8
s(S'process-oriented'
p2790
g2
tp2791
I8
s(S'analysis'
p2792
g28
tp2793
I7
s(S'Cult-like'
p2794
g2
tp2795
I7
s(S'time-off'
p2796
g2
tp2797
I7
s(S'Accounting/Finance'
p2798
g2
tp2799
I7
s(S'organisational'
p2800
g2
tp2801
I8
s(S'seasoned'
p2802
g2
tp2803
I8
s(S'street'
p2804
g28
tp2805
I8
s(S'highly'
p2806
g11
tp2807
I41
s(S'perspective'
p2808
g2
tp2809
I8
s(S'prisoner'
p2810
g28
tp2811
I7
s(S'social'
p2812
g2
tp2813
I43
s(S'On-site'
p2814
g2
tp2815
I7
s(S'multi-partnered'
p2816
g2
tp2817
I7
s(S'recordable'
p2818
g2
tp2819
I8
s(S'particularly'
p2820
g11
tp2821
I12
s(S'plan'
p2822
g28
tp2823
I11
s(S'Competitive'
p2824
g2
tp2825
I23
s(S'legally'
p2826
g11
tp2827
I7
s(S'year-round'
p2828
g2
tp2829
I7
s(S'5-point'
p2830
g2
tp2831
I8
s(S'changes'
p2832
g57
tp2833
I10
s(S'A.T.Kearney'
p2834
g28
tp2835
I7
s(S'buildings'
p2836
g57
tp2837
I7
s(S'*The'
p2838
g2
tp2839
I7
s(S'dull'
p2840
g2
tp2841
I8
s(S'Local'
p2842
g2
tp2843
I7
s(S'domestic'
p2844
g2
tp2845
I7
s(S'fifth'
p2846
g2
tp2847
I8
s(S'Generous'
p2848
g2
tp2849
I11
s(S'everyone'
p2850
g28
tp2851
I8
s(S'usually'
p2852
g11
tp2853
I20
s(S'average'
p2854
g2
tp2855
I37
s(S'pretentious'
p2856
g2
tp2857
I7
s(S'enough'
p2858
g2
tp2859
I14
s(S'-Old'
p2860
g2
tp2861
I7
s(S'sour-tasting'
p2862
g2
tp2863
I7
s(S'nauseum'
p2864
g28
tp2865
I8
s(S'median'
p2866
g2
tp2867
I7
s(S'students'
p2868
g57
tp2869
I9
s(S'lifetime'
p2870
g28
tp2871
I7
s(S'+Industry'
p2872
g2
tp2873
I7
s(S'Formal'
p2874
g2
tp2875
I7
s(S'important'
p2876
g2
tp2877
I25
s(S'Spectacular'
p2878
g2
tp2879
I8
s(S'infinite'
p2880
g2
tp2881
I7
s(S'practically'
p2882
g11
tp2883
I7
s(S'tablets/smartphones'
p2884
g57
tp2885
I7
s(S'quiet'
p2886
g2
tp2887
I7
s(S'slogan'
p2888
g28
tp2889
I8
s(S'Extensive'
p2890
g2
tp2891
I11
s(S'stellar'
p2892
g2
tp2893
I7
s(S'Free-Fire'
p2894
g2
tp2895
I7
s(S'leave'
p2896
g28
tp2897
I7
s(S'appropriate'
p2898
g2
tp2899
I12
s(S'neck'
p2900
g28
tp2901
I7
s(S'non-structured'
p2902
g2
tp2903
I7
s(S'reorgs'
p2904
g57
tp2905
I7
s(S'cut-throat'
p2906
g2
tp2907
I10
s(S'tough'
p2908
g2
tp2909
I22
s(S'antiquated'
p2910
g2
tp2911
I7
s(S'C-level'
p2912
g2
tp2913
I9
s(S'exposure'
p2914
g28
tp2915
I8
s(S'hourly'
p2916
g11
tp2917
I10
s(S"'white"
p2918
g2
tp2919
I7
s(S'enable'
p2920
g2
tp2921
I8
s(S'agressive'
p2922
g2
tp2923
I8
s(S'ludicrous'
p2924
g2
tp2925
I7
s(S'undue'
p2926
g2
tp2927
I7
s(S'products'
p2928
g57
tp2929
I15
s(S'rewards'
p2930
g57
tp2931
I7
s(S'result'
p2932
g28
tp2933
I7
s(S'Flexiable'
p2934
g2
tp2935
I7
s(S'environme'
p2936
g28
tp2937
I7
s(S'school'
p2938
g28
tp2939
I10
s(S'dirty'
p2940
g2
tp2941
I7
s(S'initially'
p2942
g11
tp2943
I7
s(S'worth'
p2944
g2
tp2945
I14
s(S'projects'
p2946
g57
tp2947
I15
s(S'continual'
p2948
g2
tp2949
I8
s(S'wasteful'
p2950
g2
tp2951
I10
s(S'Political'
p2952
g2
tp2953
I9
s(S'Engineering/Manufacturing'
p2954
g2
tp2955
I7
s(S'free'
p2956
g2
tp2957
I52
s(S'.and'
p2958
g2
tp2959
I7
s(S'morale'
p2960
g28
tp2961
I11
s(S'black'
p2962
g2
tp2963
I8
s(S'carrot'
p2964
g28
tp2965
I7
s(S'file'
p2966
g2
tp2967
I7
s(S'and/plus'
p2968
g2
tp2969
I7
s(S'Inter-group'
p2970
g2
tp2971
I7
s(S'.just'
p2972
g2
tp2973
I7
s(S'major'
p2974
g2
tp2975
I38
s(S'collaborative'
p2976
g2
tp2977
I17
s(S'electric'
p2978
g2
tp2979
I7
s(S'gains'
p2980
g57
tp2981
I7
s(S'Family-like'
p2982
g2
tp2983
I7
s(S'Private'
p2984
g2
tp2985
I7
s(S'sycophantic'
p2986
g2
tp2987
I7
s(S'above'
p2988
g2
tp2989
I7
s(S'downsides'
p2990
g57
tp2991
I9
s(S'macroeconomic'
p2992
g2
tp2993
I7
s(S'Non-monetary'
p2994
g2
tp2995
I7
s(S'talented'
p2996
g2
tp2997
I9
s(S'club'
p2998
g28
tp2999
I7
s(S'normal'
p3000
g2
tp3001
I11
s(S'timely'
p3002
g2
tp3003
I9
s(S'Wide'
p3004
g2
tp3005
I8
s(S'open-door'
p3006
g2
tp3007
I7
s(S'endless'
p3008
g2
tp3009
I10
s(S'Current'
p3010
g2
tp3011
I10
s(S'Regular'
p3012
g2
tp3013
I7
s(S'objective'
p3014
g2
tp3015
I7
s(S'line'
p3016
g28
tp3017
I8
s(S'borderline'
p3018
g28
tp3019
I7
s(S'Social'
p3020
g2
tp3021
I7
s(S'rules'
p3022
g57
tp3023
I7
s(S'exact'
p3024
g2
tp3025
I9
s(S'present'
p3026
g2
tp3027
I7
s(S'commitments'
p3028
g57
tp3029
I7
s(S'non-petrotech'
p3030
g2
tp3031
I7
s(S'knowlegeable'
p3032
g2
tp3033
I7
s(S'lines/practices'
p3034
g57
tp3035
I7
s(S'agility'
p3036
g28
tp3037
I7
s(S'department,'
p3038
g28
tp3039
I7
s(S'press'
p3040
g28
tp3041
I7
s(S'entirely'
p3042
g11
tp3043
I11
s(S'instantly'
p3044
g11
tp3045
I7
s(S'virus'
p3046
g28
tp3047
I7
s(S'teamwork'
p3048
g28
tp3049
I7
s(S'aerospace'
p3050
g28
tp3051
I7
s(S'cleverly'
p3052
g11
tp3053
I7
s(S'constructive'
p3054
g2
tp3055
I7
s(S'consultants'
p3056
g57
tp3057
I9
s(S'dysfunctional'
p3058
g2
tp3059
I11
s(S'extensive'
p3060
g2
tp3061
I14
s(S'catastrophic'
p3062
g2
tp3063
I7
s(S'firmly'
p3064
g11
tp3065
I7
s(S'-Senior'
p3066
g2
tp3067
I7
s(S'progressive'
p3068
g2
tp3069
I8
s(S'respectful'
p3070
g2
tp3071
I11
s(S'responsive'
p3072
g2
tp3073
I7
s(S'invaluable'
p3074
g2
tp3075
I8
s(S'Unmatched'
p3076
g2
tp3077
I7
s(S'satisfactory'
p3078
g28
tp3079
I7
s(S'green'
p3080
g2
tp3081
I9
s(S'-Demanding'
p3082
g2
tp3083
I8
s(S'directly'
p3084
g11
tp3085
I8
s(S'forth'
p3086
g2
tp3087
I7
s(S'ear'
p3088
g28
tp3089
I7
s(S'contractor'
p3090
g28
tp3091
I7
s(S'frugal'
p3092
g2
tp3093
I7
s(S'cross-continental'
p3094
g2
tp3095
I7
s(S'spontaneously'
p3096
g11
tp3097
I7
s(S'bean'
p3098
g2
tp3099
I7
s(S'drastically'
p3100
g11
tp3101
I7
s(S'reasonable'
p3102
g2
tp3103
I19
s(S'advanc'
p3104
g28
tp3105
I7
s(S'always'
p3106
g11
tp3107
I113
s(S'hard'
p3108
g11
tp3109
I25
s(S'departmentalize'
p3110
g28
tp3111
I7
s(S'advancement'
p3112
g28
tp3113
I15
s(S'awful'
p3114
g2
tp3115
I12
s(S'boat'
p3116
g2
tp3117
I7
s(S'under-controlled'
p3118
g2
tp3119
I8
s(S'pyramid'
p3120
g2
tp3121
I7
s(S'Plant'
p3122
g2
tp3123
I8
s(S'disconnect'
p3124
g28
tp3125
I7
s(S'term'
p3126
g2
tp3127
I15
s(S'dictatorial'
p3128
g2
tp3129
I7
s(S'non-performing'
p3130
g2
tp3131
I7
s(S'insiders'
p3132
g57
tp3133
I7
s(S'real'
p3134
g2
tp3135
I63
s(S'unreasonab'
p3136
g28
tp3137
I7
s(S'-Exceptional'
p3138
g2
tp3139
I8
s(S'secretive'
p3140
g2
tp3141
I9
s(S'Intellectually'
p3142
g11
tp3143
I7
s(S'Numerous'
p3144
g2
tp3145
I7
s(S'low-level'
p3146
g2
tp3147
I7
s(S'bonuses'
p3148
g57
tp3149
I9
s(S'substantial'
p3150
g2
tp3151
I11
s(S'significantly'
p3152
g11
tp3153
I9
s(S'climb'
p3154
g28
tp3155
I7
s(S'island'
p3156
g28
tp3157
I7
s(S'rotational'
p3158
g2
tp3159
I7
s(S'an-equated'
p3160
g2
tp3161
I7
s(S'key'
p3162
g2
tp3163
I17
s(S'randomly'
p3164
g11
tp3165
I7
s(S'Less'
p3166
g136
tp3167
I7
s(S'incentives'
p3168
g57
tp3169
I7
s(S'multicultural'
p3170
g2
tp3171
I8
s(S'passionate'
p3172
g2
tp3173
I11
s(S'French'
p3174
g2
tp3175
I16
s(S'little'
p3176
g2
tp3177
I81
s(S'comfortable'
p3178
g2
tp3179
I12
s(S'slowly'
p3180
g11
tp3181
I10
s(S'others'
p3182
g57
tp3183
I9
s(S'fully'
p3184
g11
tp3185
I13
s(S'on-boarding'
p3186
g2
tp3187
I8
s(S'tools'
p3188
g57
tp3189
I7
s(S'partner'
p3190
g28
tp3191
I8
s(S'unrealistic'
p3192
g2
tp3193
I14
s(S'expenses'
p3194
g57
tp3195
I9
s(S'holidays'
p3196
g57
tp3197
I7
s(S'anonymously'
p3198
g11
tp3199
I8
s(S'top'
p3200
g2
tp3201
I107
s(S'years'
p3202
g57
tp3203
I21
s(S'promotion/raise/bonus'
p3204
g2
tp3205
I7
s(S'lucrative'
p3206
g2
tp3207
I7
s(S'arbitrary'
p3208
g2
tp3209
I7
s(S'steal'
p3210
g2
tp3211
I7
s(S'standards'
p3212
g57
tp3213
I10
s(S'reactive'
p3214
g2
tp3215
I8
s(S'Mostly'
p3216
g11
tp3217
I8
s(S'Organizational'
p3218
g2
tp3219
I7
s(S'requirements'
p3220
g57
tp3221
I8
s(S'extremes'
p3222
g57
tp3223
I7
s(S'longer'
p3224
g28
tp3225
I7
s(S'Company'
p3226
g28
tp3227
I8
s(S'worker'
p3228
g28
tp3229
I7
s(S'Executive'
p3230
g2
tp3231
I12
s(S'clearly'
p3232
g11
tp3233
I9
s(S'firm'
p3234
g28
tp3235
I29
s(S'america'
p3236
g28
tp3237
I8
s(S'patient'
p3238
g28
tp3239
I7
s(S'opportunitiies'
p3240
g57
tp3241
I7
s(S'everywhere'
p3242
g11
tp3243
I7
s(S'digital'
p3244
g2
tp3245
I8
s(S'Slightly'
p3246
g11
tp3247
I7
s(S'workforce'
p3248
g28
tp3249
I7
s(S'pr'
p3250
g28
tp3251
I7
s(S'divisions'
p3252
g57
tp3253
I8
s(S'tech'
p3254
g28
tp3255
I7
s(S'hard-time'
p3256
g2
tp3257
I7
s(S'lunch'
p3258
g28
tp3259
I8
s(S'potential'
p3260
g2
tp3261
I21
s(S'tatlented'
p3262
g2
tp3263
I7
s(S'Positive'
p3264
g2
tp3265
I15
s(S'opposite'
p3266
g28
tp3267
I7
s(S'one-way'
p3268
g2
tp3269
I7
s(S'someone'
p3270
g28
tp3271
I9
s(S'banker'
p3272
g28
tp3273
I7
s(S'employee-blocks/LOBs/internal'
p3274
g2
tp3275
I7
s(S'leveraged'
p3276
g2
tp3277
I7
s(S'immediately'
p3278
g11
tp3279
I9
s(S'heavily'
p3280
g11
tp3281
I12
s(S'semiannual'
p3282
g2
tp3283
I7
s(S'operationally-sound'
p3284
g2
tp3285
I7
s(S'platform'
p3286
g28
tp3287
I7
s(S'growth'
p3288
g28
tp3289
I32
s(S'organization'
p3290
g28
tp3291
I9
s(S'customer'
p3292
g28
tp3293
I10
s(S'all'
p3294
g11
tp3295
I9
s(S'legitimately'
p3296
g11
tp3297
I7
s(S'Commercial'
p3298
g2
tp3299
I7
s(S'turnover'
p3300
g28
tp3301
I8
s(S'primarily'
p3302
g11
tp3303
I8
s(S'proper'
p3304
g2
tp3305
I9
s(S'literally'
p3306
g11
tp3307
I9
s(S'ass'
p3308
g28
tp3309
I7
s(S'wholistically'
p3310
g11
tp3311
I7
s(S'crazy'
p3312
g2
tp3313
I8
s(S'motivational'
p3314
g2
tp3315
I8
s(S'bonus'
p3316
g28
tp3317
I10
s(S'mid'
p3318
g2
tp3319
I7
s(S'boys'
p3320
g57
tp3321
I8
s(S'individualized'
p3322
g2
tp3323
I8
s(S'awesome'
p3324
g28
tp3325
I10
s(S'unpractical'
p3326
g2
tp3327
I7
s(S'Apple-focused'
p3328
g2
tp3329
I7
s(S'over-worked'
p3330
g2
tp3331
I7
s(S'absolute'
p3332
g2
tp3333
I9
s(S'Marvelous'
p3334
g2
tp3335
I7
s(S'male'
p3336
g2
tp3337
I7
s(S'long'
p3338
g2
tp3339
I135
s(S'network'
p3340
g28
tp3341
I8
s(S'home'
p3342
g28
tp3343
I9
s(S'Continuous'
p3344
g2
tp3345
I8
s(S'integration'
p3346
g28
tp3347
I7
s(S'carefully'
p3348
g11
tp3349
I8
s(S'year'
p3350
g28
tp3351
I24
s(S'opportunity'
p3352
g28
tp3353
I27
s(S'cross-functional'
p3354
g2
tp3355
I8
s(S'nonflexible'
p3356
g2
tp3357
I7
s(S'Ever-changing'
p3358
g2
tp3359
I7
s(S'back'
p3360
g28
tp3361
I8
s(S'cyclical'
p3362
g2
tp3363
I8
s(S'in-demand'
p3364
g2
tp3365
I7
s(S'empire'
p3366
g28
tp3367
I7
s(S'bank'
p3368
g28
tp3369
I7
s(S'salaries'
p3370
g57
tp3371
I10
s(S'paramount'
p3372
g28
tp3373
I7
s(S'recallable'
p3374
g2
tp3375
I7
s(S'notch'
p3376
g28
tp3377
I8
s(S'totally'
p3378
g11
tp3379
I11
s(S'excessive'
p3380
g2
tp3381
I13
s(S'meeting'
p3382
g28
tp3383
I7
s(S'wo'
p3384
g28
tp3385
I7
s(S'consultancies'
p3386
g57
tp3387
I7
s(S'thoughtfully'
p3388
g11
tp3389
I7
s(S'employees'
p3390
g57
tp3391
I47
s(S'Opportunities'
p3392
g57
tp3393
I9
s(S'inform'
p3394
g28
tp3395
I7
s(S'and/or'
p3396
g2
tp3397
I11
s(S'clients/industries'
p3398
g57
tp3399
I7
s(S'multi-focus'
p3400
g2
tp3401
I7
s(S'generous'
p3402
g2
tp3403
I16
s(S'ugly'
p3404
g2
tp3405
I7
s(S'ever-shrinking'
p3406
g2
tp3407
I7
s(S'*Highly'
p3408
g2
tp3409
I7
s(S'miserable'
p3410
g2
tp3411
I8
s(S'youre'
p3412
g28
tp3413
I7
s(S'benefits'
p3414
g57
tp3415
I37
s(S'promises'
p3416
g57
tp3417
I7
s(S'meaningful'
p3418
g2
tp3419
I13
s(S'life'
p3420
g28
tp3421
I15
s(S'definitely'
p3422
g11
tp3423
I26
s(S'pension'
p3424
g28
tp3425
I7
s(S'front'
p3426
g2
tp3427
I7
s(S'skin'
p3428
g28
tp3429
I7
s(S'Nepotistic'
p3430
g2
tp3431
I7
s(S'gladly'
p3432
g11
tp3433
I9
s(S'-Expansive'
p3434
g2
tp3435
I7
s(S'tactical'
p3436
g2
tp3437
I7
s(S'blows'
p3438
g57
tp3439
I7
s(S'Years'
p3440
g57
tp3441
I7
s(S'subjective'
p3442
g2
tp3443
I8
s(S'possibly'
p3444
g11
tp3445
I12
s(S'exhorbitantly-paid'
p3446
g2
tp3447
I7
s(S'DORM'
p3448
g28
tp3449
I7
s(S'nightmarish'
p3450
g2
tp3451
I7
s(S'false'
p3452
g2
tp3453
I7
s(S'drama'
p3454
g28
tp3455
I8
s(S'single'
p3456
g2
tp3457
I20
s(S'honestly'
p3458
g11
tp3459
I8
s(S'geographical'
p3460
g2
tp3461
I7
s(S'movi'
p3462
g28
tp3463
I7
s(S'lay-offs'
p3464
g57
tp3465
I7
s(S'leave'
p3466
g2
tp3467
I7
s(S'hand'
p3468
g28
tp3469
I7
s(S'chargeable'
p3470
g2
tp3471
I9
s(S'minority'
p3472
g28
tp3473
I7
s(S'uniformity'
p3474
g28
tp3475
I7
s(S'Assistant'
p3476
g2
tp3477
I7
s(S'Unrealistic'
p3478
g2
tp3479
I8
s(S'debt'
p3480
g28
tp3481
I7
s(S'deployments'
p3482
g57
tp3483
I7
s(S'relative'
p3484
g2
tp3485
I10
s(S'Enormously'
p3486
g11
tp3487
I7
s(S'conceptual'
p3488
g2
tp3489
I7
s(S'rotation'
p3490
g28
tp3491
I8
s(S'Benifits'
p3492
g57
tp3493
I7
s(S'steadily'
p3494
g11
tp3495
I9
s(S'hardly'
p3496
g11
tp3497
I8
s(S'unidimensional'
p3498
g2
tp3499
I7
s(S'little'
p3500
g11
tp3501
I27
s(S'perception'
p3502
g28
tp3503
I9
s(S'flexible'
p3504
g2
tp3505
I105
s(S'immediate'
p3506
g2
tp3507
I19
s(S'clinically'
p3508
g11
tp3509
I7
s(S'creative'
p3510
g2
tp3511
I19
s(S'sucks'
p3512
g57
tp3513
I8
s(S'added'
p3514
g2
tp3515
I7
s(S'brands'
p3516
g57
tp3517
I8
s(S'personal/work'
p3518
g2
tp3519
I7
s(S'ostensibly'
p3520
g11
tp3521
I7
s(S'Innovative'
p3522
g2
tp3523
I11
s(S'soft'
p3524
g2
tp3525
I8
s(S'environmentally'
p3526
g11
tp3527
I7
s(S'trully'
p3528
g11
tp3529
I7
s(S'achiev'
p3530
g28
tp3531
I7
s(S'mainly'
p3532
g11
tp3533
I8
s(S"'firm"
p3534
g2
tp3535
I7
s(S'in-person'
p3536
g2
tp3537
I8
s(S'holistic'
p3538
g2
tp3539
I7
s(S'multinational'
p3540
g2
tp3541
I7
s(S'personal'
p3542
g2
tp3543
I94
s(S'Confidential'
p3544
g2
tp3545
I7
s(S'shops'
p3546
g57
tp3547
I7
s(S'sage/mentor'
p3548
g28
tp3549
I7
s(S'environmental'
p3550
g2
tp3551
I8
s(S'non-retail'
p3552
g2
tp3553
I8
s(S'manifestly'
p3554
g11
tp3555
I8
s(S'juniors'
p3556
g57
tp3557
I7
s(S'painful'
p3558
g2
tp3559
I7
s(S'unwanted'
p3560
g2
tp3561
I7
s(S'foreign'
p3562
g2
tp3563
I9
s(S'time-consuming'
p3564
g2
tp3565
I8
s(S'god'
p3566
g2
tp3567
I8
s(S'undoubtedly'
p3568
g11
tp3569
I7
s(S'Non-petrotechnical'
p3570
g2
tp3571
I7
s(S'mid-size'
p3572
g2
tp3573
I7
s(S"n't"
p3574
g11
tp3575
I480
s(S'European'
p3576
g2
tp3577
I7
s(S'quick-changing'
p3578
g2
tp3579
I7
s(S'engineering/design'
p3580
g2
tp3581
I7
s(S'professionals'
p3582
g57
tp3583
I9
s(S'long'
p3584
g11
tp3585
I15
s(S'believable'
p3586
g2
tp3587
I7
s(S'same'
p3588
g2
tp3589
I99
s(S'American'
p3590
g2
tp3591
I9
s(S'discipline'
p3592
g2
tp3593
I7
s(S'initial'
p3594
g2
tp3595
I9
s(S'vacation'
p3596
g28
tp3597
I9
s(S'fr'
p3598
g28
tp3599
I7
s(S'hierarchical'
p3600
g2
tp3601
I9
s(S'families'
p3602
g57
tp3603
I7
s(S'Zone'
p3604
g28
tp3605
I7
s(S'too'
p3606
g11
tp3607
I116
s(S'much/any'
p3608
g2
tp3609
I7
s(S'managers/senior'
p3610
g2
tp3611
I10
s(S'educative'
p3612
g2
tp3613
I7
s(S'resources'
p3614
g57
tp3615
I9
s(S'magic'
p3616
g2
tp3617
I7
s(S'most'
p3618
S'RBS'
p3619
tp3620
I32
s(S'on-campus'
p3621
g2
tp3622
I7
s(S'painfully'
p3623
g11
tp3624
I7
s(S'Medical'
p3625
g2
tp3626
I9
s(S'Corporation'
p3627
g28
tp3628
I7
s(S'technical'
p3629
g2
tp3630
I60
s(S'obsolete'
p3631
g2
tp3632
I7
s(S'pervasive'
p3633
g2
tp3634
I8
s(S'intern'
p3635
g2
tp3636
I7
s(S'then'
p3637
g11
tp3638
I36
s(S'occasionally'
p3639
g11
tp3640
I9
s(S'uncompetence'
p3641
g28
tp3642
I7
s(S'work/life'
p3643
g2
tp3644
I50
s(S'-Workable'
p3645
g2
tp3646
I7
s(S'ideal'
p3647
g2
tp3648
I7
s(S'unstable'
p3649
g2
tp3650
I10
s(S'Typical'
p3651
g2
tp3652
I8
s(S'raises'
p3653
g57
tp3654
I8
s(S'allow'
p3655
g2
tp3656
I7
s(S'downsides-'
p3657
g2
tp3658
I7
s(S'otherwise'
p3659
g11
tp3660
I8
s(S'suffering'
p3661
g28
tp3662
I7
s(S'assignment'
p3663
g28
tp3664
I7
s(S'still'
p3665
g11
tp3666
I66
s(S'uncomfortable'
p3667
g2
tp3668
I7
s(S'short'
p3669
g2
tp3670
I40
s(S'contractors'
p3671
g57
tp3672
I8
s(S'ALWAYS'
p3673
g11
tp3674
I7
s(S'offer'
p3675
g28
tp3676
I9
s(S'considerate'
p3677
g2
tp3678
I7
s(S'Extremely'
p3679
g11
tp3680
I14
s(S'down-to'
p3681
g2
tp3682
I7
s(S'sector'
p3683
g28
tp3684
I7
s(S'Once'
p3685
g11
tp3686
I7
s(S'better'
p3687
g136
tp3688
I16
s(S'Normal'
p3689
g2
tp3690
I7
s(S'results-driven'
p3691
g2
tp3692
I7
s(S'drive'
p3693
g2
tp3694
I7
s(S'likely'
p3695
g11
tp3696
I13
s(S'team-oriented'
p3697
g2
tp3698
I7
s(S'Utterly'
p3699
g11
tp3700
I7
s(S'limits.Great'
p3701
g2
tp3702
I7
s(S'price'
p3703
g28
tp3704
I10
s(S'employee-friendly'
p3705
g2
tp3706
I7
s(S'Traditional'
p3707
g2
tp3708
I7
s(S'Usual'
p3709
g2
tp3710
I7
s(S'partners'
p3711
g57
tp3712
I8
s(S'-Low'
p3713
g2
tp3714
I7
s(S'Politically'
p3715
g11
tp3716
I7
s(S'people-oriented'
p3717
g2
tp3718
I7
s(S'managerial'
p3719
g2
tp3720
I10
s(S'fairly'
p3721
g11
tp3722
I19
s(S'Extended'
p3723
g2
tp3724
I7
s(S'wildly'
p3725
g11
tp3726
I7
s(S'loads'
p3727
g57
tp3728
I7
s(S'Repetitive'
p3729
g2
tp3730
I8
s(S'lines.Your'
p3731
g2
tp3732
I7
s(S'ergonomics'
p3733
g57
tp3734
I7
s(S'looked'
p3735
g2
tp3736
I7
s(S'Safety'
p3737
g28
tp3738
I7
s(S'systemic'
p3739
g2
tp3740
I7
s(S'variable'
p3741
g2
tp3742
I11
s(S'customers/members'
p3743
g57
tp3744
I7
s(S'Sucks'
p3745
g57
tp3746
I9
s(S'inherent'
p3747
g2
tp3748
I7
s(S'norm'
p3749
g28
tp3750
I7
s(S'surprisingly'
p3751
g11
tp3752
I8
s(S'court'
p3753
g28
tp3754
I7
s(S'downturn'
p3755
g28
tp3756
I7
s(S'recently'
p3757
g11
tp3758
I15
s(S'pragmatic'
p3759
g2
tp3760
I7
s(S'scared'
p3761
g2
tp3762
I7
s(S'check'
p3763
g28
tp3764
I7
s(S'movement'
p3765
g28
tp3766
I7
s(S'enough'
p3767
g11
tp3768
I28
s(S'regularly'
p3769
g11
tp3770
I7
s(S'schedule'
p3771
g28
tp3772
I10
s(S'alternate'
p3773
g2
tp3774
I8
s(S'under-performing'
p3775
g2
tp3776
I7
s(S'merger'
p3777
g28
tp3778
I7
s(S'+Financial'
p3779
g2
tp3780
I7
s(S'Drastic'
p3781
g2
tp3782
I7
s(S'hard-to-beat'
p3783
g2
tp3784
I7
s(S'stability'
p3785
g28
tp3786
I7
s(S'Already'
p3787
g11
tp3788
I7
s(S'whole'
p3789
g2
tp3790
I19
s(S'diversified'
p3791
g2
tp3792
I8
s(S'workweek'
p3793
g28
tp3794
I7
s(S'Strong'
p3795
g2
tp3796
I35
s(S'huge'
p3797
g2
tp3798
I54
s(S'equivalents'
p3799
g57
tp3800
I7
s(S'knowledgable'
p3801
g2
tp3802
I10
s(S'never'
p3803
g11
tp3804
I69
s(S'profile'
p3805
g28
tp3806
I7
s(S'design'
p3807
g28
tp3808
I8
s(S'way'
p3809
g28
tp3810
I11
s(S'Monotonous'
p3811
g2
tp3812
I7
s(S'quantifiable'
p3813
g2
tp3814
I7
s(S'Retail'
p3815
g2
tp3816
I18
s(S'-Career'
p3817
g2
tp3818
I7
s(S'after-taste'
p3819
g2
tp3820
I7
s(S'insular'
p3821
g2
tp3822
I7
s(S'leadership'
p3823
g28
tp3824
I12
s(S'wear'
p3825
g2
tp3826
I7
s(S'attendant'
p3827
g2
tp3828
I7
s(S'launchpad'
p3829
g28
tp3830
I7
s(S'mutual'
p3831
g2
tp3832
I8
s(S'unpaid'
p3833
g2
tp3834
I7
s(S'stressful'
p3835
g2
tp3836
I22
s(S'indian'
p3837
g2
tp3838
I7
s(S'environment'
p3839
g28
tp3840
I38
s(S'checks'
p3841
g57
tp3842
I7
s(S'pressure'
p3843
g28
tp3844
I9
s(S'inspirational'
p3845
g2
tp3846
I7
s(S'non-intuitive'
p3847
g2
tp3848
I7
s(S'ex-employ'
p3849
g2
tp3850
I7
s(S'overseas'
p3851
g2
tp3852
I7
s(S'terrific'
p3853
g2
tp3854
I9
s(S'nice'
p3855
g2
tp3856
I57
s(S'compensation'
p3857
g28
tp3858
I14
s(S'Few'
p3859
g2
tp3860
I8
s(S'rapidly'
p3861
g11
tp3862
I9
s(S'senior-most'
p3863
g2
tp3864
I7
s(S'statistically'
p3865
g11
tp3866
I7
s(S'dynamic'
p3867
g2
tp3868
I14
s(S'terrible'
p3869
g2
tp3870
I21
s(S'business'
p3871
g28
tp3872
I10
s(S'deplorable'
p3873
g2
tp3874
I7
s(S'IBM-paid'
p3875
g2
tp3876
I7
s(S'lifestyle'
p3877
g2
tp3878
I7
s(S'properly'
p3879
g11
tp3880
I8
s(S'ample'
p3881
g2
tp3882
I12
s(S'long-term'
p3883
g2
tp3884
I15
s(S'grant'
p3885
g2
tp3886
I7
s(S'backgrounds'
p3887
g57
tp3888
I7
s(S'contractual'
p3889
g2
tp3890
I7
s(S'worth'
p3891
g28
tp3892
I7
s(S'unhappy'
p3893
g2
tp3894
I8
s(S'low'
p3895
g2
tp3896
I88
s(S'later'
p3897
g2
tp3898
I10
s(S'Wok/life'
p3899
g2
tp3900
I7
s(S'p/week'
p3901
g2
tp3902
I7
s(S'happene'
p3903
g28
tp3904
I7
s(S'non-management'
p3905
g2
tp3906
I11
s(S'track'
p3907
g28
tp3908
I7
s(S'Services/Managed'
p3909
g2
tp3910
I7
s(S'bosses'
p3911
g57
tp3912
I7
s(S'revolutionary'
p3913
g2
tp3914
I7
s(S'decently'
p3915
g11
tp3916
I7
s(S'etc'
p3917
g28
tp3918
I9
s(S'minded'
p3919
g2
tp3920
I7
s(S'successful'
p3921
g2
tp3922
I10
s(S'difference'
p3923
g28
tp3924
I9
s(S"N'T"
p3925
g11
tp3926
I8
s(S'Junior-level'
p3927
g2
tp3928
I8
s(S'Also'
p3929
g11
tp3930
I10
s(S'ahead'
p3931
g11
tp3932
I7
s(S'sharp'
p3933
g2
tp3934
I11
s(S'geographic'
p3935
g2
tp3936
I11
s(S'virtual'
p3937
g2
tp3938
I8
s(S'economy'
p3939
g28
tp3940
I8
s(S'entitlement'
p3941
g28
tp3942
I7
s(S'highly-qualified'
p3943
g2
tp3944
I7
s(S'attrition'
p3945
g28
tp3946
I7
s(S'system'
p3947
g28
tp3948
I10
s(S'future'
p3949
g28
tp3950
I8
s(S'Confortable'
p3951
g2
tp3952
I7
s(S'voluntary'
p3953
g2
tp3954
I7
s(S'Incredible'
p3955
g2
tp3956
I13
s(S'corporation'
p3957
g28
tp3958
I8
s(S'company/inflexible'
p3959
g2
tp3960
I7
s(S'unexpectly'
p3961
g11
tp3962
I7
s(S'prices'
p3963
g57
tp3964
I7
s(S'Basically'
p3965
g11
tp3966
I7
s(S'not-that-critical'
p3967
g2
tp3968
I7
s(S'safe'
p3969
g2
tp3970
I8
s(S'uniuque'
p3971
g2
tp3972
I7
s(S'-Diverse'
p3973
g2
tp3974
I7
s(S'cult-like'
p3975
g2
tp3976
I8
s(S'nothing'
p3977
g28
tp3978
I15
s(S'quick'
p3979
g2
tp3980
I9
s(S'unpolished'
p3981
g2
tp3982
I7
s(S'restrictedly'
p3983
g11
tp3984
I7
s(S'hourly'
p3985
g2
tp3986
I9
s(S'hit'
p3987
g28
tp3988
I7
s(S'traction'
p3989
g28
tp3990
I7
s(S'mobility'
p3991
g28
tp3992
I7
s(S'hate'
p3993
g2
tp3994
I7
s(S'nimble'
p3995
g2
tp3996
I7
s(S'old'
p3997
g2
tp3998
I54
s(S'favorites'
p3999
g57
tp4000
I8
s(S'any/all'
p4001
g2
tp4002
I7
s(S'premier'
p4003
g2
tp4004
I7
s(S'high'
p4005
g2
tp4006
I161
s(S'first'
p4007
g11
tp4008
I15
s(S'Explosive'
p4009
g2
tp4010
I7
s(S'Penance'
p4011
g28
tp4012
I7
s(S'Just'
p4013
g11
tp4014
I8
s(S'routine'
p4015
g28
tp4016
I7
s(S'dual-case'
p4017
g2
tp4018
I7
s(S'growth.Good'
p4019
g2
tp4020
I7
s(S'heavy'
p4021
g2
tp4022
I22
s(S'long-range'
p4023
g2
tp4024
I7
s(S'cincy'
p4025
g28
tp4026
I7
s(S'-Promised'
p4027
g2
tp4028
I7
s(S'mouth'
p4029
g28
tp4030
I7
s(S'activities'
p4031
g57
tp4032
I8
s(S'demands'
p4033
g57
tp4034
I7
s(S'Esential'
p4035
g2
tp4036
I7
s(S'trajectory'
p4037
g28
tp4038
I7
s(S'Several'
p4039
g2
tp4040
I9
s(S'non-chargeable'
p4041
g2
tp4042
I9
s(S'Unsupportive'
p4043
g2
tp4044
I7
s(S'couch'
p4045
g2
tp4046
I7
s(S'slimmer'
p4047
g28
tp4048
I7
s(S'activites'
p4049
g57
tp4050
I7
s(S'gr'
p4051
g28
tp4052
I7
s(S'area'
p4053
g28
tp4054
I11
s(S'satisfaction'
p4055
g28
tp4056
I8
s(S'Excessive'
p4057
g2
tp4058
I9
s(S'redundancy'
p4059
g28
tp4060
I7
s(S'non-trustworthy'
p4061
g2
tp4062
I9
s(S'Really'
p4063
g11
tp4064
I11
s(S'beach'
p4065
g28
tp4066
I8
s(S'collegian'
p4067
g2
tp4068
I7
s(S'quickly'
p4069
g11
tp4070
I12
s(S'defintely'
p4071
g11
tp4072
I7
s(S'customers'
p4073
g57
tp4074
I7
s(S'Hectic'
p4075
g2
tp4076
I8
s(S'-customer'
p4077
g2
tp4078
I7
s(S'Unbelievable'
p4079
g2
tp4080
I7
s(S'Late'
p4081
g11
tp4082
I7
s(S'famous'
p4083
g2
tp4084
I8
s(S'Truely'
p4085
g11
tp4086
I7
s(S'family'
p4087
g11
tp4088
I7
s(S'messy'
p4089
g2
tp4090
I7
s(S'Analyst'
p4091
g28
tp4092
I7
s(S'37.5hr'
p4093
g2
tp4094
I7
s(S'yo'
p4095
g28
tp4096
I7
s(S'discipline'
p4097
g28
tp4098
I7
s(S'store..excellent'
p4099
g2
tp4100
I7
s(S'follower'
p4101
g28
tp4102
I7
s(S'be'
p4103
g28
tp4104
I7
s(S'practice'
p4105
g28
tp4106
I10
s(S'verbal'
p4107
g2
tp4108
I10
s(S'Internship'
p4109
g28
tp4110
I7
s(S'created'
p4111
g2
tp4112
I8
s(S'further'
p4113
g2
tp4114
I10
s(S'guilty'
p4115
g2
tp4116
I7
s(S'lucky'
p4117
g2
tp4118
I13
s(S'entrepreneural'
p4119
g2
tp4120
I7
s(S'dogs'
p4121
g57
tp4122
I8
s(S'unpleasant'
p4123
g2
tp4124
I7
s(S'mostly'
p4125
g11
tp4126
I18
s(S'NY-based'
p4127
g2
tp4128
I7
s(S'habitual'
p4129
g2
tp4130
I7
s(S'quite'
p4131
g11
tp4132
I32
s(S'Entreprenuerial'
p4133
g2
tp4134
I7
s(S'sales/service'
p4135
g2
tp4136
I7
s(S'masters'
p4137
g57
tp4138
I7
s(S'cost'
p4139
g28
tp4140
I9
s(S'personally'
p4141
g11
tp4142
I9
s(S'homeless'
p4143
g2
tp4144
I7
s(S'Uncompetitive'
p4145
g2
tp4146
I8
s(S'approachable'
p4147
g2
tp4148
I12
s(S'mid~career'
p4149
g28
tp4150
I7
s(S'Impressive'
p4151
g2
tp4152
I7
s(S'meetings'
p4153
g57
tp4154
I9
s(S'pool'
p4155
g28
tp4156
I7
s(S'highway,'
p4157
g2
tp4158
I7
s(S'Significant'
p4159
g2
tp4160
I12
s(S'unemployment'
p4161
g28
tp4162
I7
s(S'multi-hour'
p4163
g2
tp4164
I7
s(S'NOT'
p4165
g11
tp4166
I11
s(S'mouthed'
p4167
g2
tp4168
I7
s(S'specifically'
p4169
g11
tp4170
I9
s(S'medical'
p4171
g2
tp4172
I21
s(S'private'
p4173
g2
tp4174
I15
s(S'-Solid'
p4175
g2
tp4176
I7
s(S'spills'
p4177
g57
tp4178
I7
s(S'professional'
p4179
g2
tp4180
I90
s(S'technological'
p4181
g2
tp4182
I10
s(S'idiot-proofing'
p4183
g2
tp4184
I7
s(S'values'
p4185
g57
tp4186
I7
s(S'judicious'
p4187
g2
tp4188
I7
s(S'logical'
p4189
g2
tp4190
I7
s(S'fast-growing'
p4191
g2
tp4192
I7
s(S'-Flat'
p4193
g2
tp4194
I7
s(S'brilliant'
p4195
g2
tp4196
I11
s(S'warts'
p4197
g57
tp4198
I7
s(S'break-through'
p4199
g2
tp4200
I7
s(S'Oppressive'
p4201
g2
tp4202
I8
s(S'work-related'
p4203
g2
tp4204
I7
s(S'manger/owner'
p4205
g2
tp4206
I7
s(S'super'
p4207
g28
tp4208
I7
s(S'ridiculously'
p4209
g11
tp4210
I9
s(S'Authorative'
p4211
g2
tp4212
I7
s(S'livable'
p4213
g2
tp4214
I7
s(S'*Senior'
p4215
g2
tp4216
I7
s(S'family'
p4217
g28
tp4218
I9
s(S'cold'
p4219
g2
tp4220
I8
s(S'Always'
p4221
g11
tp4222
I16
s(S'Bureaucratic'
p4223
g2
tp4224
I7
s(S'Major'
p4225
g2
tp4226
I8
s(S'helpful.The'
p4227
g2
tp4228
I7
s(S'topics'
p4229
g57
tp4230
I7
s(S'several'
p4231
g2
tp4232
I29
s(S'analyst'
p4233
g28
tp4234
I9
s(S'Tremendous'
p4235
g2
tp4236
I8
s(S'good/bad'
p4237
g2
tp4238
I7
s(S'persuasive'
p4239
g2
tp4240
I7
s(S'code'
p4241
g28
tp4242
I7
s(S'feel'
p4243
g28
tp4244
I8
s(S'back'
p4245
g11
tp4246
I14
s(S'thing'
p4247
g28
tp4248
I9
s(S'communications'
p4249
g57
tp4250
I7
s(S'group-company'
p4251
g2
tp4252
I7
s(S'Little'
p4253
g11
tp4254
I9
s(S'teammates'
p4255
g57
tp4256
I8
s(S'tremendous'
p4257
g2
tp4258
I17
s(S'strictly'
p4259
g11
tp4260
I11
s(S'steady'
p4261
g2
tp4262
I10
s(S'tight-knit'
p4263
g2
tp4264
I7
s(S'coaster'
p4265
g28
tp4266
I7
s(S'fun'
p4267
g28
tp4268
I8
s(S'crafts-people'
p4269
g2
tp4270
I7
s(S'friendly'
p4271
g2
tp4272
I20
s(S'way-too-big'
p4273
g2
tp4274
I8
s(S'3rd'
p4275
g2
tp4276
I7
s(S'pay'
p4277
g28
tp4278
I21
s(S'high-margin'
p4279
g2
tp4280
I7
s(S'lifestyle'
p4281
g28
tp4282
I8
s(S'middle-management'
p4283
g2
tp4284
I8
s(S'size'
p4285
g28
tp4286
I7
s(S'many'
p4287
g2
tp4288
I329
s(S'formal'
p4289
g2
tp4290
I23
s(S'innnovative'
p4291
g2
tp4292
I7
s(S'stupid'
p4293
g2
tp4294
I10
s(S'Effective'
p4295
g2
tp4296
I7
s(S'v'
p4297
g28
tp4298
I7
s(S'Average'
p4299
g2
tp4300
I14
s(S'such'
p4301
g2
tp4302
I21
s(S'risk-averse'
p4303
g2
tp4304
I8
s(S'Growth'
p4305
g28
tp4306
I7
s(S'ibm'
p4307
g28
tp4308
I7
s(S'very'
p4309
g11
tp4310
I584
s(S'Appliances'
p4311
g57
tp4312
I7
s(S'office'
p4313
g28
tp4314
I12
s(S'essential'
p4315
g2
tp4316
I7
s(S'wrong'
p4317
g2
tp4318
I20
s(S'noticeable'
p4319
g2
tp4320
I8
s(S'glorious'
p4321
g2
tp4322
I7
s(S'career-minded'
p4323
g2
tp4324
I7
s(S'next-level'
p4325
g2
tp4326
I7
s(S'walmart'
p4327
g28
tp4328
I8
s(S'merchandising'
p4329
g28
tp4330
I7
s(S'face-to-face'
p4331
g2
tp4332
I7
s(S'engineering'
p4333
g28
tp4334
I7
s(S'formally'
p4335
g11
tp4336
I7
s(S'healthy'
p4337
g2
tp4338
I11
s(S'stars'
p4339
g57
tp4340
I8
s(S'Sterile'
p4341
g2
tp4342
I7
s(S'tiny'
p4343
g2
tp4344
I8
s(S'obviously'
p4345
g11
tp4346
I8
s(S'stress'
p4347
g28
tp4348
I11
s(S'mobile'
p4349
g2
tp4350
I13
s(S'builder'
p4351
g28
tp4352
I7
s(S'mindset'
p4353
g28
tp4354
I7
s(S'profitability'
p4355
g28
tp4356
I7
s(S'month'
p4357
g28
tp4358
I7
s(S'benefit'
p4359
g28
tp4360
I8
s(S'potical'
p4361
g2
tp4362
I7
s(S'profitable'
p4363
g2
tp4364
I11
s(S'competent'
p4365
g2
tp4366
I10
s(S'null'
p4367
g2
tp4368
I7
s(S'comforts'
p4369
g57
tp4370
I7
s(S'easily'
p4371
g11
tp4372
I25
s(S'OK'
p4373
g28
tp4374
I10
s(S'paymaster'
p4375
g28
tp4376
I7
s(S'situation'
p4377
g28
tp4378
I9
s(S'historically'
p4379
g11
tp4380
I8
s(S'kid'
p4381
g2
tp4382
I7
s(S'burden'
p4383
g28
tp4384
I7
s(S'definite'
p4385
g2
tp4386
I7
s(S'-Steep'
p4387
g2
tp4388
I7
s(S'Half-baked'
p4389
g2
tp4390
I7
s(S'anything'
p4391
g28
tp4392
I10
s(S'micro-class'
p4393
g2
tp4394
I7
s(S'special'
p4395
g2
tp4396
I9
s(S'engineering/science'
p4397
g2
tp4398
I7
s(S'continuously'
p4399
g11
tp4400
I11
s(S'tricky'
p4401
g2
tp4402
I7
s(S'productivity'
p4403
g28
tp4404
I7
s(S'entreprenurial'
p4405
g2
tp4406
I7
s(S'external'
p4407
g2
tp4408
I13
s(S'routine'
p4409
g2
tp4410
I7
s(S'Amazingly'
p4411
g11
tp4412
I7
s(S'obsessive'
p4413
g2
tp4414
I7
s(S'wel'
p4415
g28
tp4416
I7
s(S'Consistently'
p4417
g11
tp4418
I7
s(S'-RD'
p4419
g2
tp4420
I7
s(S'Terrible'
p4421
g2
tp4422
I14
s(S'Oddly'
p4423
g11
tp4424
I7
s(S'mora'
p4425
g28
tp4426
I7
s(S'cite'
p4427
g2
tp4428
I8
s(S'guest/customer'
p4429
g2
tp4430
I7
s(S'blocks'
p4431
g57
tp4432
I7
s(S'varied'
p4433
g2
tp4434
I8
s(S'evil'
p4435
g2
tp4436
I9
s(S'tight'
p4437
g2
tp4438
I15
s(S'next'
p4439
g2
tp4440
I42
s(S'sick/personal'
p4441
g2
tp4442
I8
s(S'Siginificant'
p4443
g2
tp4444
I7
s(S'making/closing'
p4445
g2
tp4446
I8
s(S'menial'
p4447
g2
tp4448
I7
s(S'CONSTANTLY'
p4449
g11
tp4450
I7
s(S'paths'
p4451
g57
tp4452
I7
s(S'fundamentals'
p4453
g57
tp4454
I7
s(S'mad'
p4455
g28
tp4456
I7
s(S'unprofessional'
p4457
g2
tp4458
I10
s(S'developers'
p4459
g57
tp4460
I7
s(S'identity'
p4461
g28
tp4462
I7
s(S'cant'
p4463
g2
tp4464
I7
s(S'th'
p4465
g28
tp4466
I8
s(S'Global'
p4467
g2
tp4468
I21
s(S'specific'
p4469
g2
tp4470
I17
s(S'stay'
p4471
g28
tp4472
I7
s(S'functionally'
p4473
g11
tp4474
I7
s(S'quantitative'
p4475
g2
tp4476
I9
s(S'cubicles'
p4477
g57
tp4478
I7
s(S'ongoing'
p4479
g2
tp4480
I10
s(S'wha'
p4481
g28
tp4482
I7
s(S'package'
p4483
g28
tp4484
I10
s(S'engaging'
p4485
g2
tp4486
I7
s(S'short-term'
p4487
g2
tp4488
I13
s(S'effectively'
p4489
g11
tp4490
I8
s(S'on-demand'
p4491
g2
tp4492
I7
s(S'publicly'
p4493
g11
tp4494
I7
s(S'hard-hitting'
p4495
g2
tp4496
I7
s(S'unit'
p4497
g28
tp4498
I7
s(S'flexibility/mobile'
p4499
g2
tp4500
I7
s(S'finally'
p4501
g11
tp4502
I11
s(S'glacial'
p4503
g2
tp4504
I7
s(S'cisco'
p4505
g28
tp4506
I7
s(S'extracurricular'
p4507
g2
tp4508
I9
s(S'big'
p4509
g2
tp4510
I134
s(S'justifiable'
p4511
g2
tp4512
I7
s(S'documents'
p4513
g57
tp4514
I7
s(S'galactic'
p4515
g2
tp4516
I7
s(S'mature'
p4517
g28
tp4518
I7
s(S'Not'
p4519
g11
tp4520
I55
s(S'largely'
p4521
g11
tp4522
I7
s(S'stre'
p4523
g28
tp4524
I7
s(S'blue'
p4525
g2
tp4526
I10
s(S'truly'
p4527
g11
tp4528
I21
s(S'seem'
p4529
g28
tp4530
I7
s(S'end-user'
p4531
g2
tp4532
I7
s(S'peers'
p4533
g57
tp4534
I7
s(S'burning'
p4535
g28
tp4536
I7
s(S'technician'
p4537
g28
tp4538
I7
s(S'rough'
p4539
g2
tp4540
I9
s(S'Ever'
p4541
g11
tp4542
I8
s(S'depts'
p4543
g57
tp4544
I7
s(S'Tight'
p4545
g2
tp4546
I8
s(S'gyms'
p4547
g57
tp4548
I7
s(S'One-Stop'
p4549
g2
tp4550
I7
s(S'forcing'
p4551
g2
tp4552
I7
s(S'primary'
p4553
g2
tp4554
I9
s(S'neccesarily'
p4555
g11
tp4556
I7
s(S'Mediocrity'
p4557
g28
tp4558
I7
s(S'Internal'
p4559
g2
tp4560
I8
s(S'human'
p4561
g2
tp4562
I8
s(S'early'
p4563
g2
tp4564
I19
s(S'pl'
p4565
g28
tp4566
I7
s(S'ac'
p4567
g28
tp4568
I7
s(S'So'
p4569
g11
tp4570
I7
s(S'network-driven'
p4571
g2
tp4572
I7
s(S'legitimate'
p4573
g2
tp4574
I7
s(S'cutthroat'
p4575
g2
tp4576
I7
s(S'delays'
p4577
g57
tp4578
I7
s(S'accountability'
p4579
g28
tp4580
I7
s(S'unpredictable'
p4581
g2
tp4582
I10
s(S'leading-edge'
p4583
g2
tp4584
I7
s(S'Flexible'
p4585
g2
tp4586
I47
s(S'Total'
p4587
g2
tp4588
I12
s(S'incentive'
p4589
g2
tp4590
I7
s(S'Aggressive'
p4591
g2
tp4592
I7
s(S'super'
p4593
g2
tp4594
I7
s(S'Constantly'
p4595
g11
tp4596
I11
s(S'offshoring'
p4597
g28
tp4598
I7
s(S'Collaborative'
p4599
g2
tp4600
I8
s(S'egregious'
p4601
g2
tp4602
I7
s(S'tightly'
p4603
g11
tp4604
I8
s(S'colleagues'
p4605
g57
tp4606
I10
s(S'position'
p4607
g28
tp4608
I8
s(S'churn'
p4609
g28
tp4610
I7
s(S'client-serving'
p4611
g2
tp4612
I7
s(S'families/children/other'
p4613
g2
tp4614
I7
s(S'Personal'
p4615
g2
tp4616
I13
s(S'analytical'
p4617
g2
tp4618
I11
s(S'mid/upper'
p4619
g2
tp4620
I7
s(S'non-client'
p4621
g2
tp4622
I8
s(S'sales/profit'
p4623
g2
tp4624
I7
s(S'predictable'
p4625
g2
tp4626
I8
s(S'productive'
p4627
g2
tp4628
I8
s(S'for-profit'
p4629
g2
tp4630
I7
s(S'authoritative'
p4631
g2
tp4632
I7
s(S'unlike'
p4633
g2
tp4634
I7
s(S'friendly.Great'
p4635
g2
tp4636
I7
s(S'locomotive'
p4637
g2
tp4638
I7
s(S'laziness'
p4639
g28
tp4640
I7
s(S'proverbial'
p4641
g2
tp4642
I7
s(S'consulting'
p4643
g28
tp4644
I10
s(S'high-performing'
p4645
g2
tp4646
I9
s(S'non-essential'
p4647
g2
tp4648
I8
s(S'horizontal'
p4649
g2
tp4650
I8
s(S'sometime'
p4651
g2
tp4652
I7
s(S'office/business'
p4653
g2
tp4654
I7
s(S'wor'
p4655
g28
tp4656
I7
s(S'yields'
p4657
g57
tp4658
I7
s(S'exciting'
p4659
g2
tp4660
I11
s(S'committee'
p4661
g28
tp4662
I8
s(S'People'
p4663
g57
tp4664
I8
s(S'off-site'
p4665
g2
tp4666
I7
s(S'sympathizers'
p4667
g57
tp4668
I7
s(S'accessible'
p4669
g2
tp4670
I7
s(S'marital'
p4671
g2
tp4672
I7
s(S'future'
p4673
g2
tp4674
I23
s(S'concentrated'
p4675
g2
tp4676
I7
s(S'budgets'
p4677
g57
tp4678
I7
s(S'average'
p4679
g28
tp4680
I7
s(S'intra-office'
p4681
g2
tp4682
I7
s(S'statements'
p4683
g57
tp4684
I7
s(S'decline'
p4685
g28
tp4686
I7
s(S'trash'
p4687
g28
tp4688
I7
s(S'inclusive'
p4689
g2
tp4690
I10
s(S'body-shop'
p4691
g2
tp4692
I7
s(S'aggressively'
p4693
g11
tp4694
I8
s(S'over-all'
p4695
g2
tp4696
I7
s(S'rather'
p4697
g11
tp4698
I17
s(S'Clients'
p4699
g57
tp4700
I7
s(S'constatly'
p4701
g11
tp4702
I7
s(S'great'
p4703
g2
tp4704
I711
s(S'Georgaphical'
p4705
g2
tp4706
I7
s(S'Economic'
p4707
g2
tp4708
I8
s(S'cold-calling'
p4709
g2
tp4710
I7
s(S'lean'
p4711
g2
tp4712
I12
s(S'non-busy'
p4713
g2
tp4714
I8
s(S'history'
p4715
g28
tp4716
I7
s(S'dreadful'
p4717
g2
tp4718
I7
s(S'Unstable'
p4719
g2
tp4720
I8
s(S'controls'
p4721
g57
tp4722
I7
s(S'performance'
p4723
g28
tp4724
I9
s(S'Competetive'
p4725
g2
tp4726
I7
s(S'original'
p4727
g2
tp4728
I7
s(S'managment'
p4729
g28
tp4730
I8
s(S'reputable'
p4731
g2
tp4732
I9
s(S'graduated'
p4733
g2
tp4734
I7
s(S'consultant'
p4735
g28
tp4736
I7
s(S'nebulous'
p4737
g2
tp4738
I7
s(S'training/learning'
p4739
g2
tp4740
I7
s(S'-Mixed'
p4741
g2
tp4742
I8
s(S'greatly'
p4743
g11
tp4744
I7
s(S'numerous'
p4745
g2
tp4746
I14
s(S'down-to-earth'
p4747
g2
tp4748
I8
s(S'-challenging'
p4749
g2
tp4750
I7
s(S'manager/employee'
p4751
g2
tp4752
I7
s(S'superficial'
p4753
g2
tp4754
I7
s(S'alone'
p4755
g11
tp4756
I8
s(S'fat'
p4757
g2
tp4758
I8
s(S'merly'
p4759
g11
tp4760
I7
s(S'cultural'
p4761
g2
tp4762
I13
s(S'o.t'
p4763
g2
tp4764
I8
s(S'Second'
p4765
g2
tp4766
I8
s(S'dominant'
p4767
g2
tp4768
I7
s(S'micro-managing'
p4769
g2
tp4770
I7
s(S'arrogant'
p4771
g2
tp4772
I7
s(S'optimal'
p4773
g2
tp4774
I7
s(S'workers'
p4775
g57
tp4776
I9
s(S'plastic'
p4777
g2
tp4778
I7
s(S'informally'
p4779
g11
tp4780
I7
s(S'times'
p4781
g57
tp4782
I20
s(S'sales'
p4783
g57
tp4784
I13
s(S'cons'
p4785
g57
tp4786
I14
s(S'philanthropic'
p4787
g2
tp4788
I7
s(S'skill'
p4789
g28
tp4790
I7
s(S'hats'
p4791
g57
tp4792
I7
s(S'main'
p4793
g2
tp4794
I15
s(S'circumstances'
p4795
g57
tp4796
I7
s(S'considerably'
p4797
g11
tp4798
I7
s(S'Potential'
p4799
g2
tp4800
I7
s(S'previously'
p4801
g11
tp4802
I9
s(S'decision'
p4803
g28
tp4804
I7
s(S'ever-changing'
p4805
g2
tp4806
I7
s(S'consultancy'
p4807
g28
tp4808
I7
s(S'yet'
p4809
g11
tp4810
I9
s(S'-growing'
p4811
g2
tp4812
I7
s(S'much'
p4813
g11
tp4814
I35
s(S'downtime'
p4815
g28
tp4816
I7
s(S'sink-or-swim'
p4817
g2
tp4818
I7
s(S'fresh'
p4819
g2
tp4820
I17
s(S'employment'
p4821
g28
tp4822
I8
s(S'extended'
p4823
g2
tp4824
I9
s(S'hectic'
p4825
g2
tp4826
I9
s(S'ressource'
p4827
g28
tp4828
I7
s(S'likewise'
p4829
g11
tp4830
I7
s(S'instances'
p4831
g57
tp4832
I7
s(S'empty'
p4833
g2
tp4834
I8
s(S'Transformative'
p4835
g2
tp4836
I7
s(S'beautiful'
p4837
g2
tp4838
I11
s(S'grown-up'
p4839
g2
tp4840
I8
s(S'influential'
p4841
g2
tp4842
I7
s(S'info'
p4843
g28
tp4844
I7
s(S'associate'
p4845
g28
tp4846
I8
s(S'responsible'
p4847
g2
tp4848
I8
s(S'rear'
p4849
g2
tp4850
I7
s(S'airlines'
p4851
g57
tp4852
I7
s(S'multiple'
p4853
g2
tp4854
I13
s(S'regular'
p4855
g2
tp4856
I16
s(S'additional'
p4857
g2
tp4858
I23
s(S'alternatives'
p4859
g57
tp4860
I7
s(S'engineers'
p4861
g57
tp4862
I8
s(S'summer'
p4863
g2
tp4864
I7
s(S'stay-at-home'
p4865
g2
tp4866
I7
s(S'instant'
p4867
g2
tp4868
I8
s(S'worse'
p4869
g2
tp4870
I7
s(S'poor'
p4871
g2
tp4872
I71
s(S'Hires'
p4873
g57
tp4874
I7
s(S'-Positive'
p4875
g2
tp4876
I7
s(S'run'
p4877
g28
tp4878
I7
s(S'center'
p4879
g28
tp4880
I9
s(S'uncollaborative'
p4881
g2
tp4882
I7
s(S'on-site'
p4883
g2
tp4884
I11
s(S'changing'
p4885
g28
tp4886
I8
s(S'sexual'
p4887
g2
tp4888
I7
s(S'creativity'
p4889
g28
tp4890
I9
s(S'non-revenue'
p4891
g2
tp4892
I7
s(S'really'
p4893
g11
tp4894
I114
s(S'also'
p4895
g11
tp4896
I49
s(S'useful'
p4897
g2
tp4898
I11
s(S'hell'
p4899
g11
tp4900
I7
s(S'environments'
p4901
g57
tp4902
I7
s(S'vastly'
p4903
g11
tp4904
I7
s(S"'as"
p4905
g2
tp4906
I7
s(S'second-level'
p4907
g2
tp4908
I7
s(S'isnt'
p4909
g28
tp4910
I7
s(S'willing'
p4911
g2
tp4912
I7
s(S'care'
p4913
g28
tp4914
I8
s(S'greedy'
p4915
g2
tp4916
I7
s(S'load'
p4917
g2
tp4918
I7
s(S'visual'
p4919
g2
tp4920
I7
s(S'fast-paced'
p4921
g2
tp4922
I7
s(S'Family'
p4923
g11
tp4924
I10
s(S'engineer'
p4925
g28
tp4926
I13
s(S"gov't"
p4927
g2
tp4928
I7
s(S'opportunites'
p4929
g57
tp4930
I8
s(S'ultimately'
p4931
g11
tp4932
I7
s(S'Long-term'
p4933
g2
tp4934
I7
s(S'poisonous'
p4935
g2
tp4936
I7
s(S'international'
p4937
g2
tp4938
I64
s(S'Lean'
p4939
g2
tp4940
I7
s(S'corporate'
p4941
g2
tp4942
I108
s(S'-White'
p4943
g2
tp4944
I7
s(S'..come'
p4945
g2
tp4946
I7
s(S'sneaky'
p4947
g2
tp4948
I7
s(S'originally'
p4949
g11
tp4950
I8
s(S'political'
p4951
g2
tp4952
I40
s(S'-Significant'
p4953
g2
tp4954
I8
s(S'direct'
p4955
g2
tp4956
I24
s(S'okay'
p4957
g28
tp4958
I7
s(S're-adapt'
p4959
g2
tp4960
I7
s(S'afraid'
p4961
g2
tp4962
I7
s(S'non-profit'
p4963
g2
tp4964
I7
s(S'aviation'
p4965
g28
tp4966
I7
s(S'fellow'
p4967
g2
tp4968
I9
s(S'badly'
p4969
g11
tp4970
I7
s(S'outrageous'
p4971
g2
tp4972
I7
s(S'essentially'
p4973
g11
tp4974
I7
s(S'location'
p4975
g28
tp4976
I10
s(S'undertsandable'
p4977
g2
tp4978
I7
s(S'unique'
p4979
g2
tp4980
I8
s(S'prime'
p4981
g2
tp4982
I7
s(S'banking'
p4983
g28
tp4984
I7
s(S'clueless'
p4985
g28
tp4986
I7
s(S'power'
p4987
g28
tp4988
I8
s(S'diminshed'
p4989
g2
tp4990
I7
s(S'basic'
p4991
g2
tp4992
I18
s(S'inferior'
p4993
g2
tp4994
I7
s(S'lags'
p4995
g57
tp4996
I8
s(S'charitable'
p4997
g2
tp4998
I9
s(S'innovation'
p4999
g28
tp5000
I8
s(S'throughbe'
p5001
g28
tp5002
I7
s(S'monetary'
p5003
g2
tp5004
I11
s(S'Newly'
p5005
g11
tp5006
I8
s(S'concerns'
p5007
g57
tp5008
I7
s(S'far'
p5009
g11
tp5010
I13
s(S'.but'
p5011
g2
tp5012
I8
s(S'cheap'
p5013
g28
tp5014
I7
s(S'outsourcing'
p5015
g28
tp5016
I7
s(S'More'
p5017
g136
tp5018
I12
s(S'ugly'
p5019
g11
tp5020
I7
s(S'competitors'
p5021
g57
tp5022
I10
s(S'give'
p5023
g2
tp5024
I7
s(S'material'
p5025
g28
tp5026
I7
s(S'golden'
p5027
g2
tp5028
I8
s(S'electrical'
p5029
g2
tp5030
I7
s(S'b'
p5031
g11
tp5032
I7
s(S'female'
p5033
g2
tp5034
I7
s(S"'every"
p5035
g2
tp5036
I7
s(S'drastic'
p5037
g2
tp5038
I7
s(S'driven'
p5039
g2
tp5040
I7
s(S'Fantastic'
p5041
g2
tp5042
I20
s(S'ill'
p5043
g11
tp5044
I7
s(S'instead'
p5045
g11
tp5046
I8
s(S'Recently'
p5047
g11
tp5048
I7
s(S'superior'
p5049
g2
tp5050
I10
s(S'questionable'
p5051
g2
tp5052
I7
s(S'employee'
p5053
g28
tp5054
I14
s(S'fast'
p5055
g2
tp5056
I17
s(S'practical'
p5057
g2
tp5058
I8
s(S'first'
p5059
g2
tp5060
I47
s(S'-Product-driven'
p5061
g2
tp5062
I7
s(S'mile'
p5063
g2
tp5064
I7
s(S'not-so-great'
p5065
g2
tp5066
I7
s(S'isolation'
p5067
g28
tp5068
I7
s(S'hang'
p5069
g2
tp5070
I7
s(S'commonly'
p5071
g11
tp5072
I7
s(S'extreme'
p5073
g28
tp5074
I7
s(S'completely'
p5075
g11
tp5076
I22
s(S"'one"
p5077
g2
tp5078
I7
s(S'accounting'
p5079
g28
tp5080
I8
s(S'projects/client/internal'
p5081
g2
tp5082
I7
s(S'line'
p5083
g2
tp5084
I7
s(S'progress'
p5085
g28
tp5086
I8
s(S'-Numerous'
p5087
g2
tp5088
I7
s(S'office-based'
p5089
g2
tp5090
I7
s(S'seemingly'
p5091
g11
tp5092
I7
s(S'back-stabbing'
p5093
g2
tp5094
I7
s(S'frustratingly'
p5095
g11
tp5096
I7
s(S'sometime'
p5097
g11
tp5098
I7
s(S'-On'
p5099
g2
tp5100
I7
s(S'hands-on'
p5101
g2
tp5102
I10
s(S'radical'
p5103
g2
tp5104
I7
s(S'non-core'
p5105
g2
tp5106
I7
s(S'Acceptable'
p5107
g2
tp5108
I7
s(S'weekends'
p5109
g57
tp5110
I8
s(S'painless'
p5111
g28
tp5112
I7
s(S'vision'
p5113
g28
tp5114
I7
s(S'ground'
p5115
g28
tp5116
I7
s(S'ethical'
p5117
g2
tp5118
I11
s(S'atmospher'
p5119
g28
tp5120
I7
s(S'Best-performing'
p5121
g2
tp5122
I7
s(S'company'
p5123
g28
tp5124
I93
s(S'positions'
p5125
g57
tp5126
I7
s(S'non-existent'
p5127
g2
tp5128
I8
s(S'management'
p5129
g28
tp5130
I34
s(S'work/home'
p5131
g2
tp5132
I7
s(S'layoffs'
p5133
g57
tp5134
I7
s(S'semi-virtual'
p5135
g2
tp5136
I7
s(S'well-developed'
p5137
g2
tp5138
I7
s(S'Under-appreciated'
p5139
g2
tp5140
I7
s(S'Added'
p5141
g2
tp5142
I7
s(S'folks'
p5143
g57
tp5144
I7
s(S'name'
p5145
g28
tp5146
I9
s(S'Merit-based'
p5147
g2
tp5148
I8
s(S'4-day'
p5149
g2
tp5150
I8
s(S'headquarters'
p5151
g57
tp5152
I7
s(S'accountant'
p5153
g28
tp5154
I7
s(S'set'
p5155
g28
tp5156
I7
s(S'lot'
p5157
g28
tp5158
I10
s(S'often'
p5159
g11
tp5160
I51
s(S'teams'
p5161
g57
tp5162
I9
s(S'-Generally'
p5163
g11
tp5164
I7
s(S'acceleration'
p5165
g28
tp5166
I7
s(S'Benefits'
p5167
g57
tp5168
I8
s(S'wing'
p5169
g28
tp5170
I7
s(S'in-house'
p5171
g2
tp5172
I9
s(S'rarely'
p5173
g11
tp5174
I16
s(S'ta'
p5175
g28
tp5176
I7
s(S'training'
p5177
g28
tp5178
I15
s(S"'open"
p5179
g2
tp5180
I7
s(S'particular'
p5181
g2
tp5182
I13
s(S'maybe'
p5183
g11
tp5184
I7
s(S'true'
p5185
g2
tp5186
I21
s(S'technically'
p5187
g11
tp5188
I8
s(S'integrated'
p5189
g2
tp5190
I9
s(S'load'
p5191
g28
tp5192
I7
s(S'slave'
p5193
g2
tp5194
I7
s(S'process'
p5195
g28
tp5196
I14
s(S'supportive'
p5197
g2
tp5198
I26
s(S'networks'
p5199
g57
tp5200
I7
s(S'as'
p5201
g11
tp5202
I17
s(S'sabbatical'
p5203
g2
tp5204
I7
s(S'dramatically'
p5205
g11
tp5206
I7
s(S'littile'
p5207
g2
tp5208
I7
s(S'job'
p5209
g28
tp5210
I21
s(S'walls'
p5211
g57
tp5212
I7
s(S'Preferential'
p5213
g2
tp5214
I7
s.