(dp0
(S'functional'
p1
S'JJ'
p2
tp3
(lp4
I1
aI2
aI2
as(S'actually'
p5
S'RB'
p6
tp7
(lp8
I1
aI5
aI2
as(S'rapid'
p9
g2
tp10
(lp11
I1
aI1
aI2
as(S'Stable'
p12
g2
tp13
(lp14
I1
aI1
aI2
as(S'reviews'
p15
S'NNS'
p16
tp17
(lp18
I1
aI2
aI1
as(S'up-or-out'
p19
g2
tp20
(lp21
I1
aI2
aI1
as(S'usual'
p22
g2
tp23
(lp24
I1
aI1
aI2
as(S'internally'
p25
g6
tp26
(lp27
I1
aI2
aI1
as(S'diverse'
p28
g2
tp29
(lp30
I1
aI3
aI5
as(S'straight'
p31
g2
tp32
(lp33
I1
aI3
aI1
as(S'weak'
p34
g2
tp35
(lp36
I1
aI2
aI1
as(S'young'
p37
g2
tp38
(lp39
I1
aI2
aI6
as(S'level'
p40
S'NN'
p41
tp42
(lp43
I1
aI2
aI1
as(S'truthful'
p44
g2
tp45
(lp46
I1
aI2
aI1
as(S'merit'
p47
g41
tp48
(lp49
I1
aI2
aI1
as(S'previous'
p50
g2
tp51
(lp52
I1
aI2
aI1
as(S'auto'
p53
g41
tp54
(lp55
I1
aI1
aI2
as(S'wide'
p56
g2
tp57
(lp58
I1
aI1
aI4
as(S'moral'
p59
g2
tp60
(lp61
I1
aI2
aI1
as(S'already'
p62
g6
tp63
(lp64
I1
aI6
aI1
as(S'back-office'
p65
g2
tp66
(lp67
I1
aI2
aI1
as(S'collegial'
p68
g2
tp69
(lp70
I1
aI1
aI2
as(S'interactions'
p71
g16
tp72
(lp73
I1
aI1
aI3
as(S'leads.Your'
p74
g2
tp75
(lp76
I1
aI2
aI1
as(S'unresponsive/'
p77
g2
tp78
(lp79
I1
aI2
aI1
as(S'unnecessary'
p80
g2
tp81
(lp82
I1
aI2
aI1
as(S'atmosphere'
p83
g6
tp84
(lp85
I1
aI1
aI2
as(S'geographically'
p86
g6
tp87
(lp88
I1
aI2
aI1
as(S'+Strong'
p89
g2
tp90
(lp91
I1
aI1
aI2
as(S'small'
p92
g2
tp93
(lp94
I1
aI3
aI3
as(S'hunky'
p95
g2
tp96
(lp97
I1
aI2
aI1
as(S'likely'
p98
g2
tp99
(lp100
I1
aI3
aI1
as(S'longtime'
p101
g2
tp102
(lp103
I1
aI2
aI1
as(S'innovative'
p104
g2
tp105
(lp106
I1
aI3
aI3
as(S'happene'
p107
g41
tp108
(lp109
I1
aI2
aI1
as(S'his/her'
p110
g2
tp111
(lp112
I1
aI2
aI1
as(S'bureaucratic'
p113
g2
tp114
(lp115
I1
aI4
aI1
as(S'downhill'
p116
g6
tp117
(lp118
I1
aI2
aI1
as(S'poorly'
p119
g6
tp120
(lp121
I1
aI9
aI1
as(S'economic'
p122
g2
tp123
(lp124
I1
aI3
aI1
as(S'military'
p125
g2
tp126
(lp127
I1
aI3
aI1
as(S'manageable'
p128
g2
tp129
(lp130
I1
aI1
aI2
as(S'exercise'
p131
g41
tp132
(lp133
I1
aI1
aI2
as(S'independent'
p134
g2
tp135
(lp136
I1
aI2
aI1
as(S'world-class'
p137
g2
tp138
(lp139
I1
aI1
aI2
as(S'mentally'
p140
g6
tp141
(lp142
I1
aI2
aI1
as(S'casual'
p143
g2
tp144
(lp145
I1
aI1
aI4
as(S'concrete'
p146
g2
tp147
(lp148
I1
aI2
aI1
as(S'Ridiculous'
p149
g2
tp150
(lp151
I1
aI2
aI1
as(S'mobile'
p152
g2
tp153
(lp154
I1
aI2
aI1
as(S'toxic'
p155
g2
tp156
(lp157
I1
aI2
aI1
as(S'hours/more'
p158
g2
tp159
(lp160
I1
aI2
aI1
as(S'officially'
p161
g6
tp162
(lp163
I1
aI2
aI1
as(S'forward'
p164
g6
tp165
(lp166
I1
aI1
aI2
as(S'outstanding'
p167
g2
tp168
(lp169
I1
aI2
aI2
as(S'Still'
p170
g6
tp171
(lp172
I1
aI2
aI1
as(S'direction'
p173
g41
tp174
(lp175
I1
aI2
aI1
as(S'prospective'
p176
g2
tp177
(lp178
I1
aI2
aI1
as(S'cardinal'
p179
g2
tp180
(lp181
I1
aI1
aI2
as(S'non-diverse'
p182
g2
tp183
(lp184
I1
aI2
aI1
as(S'cafeteria'
p185
g41
tp186
(lp187
I1
aI1
aI2
as(S'centrally'
p188
g6
tp189
(lp190
I1
aI1
aI2
as(S'more'
p191
S'RBR'
p192
tp193
(lp194
I1
aI14
aI4
as(S'push'
p195
g2
tp196
(lp197
I1
aI2
aI1
as(S'now'
p198
g6
tp199
(lp200
I1
aI9
aI1
as(S'unfair'
p201
g2
tp202
(lp203
I1
aI3
aI1
as(S'favours'
p204
g16
tp205
(lp206
I1
aI1
aI2
as(S'Many'
p207
g2
tp208
(lp209
I1
aI11
aI4
as(S'-HR'
p210
g2
tp211
(lp212
I1
aI2
aI1
as(S'Company-wide'
p213
g2
tp214
(lp215
I1
aI2
aI1
as(S'single'
p216
g2
tp217
(lp218
I1
aI6
aI1
as(S'red'
p219
g2
tp220
(lp221
I1
aI2
aI1
as(S'plants'
p222
g16
tp223
(lp224
I1
aI1
aI2
as(S'skilled'
p225
g2
tp226
(lp227
I1
aI2
aI1
as(S'-Massive'
p228
g2
tp229
(lp230
I1
aI2
aI1
as(S'arrogance'
p231
g41
tp232
(lp233
I1
aI2
aI1
as(S'little'
p234
g2
tp235
(lp236
I1
aI26
aI3
as(S'mental'
p237
g2
tp238
(lp239
I1
aI3
aI2
as(S'seasonal'
p240
g2
tp241
(lp242
I1
aI3
aI1
as(S'numbingly'
p243
g6
tp244
(lp245
I1
aI3
aI1
as(S'common'
p246
g2
tp247
(lp248
I1
aI5
aI1
as(S'solid'
p249
g2
tp250
(lp251
I1
aI1
aI4
as(S'level,'
p252
g41
tp253
(lp254
I1
aI1
aI2
as(S'-For'
p255
g41
tp256
(lp257
I1
aI3
aI1
as(S'middle'
p258
g2
tp259
(lp260
I1
aI7
aI1
as(S'dependable'
p261
g2
tp262
(lp263
I1
aI1
aI2
as(S'pretty'
p264
g6
tp265
(lp266
I1
aI6
aI5
as(S'prisoner'
p267
g41
tp268
(lp269
I1
aI2
aI1
as(S'social'
p270
g2
tp271
(lp272
I1
aI2
aI3
as(S'On-site'
p273
g2
tp274
(lp275
I1
aI1
aI2
as(S'sky-high'
p276
g2
tp277
(lp278
I1
aI2
aI1
as(S'barely'
p279
g6
tp280
(lp281
I1
aI3
aI1
as(S'locations'
p282
g16
tp283
(lp284
I1
aI1
aI2
as(S'5-point'
p285
g2
tp286
(lp287
I1
aI3
aI1
as(S'forced'
p288
g2
tp289
(lp290
I1
aI2
aI1
as(S'Local'
p291
g2
tp292
(lp293
I1
aI1
aI2
as(S'overworked'
p294
g2
tp295
(lp296
I1
aI2
aI1
as(S'Generous'
p297
g2
tp298
(lp299
I1
aI1
aI2
as(S'minimum'
p300
g2
tp301
(lp302
I1
aI8
aI2
as(S'third'
p303
g2
tp304
(lp305
I1
aI3
aI1
as(S'usually'
p306
g6
tp307
(lp308
I1
aI2
aI2
as(S'executive/technical'
p309
g2
tp310
(lp311
I1
aI2
aI1
as(S'decidedly'
p312
g6
tp313
(lp314
I1
aI2
aI1
as(S'pretentious'
p315
g2
tp316
(lp317
I1
aI1
aI2
as(S'outside'
p318
g2
tp319
(lp320
I1
aI1
aI2
as(S'serious'
p321
g2
tp322
(lp323
I1
aI2
aI1
as(S'local'
p324
g2
tp325
(lp326
I1
aI9
aI4
as(S'hard'
p327
g2
tp328
(lp329
I1
aI13
aI4
as(S'past'
p330
g2
tp331
(lp332
I1
aI3
aI2
as(S'educational'
p333
g2
tp334
(lp335
I1
aI2
aI2
as(S'sensitive'
p336
g2
tp337
(lp338
I1
aI2
aI1
as(S')'
p339
g41
tp340
(lp341
I1
aI4
aI1
as(S'work'
p342
g41
tp343
(lp344
I1
aI7
aI2
as(S'region'
p345
g41
tp346
(lp347
I1
aI1
aI2
as(S'assistant'
p348
g2
tp349
(lp350
I1
aI2
aI1
as(S'appeal'
p351
g41
tp352
(lp353
I1
aI2
aI1
as(S'value'
p354
g41
tp355
(lp356
I1
aI1
aI2
as(S'+Industry'
p357
g2
tp358
(lp359
I1
aI1
aI2
as(S'Formal'
p360
g2
tp361
(lp362
I1
aI2
aI1
as(S'visible'
p363
g2
tp364
(lp365
I1
aI2
aI1
as(S'important'
p366
g2
tp367
(lp368
I1
aI3
aI2
as(S'fact'
p369
g41
tp370
(lp371
I1
aI1
aI2
as(S'own'
p372
g2
tp373
(lp374
I1
aI22
aI12
as(S'-Little'
p375
g2
tp376
(lp377
I1
aI2
aI1
as(S'audit'
p378
g41
tp379
(lp380
I1
aI1
aI3
as(S'ineffective'
p381
g2
tp382
(lp383
I1
aI2
aI1
as(S'Free-Fire'
p384
g2
tp385
(lp386
I1
aI2
aI1
as(S'incredible'
p387
g2
tp388
(lp389
I1
aI1
aI4
as(S'leave'
p390
g41
tp391
(lp392
I1
aI2
aI1
as(S'appropriate'
p393
g2
tp394
(lp395
I1
aI2
aI1
as(S'informal'
p396
g2
tp397
(lp398
I1
aI1
aI2
as(S'vacant'
p399
g2
tp400
(lp401
I1
aI2
aI1
as(S'High'
p402
g2
tp403
(lp404
I1
aI12
aI3
as(S'cut-throat'
p405
g2
tp406
(lp407
I1
aI2
aI1
as(S'tough'
p408
g2
tp409
(lp410
I1
aI2
aI1
as(S'subtly'
p411
g6
tp412
(lp413
I1
aI2
aI1
as(S'C-level'
p414
g2
tp415
(lp416
I1
aI2
aI1
as(S'opportunties'
p417
g16
tp418
(lp419
I1
aI1
aI2
as(S'emotional'
p420
g2
tp421
(lp422
I1
aI3
aI1
as(S'-Slow'
p423
g2
tp424
(lp425
I1
aI2
aI1
as(S'future'
p426
g41
tp427
(lp428
I1
aI2
aI1
as(S'rich'
p429
g2
tp430
(lp431
I1
aI2
aI4
as(S'promotion/'
p432
g2
tp433
(lp434
I1
aI2
aI1
as(S'ludicrous'
p435
g2
tp436
(lp437
I1
aI2
aI1
as(S'undue'
p438
g2
tp439
(lp440
I1
aI2
aI1
as(S'products'
p441
g16
tp442
(lp443
I1
aI1
aI4
as(S'Flexiable'
p444
g2
tp445
(lp446
I1
aI1
aI2
as(S'out-sourcing'
p447
g2
tp448
(lp449
I1
aI2
aI1
as(S"'every"
p450
g2
tp451
(lp452
I1
aI2
aI1
as(S'schedules'
p453
g16
tp454
(lp455
I1
aI1
aI4
as(S'respect'
p456
g41
tp457
(lp458
I1
aI1
aI2
as(S'worth'
p459
g2
tp460
(lp461
I1
aI4
aI3
as(S'projects'
p462
g16
tp463
(lp464
I1
aI2
aI2
as(S'overburdened'
p465
g2
tp466
(lp467
I1
aI2
aI1
as(S'optical'
p468
g2
tp469
(lp470
I1
aI1
aI2
as(S'wasteful'
p471
g2
tp472
(lp473
I1
aI4
aI1
as(S'Political'
p474
g2
tp475
(lp476
I1
aI2
aI1
as(S'Engineering/Manufacturing'
p477
g2
tp478
(lp479
I1
aI2
aI1
as(S'free'
p480
g2
tp481
(lp482
I1
aI1
aI15
as(S'however'
p483
g6
tp484
(lp485
I1
aI1
aI2
as(S'morale'
p486
g41
tp487
(lp488
I1
aI3
aI1
as(S'selfishly'
p489
g6
tp490
(lp491
I1
aI2
aI1
as(S'serial'
p492
g2
tp493
(lp494
I1
aI3
aI1
as(S'former'
p495
g2
tp496
(lp497
I1
aI3
aI1
as(S'major'
p498
g2
tp499
(lp500
I1
aI4
aI3
as(S'time/effort'
p501
g2
tp502
(lp503
I1
aI2
aI1
as(S'electric'
p504
g2
tp505
(lp506
I1
aI2
aI1
as(S'clear'
p507
g2
tp508
(lp509
I1
aI6
aI1
as(S'Competitive'
p510
g2
tp511
(lp512
I1
aI1
aI3
as(S'rigid'
p513
g2
tp514
(lp515
I1
aI2
aI1
as(S'above'
p516
g2
tp517
(lp518
I1
aI2
aI1
as(S'solely'
p519
g6
tp520
(lp521
I1
aI2
aI1
as(S'tuition'
p522
g41
tp523
(lp524
I1
aI2
aI1
as(S'oil/energy'
p525
g2
tp526
(lp527
I1
aI2
aI1
as(S'exceptional'
p528
g2
tp529
(lp530
I1
aI2
aI2
as(S'open-door'
p531
g2
tp532
(lp533
I1
aI2
aI1
as(S'full'
p534
g2
tp535
(lp536
I1
aI7
aI2
as(S'endless'
p537
g2
tp538
(lp539
I1
aI2
aI1
as(S'financially'
p540
g6
tp541
(lp542
I1
aI2
aI1
as(S'objective'
p543
g2
tp544
(lp545
I1
aI2
aI1
as(S'line'
p546
g41
tp547
(lp548
I1
aI3
aI1
as(S'here'
p549
g6
tp550
(lp551
I1
aI2
aI1
as(S'pony'
p552
g41
tp553
(lp554
I1
aI2
aI1
as(S'borderline'
p555
g41
tp556
(lp557
I1
aI2
aI1
as(S'massive'
p558
g2
tp559
(lp560
I1
aI5
aI1
as(S'exact'
p561
g2
tp562
(lp563
I1
aI2
aI1
as(S'-Work/Life'
p564
g2
tp565
(lp566
I1
aI3
aI1
as(S'directors'
p567
g16
tp568
(lp569
I1
aI4
aI1
as(S'hard-working'
p570
g2
tp571
(lp572
I1
aI3
aI2
as(S'entirely'
p573
g6
tp574
(lp575
I1
aI3
aI1
as(S'teamwork'
p576
g41
tp577
(lp578
I1
aI2
aI1
as(S'aerospace'
p579
g41
tp580
(lp581
I1
aI1
aI2
as(S'cleverly'
p582
g6
tp583
(lp584
I1
aI2
aI1
as(S'Professional'
p585
g2
tp586
(lp587
I1
aI3
aI3
as(S'constructive'
p588
g2
tp589
(lp590
I1
aI2
aI1
as(S'badly'
p591
g6
tp592
(lp593
I1
aI2
aI1
as(S'consultants'
p594
g16
tp595
(lp596
I1
aI2
aI1
as(S'dysfunctional'
p597
g2
tp598
(lp599
I1
aI5
aI1
as(S'almost'
p600
g6
tp601
(lp602
I1
aI6
aI2
as(S'extensive'
p603
g2
tp604
(lp605
I1
aI2
aI1
as(S'Managers/Senior'
p606
g2
tp607
(lp608
I1
aI2
aI1
as(S'firmly'
p609
g6
tp610
(lp611
I1
aI2
aI1
as(S'second'
p612
g2
tp613
(lp614
I1
aI3
aI1
as(S'high-ranking'
p615
g2
tp616
(lp617
I1
aI1
aI2
as(S'progressive'
p618
g2
tp619
(lp620
I1
aI2
aI2
as(S'impressive'
p621
g2
tp622
(lp623
I1
aI3
aI1
as(S'Unmatched'
p624
g2
tp625
(lp626
I1
aI1
aI2
as(S'due'
p627
g2
tp628
(lp629
I1
aI3
aI1
as(S'WORK-LIFE'
p630
g2
tp631
(lp632
I1
aI2
aI1
as(S'green'
p633
g2
tp634
(lp635
I1
aI2
aI1
as(S'Ineffective'
p636
g2
tp637
(lp638
I1
aI2
aI1
as(S'improvement'
p639
g41
tp640
(lp641
I1
aI5
aI1
as(S'contractor'
p642
g41
tp643
(lp644
I1
aI2
aI1
as(S'immediate'
p645
g2
tp646
(lp647
I1
aI2
aI3
as(S'possible'
p648
g2
tp649
(lp650
I1
aI3
aI1
as(S'..the'
p651
g2
tp652
(lp653
I1
aI2
aI1
as(S'bean'
p654
g2
tp655
(lp656
I1
aI2
aI1
as(S'drastically'
p657
g6
tp658
(lp659
I1
aI2
aI1
as(S'reasonable'
p660
g2
tp661
(lp662
I1
aI1
aI2
as(S'resume'
p663
g41
tp664
(lp665
I1
aI1
aI6
as(S'always'
p666
g6
tp667
(lp668
I1
aI15
aI5
as(S'hard'
p669
g6
tp670
(lp671
I1
aI3
aI2
as(S'cubical'
p672
g2
tp673
(lp674
I1
aI2
aI1
as(S'years'
p675
g16
tp676
(lp677
I1
aI4
aI2
as(S'prolly'
p678
g6
tp679
(lp680
I1
aI2
aI1
as(S'awful'
p681
g2
tp682
(lp683
I1
aI2
aI2
as(S'expensive'
p684
g2
tp685
(lp686
I1
aI2
aI1
as(S'various'
p687
g2
tp688
(lp689
I1
aI3
aI10
as(S'healthy'
p690
g2
tp691
(lp692
I1
aI1
aI2
as(S'growth'
p693
g41
tp694
(lp695
I1
aI7
aI2
as(S'Distinct'
p696
g2
tp697
(lp698
I1
aI2
aI1
as(S'motivational'
p699
g2
tp700
(lp701
I1
aI2
aI1
as(S'well-run'
p702
g2
tp703
(lp704
I1
aI1
aI2
as(S'term'
p705
g2
tp706
(lp707
I1
aI2
aI1
as(S'disciplines'
p708
g16
tp709
(lp710
I1
aI1
aI2
as(S'dictatorial'
p711
g2
tp712
(lp713
I1
aI2
aI1
as(S'Hypercritical'
p714
g2
tp715
(lp716
I1
aI2
aI1
as(S'insiders'
p717
g16
tp718
(lp719
I1
aI1
aI2
as(S'real'
p720
g2
tp721
(lp722
I1
aI16
aI1
as(S'alternative'
p723
g2
tp724
(lp725
I1
aI2
aI1
as(S'funny'
p726
g2
tp727
(lp728
I1
aI3
aI1
as(S'and/or'
p729
g2
tp730
(lp731
I1
aI3
aI1
as(S'submission'
p732
g41
tp733
(lp734
I1
aI3
aI1
as(S'd'
p735
g41
tp736
(lp737
I1
aI2
aI1
as(S'federal'
p738
g2
tp739
(lp740
I1
aI3
aI1
as(S'secretive'
p741
g2
tp742
(lp743
I1
aI2
aI1
as(S'undergraduate'
p744
g2
tp745
(lp746
I1
aI1
aI2
as(S'lasting'
p747
g2
tp748
(lp749
I1
aI2
aI1
as(S'false'
p750
g2
tp751
(lp752
I1
aI2
aI1
as(S'rotational'
p753
g2
tp754
(lp755
I1
aI2
aI1
as(S'experienced'
p756
g2
tp757
(lp758
I1
aI3
aI1
as(S'key'
p759
g2
tp760
(lp761
I1
aI4
aI1
as(S'stable'
p762
g2
tp763
(lp764
I1
aI1
aI5
as(S'decent'
p765
g2
tp766
(lp767
I1
aI1
aI4
as(S'administrative'
p768
g2
tp769
(lp770
I1
aI2
aI1
as(S'things'
p771
g16
tp772
(lp773
I1
aI3
aI2
as(S'appreciated,'
p774
g2
tp775
(lp776
I1
aI2
aI1
as(S"'corporate"
p777
g2
tp778
(lp779
I1
aI2
aI1
as(S'manual'
p780
g2
tp781
(lp782
I1
aI2
aI1
as(S'market'
p783
g41
tp784
(lp785
I1
aI1
aI2
as(S'sad'
p786
g2
tp787
(lp788
I1
aI2
aI1
as(S'slowly'
p789
g6
tp790
(lp791
I1
aI2
aI1
as(S'fully'
p792
g6
tp793
(lp794
I1
aI3
aI1
as(S'ALWAYS'
p795
g6
tp796
(lp797
I1
aI2
aI1
as(S'unrealistic'
p798
g2
tp799
(lp800
I1
aI4
aI1
as(S'expenses'
p801
g16
tp802
(lp803
I1
aI2
aI1
as(S'-Poor'
p804
g2
tp805
(lp806
I1
aI3
aI1
as(S'variable'
p807
g2
tp808
(lp809
I1
aI4
aI1
as(S'5th'
p810
g2
tp811
(lp812
I1
aI3
aI1
as(S'advancement'
p813
g41
tp814
(lp815
I1
aI1
aI2
as(S'virtually'
p816
g6
tp817
(lp818
I1
aI2
aI1
as(S'steal'
p819
g2
tp820
(lp821
I1
aI2
aI1
as(S'Mostly'
p822
g6
tp823
(lp824
I1
aI1
aI2
as(S'caustic'
p825
g2
tp826
(lp827
I1
aI3
aI1
as(S'gas'
p828
g41
tp829
(lp830
I1
aI1
aI2
as(S'Executive'
p831
g2
tp832
(lp833
I1
aI5
aI1
as(S'firm'
p834
g41
tp835
(lp836
I1
aI2
aI3
as(S'typical'
p837
g2
tp838
(lp839
I1
aI2
aI1
as(S'premier'
p840
g2
tp841
(lp842
I1
aI1
aI2
as(S'disposable'
p843
g2
tp844
(lp845
I1
aI3
aI1
as(S'busy'
p846
g2
tp847
(lp848
I1
aI6
aI3
as(S'less'
p849
g192
tp850
(lp851
I1
aI2
aI1
as(S'global'
p852
g2
tp853
(lp854
I1
aI5
aI11
as(S'minimal'
p855
g2
tp856
(lp857
I1
aI3
aI1
as(S'managment'
p858
g41
tp859
(lp860
I1
aI2
aI1
as(S'unpleasant'
p861
g2
tp862
(lp863
I1
aI2
aI1
as(S'personal'
p864
g2
tp865
(lp866
I1
aI17
aI5
as(S'coworkers'
p867
g16
tp868
(lp869
I1
aI1
aI2
as(S'internal'
p870
g2
tp871
(lp872
I1
aI14
aI2
as(S'opposite'
p873
g41
tp874
(lp875
I1
aI2
aI1
as(S'firms'
p876
g16
tp877
(lp878
I1
aI2
aI1
as(S'happy'
p879
g2
tp880
(lp881
I1
aI5
aI1
as(S'one-way'
p882
g2
tp883
(lp884
I1
aI2
aI1
as(S'someone'
p885
g41
tp886
(lp887
I1
aI2
aI1
as(S'banker'
p888
g41
tp889
(lp890
I1
aI2
aI1
as(S'feel'
p891
g41
tp892
(lp893
I1
aI1
aI2
as(S'politically'
p894
g6
tp895
(lp896
I1
aI4
aI1
as(S'platform'
p897
g41
tp898
(lp899
I1
aI2
aI1
as(S'-Arrogant'
p900
g2
tp901
(lp902
I1
aI2
aI1
as(S'customer'
p903
g41
tp904
(lp905
I1
aI2
aI2
as(S'all'
p906
g6
tp907
(lp908
I1
aI2
aI1
as(S'necessary'
p909
g2
tp910
(lp911
I1
aI3
aI2
as(S'primarily'
p912
g6
tp913
(lp914
I1
aI2
aI1
as(S'literally'
p915
g6
tp916
(lp917
I1
aI3
aI1
as(S'fields'
p918
g16
tp919
(lp920
I1
aI2
aI1
as(S'th'
p921
g41
tp922
(lp923
I1
aI2
aI1
as(S'overall'
p924
g2
tp925
(lp926
I1
aI5
aI1
as(S'mid'
p927
g2
tp928
(lp929
I1
aI2
aI1
as(S'work-life'
p930
g2
tp931
(lp932
I1
aI6
aI3
as(S'unpractical'
p933
g2
tp934
(lp935
I1
aI2
aI1
as(S'constantly'
p936
g6
tp937
(lp938
I1
aI8
aI1
as(S'absolute'
p939
g2
tp940
(lp941
I1
aI4
aI1
as(S'other'
p942
g2
tp943
(lp944
I1
aI55
aI27
as(S'egregious'
p945
g2
tp946
(lp947
I1
aI2
aI1
as(S'away'
p948
g6
tp949
(lp950
I1
aI2
aI1
as(S'fast'
p951
g2
tp952
(lp953
I1
aI4
aI1
as(S'right'
p954
g6
tp955
(lp956
I1
aI1
aI2
as(S'basically'
p957
g6
tp958
(lp959
I1
aI6
aI1
as(S'lifelong'
p960
g2
tp961
(lp962
I1
aI1
aI3
as(S'trash'
p963
g41
tp964
(lp965
I1
aI2
aI1
as(S'expectations'
p966
g16
tp967
(lp968
I1
aI2
aI1
as(S'cold-calling'
p969
g2
tp970
(lp971
I1
aI2
aI1
as(S'Once'
p972
g6
tp973
(lp974
I1
aI2
aI1
as(S'graduated'
p975
g2
tp976
(lp977
I1
aI2
aI1
as(S'year'
p978
g41
tp979
(lp980
I1
aI4
aI3
as(S'lateral'
p981
g2
tp982
(lp983
I1
aI3
aI1
as(S'insecurity'
p984
g41
tp985
(lp986
I1
aI2
aI1
as(S'opportunity'
p987
g41
tp988
(lp989
I1
aI3
aI2
as(S'fat'
p990
g2
tp991
(lp992
I1
aI2
aI1
as(S're-org'
p993
g2
tp994
(lp995
I1
aI2
aI1
as(S'myopically'
p996
g6
tp997
(lp998
I1
aI2
aI1
as(S'loyal'
p999
g2
tp1000
(lp1001
I1
aI2
aI1
as(S'cross-functional'
p1002
g2
tp1003
(lp1004
I1
aI2
aI1
as(S'in-demand'
p1005
g2
tp1006
(lp1007
I1
aI2
aI1
as(S'mid-lower'
p1008
g2
tp1009
(lp1010
I1
aI2
aI1
as(S'salaries'
p1011
g16
tp1012
(lp1013
I1
aI1
aI3
as(S'thoughtful'
p1014
g2
tp1015
(lp1016
I1
aI2
aI1
as(S'recallable'
p1017
g2
tp1018
(lp1019
I1
aI2
aI1
as(S'support'
p1020
g41
tp1021
(lp1022
I1
aI3
aI1
as(S"gov't"
p1023
g2
tp1024
(lp1025
I1
aI2
aI1
as(S'totally'
p1026
g6
tp1027
(lp1028
I1
aI2
aI1
as(S'cant'
p1029
g2
tp1030
(lp1031
I1
aI1
aI2
as(S'excessive'
p1032
g2
tp1033
(lp1034
I1
aI3
aI1
as(S'consultancies'
p1035
g16
tp1036
(lp1037
I1
aI1
aI2
as(S'employees'
p1038
g16
tp1039
(lp1040
I1
aI14
aI2
as(S'Opportunities'
p1041
g16
tp1042
(lp1043
I1
aI2
aI1
as(S'Actually'
p1044
g6
tp1045
(lp1046
I1
aI2
aI1
as(S'tech'
p1047
g2
tp1048
(lp1049
I1
aI1
aI2
as(S'-Horrible'
p1050
g2
tp1051
(lp1052
I1
aI2
aI1
as(S'generous'
p1053
g2
tp1054
(lp1055
I1
aI1
aI2
as(S'ugly'
p1056
g2
tp1057
(lp1058
I1
aI2
aI1
as(S'wonderful'
p1059
g2
tp1060
(lp1061
I1
aI2
aI1
as(S'especially'
p1062
g6
tp1063
(lp1064
I1
aI5
aI1
as(S'national'
p1065
g2
tp1066
(lp1067
I1
aI5
aI1
as(S'close'
p1068
g2
tp1069
(lp1070
I1
aI2
aI1
as(S'youre'
p1071
g41
tp1072
(lp1073
I1
aI2
aI1
as(S'benefits'
p1074
g16
tp1075
(lp1076
I1
aI2
aI6
as(S'meaningful'
p1077
g2
tp1078
(lp1079
I1
aI3
aI1
as(S'late'
p1080
g2
tp1081
(lp1082
I1
aI6
aI2
as(S'life'
p1083
g41
tp1084
(lp1085
I1
aI3
aI1
as(S'Global'
p1086
g2
tp1087
(lp1088
I1
aI1
aI2
as(S'definitely'
p1089
g6
tp1090
(lp1091
I1
aI4
aI1
as(S'elsewhere'
p1092
g6
tp1093
(lp1094
I1
aI3
aI1
as(S'front'
p1095
g2
tp1096
(lp1097
I1
aI2
aI1
as(S'skin'
p1098
g41
tp1099
(lp1100
I1
aI2
aI1
as(S'Nepotistic'
p1101
g2
tp1102
(lp1103
I1
aI2
aI1
as(S'-VERY'
p1104
g2
tp1105
(lp1106
I1
aI2
aI1
as(S'total'
p1107
g2
tp1108
(lp1109
I1
aI2
aI1
as(S'development'
p1110
g41
tp1111
(lp1112
I1
aI1
aI2
as(S'mid-level'
p1113
g2
tp1114
(lp1115
I1
aI2
aI2
as(S'tactical'
p1116
g2
tp1117
(lp1118
I1
aI2
aI1
as(S'blows'
p1119
g16
tp1120
(lp1121
I1
aI2
aI1
as(S'vague'
p1122
g2
tp1123
(lp1124
I1
aI3
aI1
as(S'subjective'
p1125
g2
tp1126
(lp1127
I1
aI2
aI1
as(S'possibly'
p1128
g6
tp1129
(lp1130
I1
aI4
aI2
as(S'nightmarish'
p1131
g2
tp1132
(lp1133
I1
aI2
aI1
as(S'Outside'
p1134
g2
tp1135
(lp1136
I1
aI1
aI2
as(S'door'
p1137
g41
tp1138
(lp1139
I1
aI2
aI1
as(S'department'
p1140
g41
tp1141
(lp1142
I1
aI2
aI1
as(S'movi'
p1143
g41
tp1144
(lp1145
I1
aI2
aI1
as(S'Sometimes'
p1146
g6
tp1147
(lp1148
I1
aI2
aI1
as(S'technically'
p1149
g6
tp1150
(lp1151
I1
aI2
aI1
as(S'throat'
p1152
g2
tp1153
(lp1154
I1
aI3
aI1
as(S'incredibly'
p1155
g6
tp1156
(lp1157
I1
aI2
aI2
as(S'chargeable'
p1158
g2
tp1159
(lp1160
I1
aI3
aI1
as(S'minority'
p1161
g41
tp1162
(lp1163
I1
aI1
aI2
as(S'Unrealistic'
p1164
g2
tp1165
(lp1166
I1
aI3
aI1
as(S'competition'
p1167
g41
tp1168
(lp1169
I1
aI2
aI1
as(S'intimidation'
p1170
g41
tp1171
(lp1172
I1
aI2
aI1
as(S'relative'
p1173
g2
tp1174
(lp1175
I1
aI4
aI1
as(S'culture/workplace'
p1176
g41
tp1177
(lp1178
I1
aI2
aI1
as(S'full-time'
p1179
g2
tp1180
(lp1181
I1
aI3
aI1
as(S'critical'
p1182
g2
tp1183
(lp1184
I1
aI2
aI1
as(S'Enormously'
p1185
g6
tp1186
(lp1187
I1
aI2
aI1
as(S'rotation'
p1188
g41
tp1189
(lp1190
I1
aI3
aI1
as(S'impressions'
p1191
g16
tp1192
(lp1193
I1
aI2
aI1
as(S'steadily'
p1194
g6
tp1195
(lp1196
I1
aI2
aI1
as(S'automotive'
p1197
g2
tp1198
(lp1199
I1
aI1
aI4
as(S'advanced'
p1200
g2
tp1201
(lp1202
I1
aI2
aI1
as(S'difficult'
p1203
g2
tp1204
(lp1205
I1
aI1
aI2
as(S'little'
p1206
g6
tp1207
(lp1208
I1
aI3
aI1
as(S'Vertical'
p1209
g2
tp1210
(lp1211
I1
aI4
aI1
as(S'flexible'
p1212
g2
tp1213
(lp1214
I1
aI2
aI11
as(S'overpaid/overfed'
p1215
g2
tp1216
(lp1217
I1
aI2
aI1
as(S'creative'
p1218
g2
tp1219
(lp1220
I1
aI5
aI1
as(S'simply'
p1221
g6
tp1222
(lp1223
I1
aI3
aI1
as(S'ostensibly'
p1224
g6
tp1225
(lp1226
I1
aI2
aI1
as(S'trite'
p1227
g2
tp1228
(lp1229
I1
aI2
aI1
as(S'last'
p1230
g2
tp1231
(lp1232
I1
aI6
aI2
as(S'ship'
p1233
g41
tp1234
(lp1235
I1
aI3
aI1
as(S'mainly'
p1236
g6
tp1237
(lp1238
I1
aI3
aI1
as(S'ONLY'
p1239
g6
tp1240
(lp1241
I1
aI2
aI1
as(S'manipulative'
p1242
g2
tp1243
(lp1244
I1
aI2
aI1
as(S'slow'
p1245
g2
tp1246
(lp1247
I1
aI2
aI2
as(S'absolutely'
p1248
g6
tp1249
(lp1250
I1
aI5
aI2
as(S'white'
p1251
g2
tp1252
(lp1253
I1
aI3
aI1
as(S'typically'
p1254
g6
tp1255
(lp1256
I1
aI3
aI1
as(S'people'
p1257
g16
tp1258
(lp1259
I1
aI5
aI6
as(S'foreign'
p1260
g2
tp1261
(lp1262
I1
aI2
aI3
as(S'only'
p1263
g2
tp1264
(lp1265
I1
aI16
aI7
as(S'undoubtedly'
p1266
g6
tp1267
(lp1268
I1
aI2
aI1
as(S"n't"
p1269
g6
tp1270
(lp1271
I1
aI150
aI19
as(S'long'
p1272
g6
tp1273
(lp1274
I1
aI2
aI1
as(S'same'
p1275
g2
tp1276
(lp1277
I1
aI26
aI9
as(S'yearly'
p1278
g2
tp1279
(lp1280
I1
aI3
aI2
as(S'profitable'
p1281
g2
tp1282
(lp1283
I1
aI3
aI1
as(S'honestly'
p1284
g6
tp1285
(lp1286
I1
aI2
aI1
as(S'learning'
p1287
g41
tp1288
(lp1289
I1
aI1
aI2
as(S'initial'
p1290
g2
tp1291
(lp1292
I1
aI1
aI2
as(S'Hours'
p1293
g16
tp1294
(lp1295
I1
aI2
aI1
as(S'vacation'
p1296
g41
tp1297
(lp1298
I1
aI2
aI1
as(S'Recent'
p1299
g2
tp1300
(lp1301
I1
aI2
aI1
as(S'hierarchical'
p1302
g2
tp1303
(lp1304
I1
aI2
aI1
as(S'new'
p1305
g2
tp1306
(lp1307
I1
aI42
aI14
as(S'Zone'
p1308
g41
tp1309
(lp1310
I1
aI2
aI1
as(S'too'
p1311
g6
tp1312
(lp1313
I1
aI23
aI6
as(S'managers/senior'
p1314
g2
tp1315
(lp1316
I1
aI2
aI1
as(S'regional'
p1317
g2
tp1318
(lp1319
I1
aI2
aI1
as(S'early'
p1320
g2
tp1321
(lp1322
I1
aI3
aI4
as(S'fantastic'
p1323
g2
tp1324
(lp1325
I1
aI2
aI1
as(S'most'
p1326
S'RBS'
p1327
tp1328
(lp1329
I1
aI2
aI1
as(S'painfully'
p1330
g6
tp1331
(lp1332
I1
aI2
aI1
as(S'sycophantic'
p1333
g2
tp1334
(lp1335
I1
aI2
aI1
as(S'blatantly'
p1336
g6
tp1337
(lp1338
I1
aI3
aI1
as(S'then'
p1339
g6
tp1340
(lp1341
I1
aI10
aI3
as(S'comfortable'
p1342
g2
tp1343
(lp1344
I1
aI2
aI2
as(S'stone'
p1345
g41
tp1346
(lp1347
I1
aI2
aI1
as(S'sometimes'
p1348
g6
tp1349
(lp1350
I1
aI3
aI1
as(S'work/life'
p1351
g2
tp1352
(lp1353
I1
aI8
aI5
as(S'postal'
p1354
g2
tp1355
(lp1356
I1
aI2
aI1
as(S'Narrowly'
p1357
g6
tp1358
(lp1359
I1
aI2
aI1
as(S'unstable'
p1360
g2
tp1361
(lp1362
I1
aI2
aI1
as(S'abuse'
p1363
g41
tp1364
(lp1365
I1
aI2
aI1
as(S'resources'
p1366
g16
tp1367
(lp1368
I1
aI1
aI2
as(S'otherwise'
p1369
g6
tp1370
(lp1371
I1
aI2
aI1
as(S'partly'
p1372
g6
tp1373
(lp1374
I1
aI2
aI1
as(S'impersonal'
p1375
g2
tp1376
(lp1377
I1
aI2
aI1
as(S'politics'
p1378
g16
tp1379
(lp1380
I1
aI4
aI1
as(S'short'
p1381
g2
tp1382
(lp1383
I1
aI6
aI5
as(S'overwork/overstressed'
p1384
g2
tp1385
(lp1386
I1
aI2
aI1
as(S'Extremely'
p1387
g6
tp1388
(lp1389
I1
aI4
aI1
as(S'current'
p1390
g2
tp1391
(lp1392
I1
aI11
aI5
as(S'ending'
p1393
g41
tp1394
(lp1395
I1
aI3
aI1
as(S'better'
p1396
g192
tp1397
(lp1398
I1
aI2
aI2
as(S'results-driven'
p1399
g2
tp1400
(lp1401
I1
aI2
aI1
as(S'drive'
p1402
g2
tp1403
(lp1404
I1
aI2
aI1
as(S'jobs'
p1405
g16
tp1406
(lp1407
I1
aI2
aI1
as(S'Utterly'
p1408
g6
tp1409
(lp1410
I1
aI2
aI1
as(S'price'
p1411
g41
tp1412
(lp1413
I1
aI1
aI3
as(S'unenjoyable'
p1414
g2
tp1415
(lp1416
I1
aI2
aI1
as(S'thus'
p1417
g6
tp1418
(lp1419
I1
aI2
aI1
as(S'employee-friendly'
p1420
g2
tp1421
(lp1422
I1
aI1
aI2
as(S'Usual'
p1423
g2
tp1424
(lp1425
I1
aI2
aI1
as(S'few'
p1426
g2
tp1427
(lp1428
I1
aI20
aI8
as(S'abysmal'
p1429
g2
tp1430
(lp1431
I1
aI2
aI1
as(S'policies'
p1432
g16
tp1433
(lp1434
I1
aI1
aI2
as(S'Politically'
p1435
g6
tp1436
(lp1437
I1
aI2
aI1
as(S'standard'
p1438
g2
tp1439
(lp1440
I1
aI4
aI1
as(S'fairly'
p1441
g6
tp1442
(lp1443
I1
aI3
aI2
as(S'sears'
p1444
g16
tp1445
(lp1446
I1
aI2
aI1
as(S'pervasive'
p1447
g2
tp1448
(lp1449
I1
aI2
aI1
as(S'monthly'
p1450
g2
tp1451
(lp1452
I1
aI1
aI2
as(S'lines.Your'
p1453
g2
tp1454
(lp1455
I1
aI2
aI1
as(S'ergonomics'
p1456
g16
tp1457
(lp1458
I1
aI1
aI2
as(S'looked'
p1459
g2
tp1460
(lp1461
I1
aI2
aI1
as(S'mirrors'
p1462
g16
tp1463
(lp1464
I1
aI2
aI1
as(S'touch'
p1465
g2
tp1466
(lp1467
I1
aI2
aI1
as(S'Sucks'
p1468
g16
tp1469
(lp1470
I1
aI3
aI1
as(S'inherent'
p1471
g2
tp1472
(lp1473
I1
aI2
aI1
as(S'potential'
p1474
g2
tp1475
(lp1476
I1
aI7
aI3
as(S'surprisingly'
p1477
g6
tp1478
(lp1479
I1
aI1
aI3
as(S'top'
p1480
g2
tp1481
(lp1482
I1
aI16
aI8
as(S'non-charge'
p1483
g2
tp1484
(lp1485
I1
aI2
aI1
as(S'any/all'
p1486
g2
tp1487
(lp1488
I1
aI2
aI1
as(S'currently'
p1489
g6
tp1490
(lp1491
I1
aI2
aI1
as(S'flexibility'
p1492
g41
tp1493
(lp1494
I1
aI1
aI2
as(S'recently'
p1495
g6
tp1496
(lp1497
I1
aI3
aI2
as(S'much'
p1498
g2
tp1499
(lp1500
I1
aI25
aI3
as(S'fire-drill'
p1501
g2
tp1502
(lp1503
I1
aI2
aI1
as(S'something'
p1504
g41
tp1505
(lp1506
I1
aI5
aI1
as(S'scared'
p1507
g2
tp1508
(lp1509
I1
aI1
aI2
as(S'favorite'
p1510
g2
tp1511
(lp1512
I1
aI3
aI1
as(S'enough'
p1513
g6
tp1514
(lp1515
I1
aI4
aI1
as(S'regularly'
p1516
g6
tp1517
(lp1518
I1
aI1
aI2
as(S'aviation'
p1519
g41
tp1520
(lp1521
I1
aI1
aI2
as(S'schedule'
p1522
g41
tp1523
(lp1524
I1
aI1
aI2
as(S'under-performing'
p1525
g2
tp1526
(lp1527
I1
aI1
aI2
as(S'ideas'
p1528
g16
tp1529
(lp1530
I1
aI4
aI1
as(S'Complete'
p1531
g2
tp1532
(lp1533
I1
aI2
aI1
as(S'+Financial'
p1534
g2
tp1535
(lp1536
I1
aI1
aI2
as(S'British'
p1537
g2
tp1538
(lp1539
I1
aI2
aI1
as(S'entrepreneurial'
p1540
g2
tp1541
(lp1542
I1
aI3
aI1
as(S'predictive'
p1543
g2
tp1544
(lp1545
I1
aI2
aI1
as(S'whole'
p1546
g2
tp1547
(lp1548
I1
aI5
aI2
as(S'impactful'
p1549
g2
tp1550
(lp1551
I1
aI1
aI2
as(S'inflation-based'
p1552
g2
tp1553
(lp1554
I1
aI2
aI1
as(S'following'
p1555
g2
tp1556
(lp1557
I1
aI2
aI1
as(S'hopeful'
p1558
g2
tp1559
(lp1560
I1
aI2
aI1
as(S'Strong'
p1561
g2
tp1562
(lp1563
I1
aI2
aI1
as(S'culture'
p1564
g41
tp1565
(lp1566
I1
aI2
aI3
as(S'ambitious'
p1567
g2
tp1568
(lp1569
I1
aI1
aI2
as(S'review'
p1570
g41
tp1571
(lp1572
I1
aI2
aI1
as(S'never'
p1573
g6
tp1574
(lp1575
I1
aI26
aI1
as(S'location'
p1576
g41
tp1577
(lp1578
I1
aI1
aI4
as(S'Bad'
p1579
g2
tp1580
(lp1581
I1
aI6
aI1
as(S'constant'
p1582
g2
tp1583
(lp1584
I1
aI6
aI2
as(S'way'
p1585
g41
tp1586
(lp1587
I1
aI3
aI1
as(S'competence'
p1588
g41
tp1589
(lp1590
I1
aI3
aI2
as(S'after-taste'
p1591
g2
tp1592
(lp1593
I1
aI2
aI1
as(S'laid'
p1594
g2
tp1595
(lp1596
I1
aI1
aI2
as(S'pace'
p1597
g41
tp1598
(lp1599
I1
aI2
aI1
as(S'leadership'
p1600
g41
tp1601
(lp1602
I1
aI2
aI1
as(S'positive'
p1603
g2
tp1604
(lp1605
I1
aI4
aI5
as(S'geoscientist'
p1606
g41
tp1607
(lp1608
I1
aI2
aI1
as(S'rate'
p1609
g41
tp1610
(lp1611
I1
aI1
aI4
as(S'unpaid'
p1612
g2
tp1613
(lp1614
I1
aI1
aI2
as(S'place'
p1615
g41
tp1616
(lp1617
I1
aI3
aI1
as(S'not'
p1618
g6
tp1619
(lp1620
I1
aI230
aI16
as(S'final'
p1621
g2
tp1622
(lp1623
I1
aI2
aI1
as(S'environment'
p1624
g41
tp1625
(lp1626
I1
aI5
aI1
as(S'ex-employ'
p1627
g2
tp1628
(lp1629
I1
aI2
aI1
as(S'overseas'
p1630
g2
tp1631
(lp1632
I1
aI1
aI2
as(S'terrific'
p1633
g2
tp1634
(lp1635
I1
aI2
aI1
as(S'nice'
p1636
g2
tp1637
(lp1638
I1
aI2
aI11
as(S'compensation'
p1639
g41
tp1640
(lp1641
I1
aI3
aI1
as(S'temporary'
p1642
g2
tp1643
(lp1644
I1
aI3
aI1
as(S'statistically'
p1645
g6
tp1646
(lp1647
I1
aI2
aI1
as(S'terrible'
p1648
g2
tp1649
(lp1650
I1
aI9
aI1
as(S'terribly'
p1651
g6
tp1652
(lp1653
I1
aI2
aI1
as(S'myopic'
p1654
g2
tp1655
(lp1656
I1
aI2
aI1
as(S'deplorable'
p1657
g2
tp1658
(lp1659
I1
aI2
aI1
as(S'actual'
p1660
g2
tp1661
(lp1662
I1
aI9
aI2
as(S'spectacular'
p1663
g2
tp1664
(lp1665
I1
aI2
aI1
as(S'Cult-like'
p1666
g2
tp1667
(lp1668
I1
aI2
aI1
as(S'grant'
p1669
g2
tp1670
(lp1671
I1
aI1
aI2
as(S'money'
p1672
g41
tp1673
(lp1674
I1
aI2
aI1
as(S'contractual'
p1675
g2
tp1676
(lp1677
I1
aI2
aI1
as(S'unhappy'
p1678
g2
tp1679
(lp1680
I1
aI2
aI1
as(S'stuff'
p1681
g41
tp1682
(lp1683
I1
aI1
aI2
as(S'low'
p1684
g2
tp1685
(lp1686
I1
aI24
aI3
as(S'Billable'
p1687
g2
tp1688
(lp1689
I1
aI2
aI1
as(S'south'
p1690
g6
tp1691
(lp1692
I1
aI2
aI1
as(S'just'
p1693
g6
tp1694
(lp1695
I1
aI24
aI4
as(S'non-management'
p1696
g2
tp1697
(lp1698
I1
aI4
aI1
as(S'O.K'
p1699
g2
tp1700
(lp1701
I1
aI1
aI2
as(S'idealistic'
p1702
g2
tp1703
(lp1704
I1
aI1
aI2
as(S'Services/Managed'
p1705
g2
tp1706
(lp1707
I1
aI1
aI2
as(S'Managers/Directors/Partners'
p1708
g16
tp1709
(lp1710
I1
aI2
aI1
as(S'onsite'
p1711
g2
tp1712
(lp1713
I1
aI2
aI4
as(S'add'
p1714
g2
tp1715
(lp1716
I1
aI2
aI1
as(S'etc'
p1717
g41
tp1718
(lp1719
I1
aI2
aI1
as(S'successful'
p1720
g2
tp1721
(lp1722
I1
aI2
aI1
as(S'intelligent'
p1723
g2
tp1724
(lp1725
I1
aI1
aI4
as(S"N'T"
p1726
g6
tp1727
(lp1728
I1
aI1
aI3
as(S'manager'
p1729
g41
tp1730
(lp1731
I1
aI5
aI1
as(S'Also'
p1732
g6
tp1733
(lp1734
I1
aI3
aI1
as(S'actively'
p1735
g6
tp1736
(lp1737
I1
aI3
aI1
as(S'geographic'
p1738
g2
tp1739
(lp1740
I1
aI2
aI1
as(S'strategic'
p1741
g2
tp1742
(lp1743
I1
aI6
aI1
as(S'term'
p1744
g41
tp1745
(lp1746
I1
aI2
aI1
as(S'certain'
p1747
g2
tp1748
(lp1749
I1
aI8
aI3
as(S'system'
p1750
g41
tp1751
(lp1752
I1
aI2
aI1
as(S'voluntary'
p1753
g2
tp1754
(lp1755
I1
aI2
aI1
as(S'Small'
p1756
g2
tp1757
(lp1758
I1
aI1
aI2
as(S'Incredible'
p1759
g2
tp1760
(lp1761
I1
aI1
aI4
as(S'seasoned'
p1762
g2
tp1763
(lp1764
I1
aI2
aI1
as(S'operational'
p1765
g2
tp1766
(lp1767
I1
aI2
aI1
as(S'bad'
p1768
g2
tp1769
(lp1770
I1
aI25
aI4
as(S'risk-averse'
p1771
g2
tp1772
(lp1773
I1
aI2
aI1
as(S'cost'
p1774
g41
tp1775
(lp1776
I1
aI3
aI1
as(S'safe'
p1777
g2
tp1778
(lp1779
I1
aI1
aI2
as(S'secondary'
p1780
g2
tp1781
(lp1782
I1
aI1
aI2
as(S'cult-like'
p1783
g2
tp1784
(lp1785
I1
aI3
aI1
as(S'still'
p1786
g6
tp1787
(lp1788
I1
aI9
aI4
as(S'quick'
p1789
g2
tp1790
(lp1791
I1
aI1
aI2
as(S'old-business'
p1792
g2
tp1793
(lp1794
I1
aI1
aI3
as(S'Work-life'
p1795
g2
tp1796
(lp1797
I1
aI2
aI1
as(S'hourly'
p1798
g2
tp1799
(lp1800
I1
aI3
aI2
as(S'directly'
p1801
g6
tp1802
(lp1803
I1
aI2
aI1
as(S'old'
p1804
g2
tp1805
(lp1806
I1
aI18
aI1
as(S'favorites'
p1807
g16
tp1808
(lp1809
I1
aI3
aI1
as(S'competitive'
p1810
g2
tp1811
(lp1812
I1
aI3
aI8
as(S'anonymously'
p1813
g6
tp1814
(lp1815
I1
aI3
aI1
as(S'significant'
p1816
g2
tp1817
(lp1818
I1
aI6
aI3
as(S'nicely'
p1819
g6
tp1820
(lp1821
I1
aI1
aI2
as(S'unduly'
p1822
g6
tp1823
(lp1824
I1
aI2
aI1
as(S'high'
p1825
g2
tp1826
(lp1827
I1
aI20
aI9
as(S'first'
p1828
g6
tp1829
(lp1830
I1
aI4
aI1
as(S'Penance'
p1831
g41
tp1832
(lp1833
I1
aI2
aI1
as(S'very'
p1834
g6
tp1835
(lp1836
I1
aI86
aI47
as(S'heavily'
p1837
g6
tp1838
(lp1839
I1
aI3
aI1
as(S'boys'
p1840
g16
tp1841
(lp1842
I1
aI2
aI1
as(S'so'
p1843
g6
tp1844
(lp1845
I1
aI14
aI1
as(S'long-range'
p1846
g2
tp1847
(lp1848
I1
aI2
aI1
as(S'monstrous'
p1849
g2
tp1850
(lp1851
I1
aI2
aI1
as(S'buddy'
p1852
g2
tp1853
(lp1854
I1
aI2
aI1
as(S'only'
p1855
g6
tp1856
(lp1857
I1
aI18
aI1
as(S'non-chargeable'
p1858
g2
tp1859
(lp1860
I1
aI2
aI1
as(S'couch'
p1861
g2
tp1862
(lp1863
I1
aI2
aI1
as(S'Seriously'
p1864
g6
tp1865
(lp1866
I1
aI2
aI1
as(S'Huge'
p1867
g2
tp1868
(lp1869
I1
aI5
aI1
as(S'non-exempt'
p1870
g2
tp1871
(lp1872
I1
aI2
aI2
as(S'area'
p1873
g41
tp1874
(lp1875
I1
aI1
aI2
as(S'steep'
p1876
g2
tp1877
(lp1878
I1
aI2
aI1
as(S'meetings'
p1879
g16
tp1880
(lp1881
I1
aI2
aI1
as(S'results'
p1882
g16
tp1883
(lp1884
I1
aI2
aI1
as(S'non-trustworthy'
p1885
g2
tp1886
(lp1887
I1
aI4
aI1
as(S'quickly'
p1888
g6
tp1889
(lp1890
I1
aI2
aI1
as(S'bright'
p1891
g2
tp1892
(lp1893
I1
aI3
aI4
as(S'unwanted'
p1894
g2
tp1895
(lp1896
I1
aI2
aI1
as(S'attractive'
p1897
g2
tp1898
(lp1899
I1
aI2
aI1
as(S'relatively'
p1900
g6
tp1901
(lp1902
I1
aI1
aI4
as(S'necessarily'
p1903
g6
tp1904
(lp1905
I1
aI2
aI1
as(S'interpersonal'
p1906
g2
tp1907
(lp1908
I1
aI1
aI2
as(S'family'
p1909
g6
tp1910
(lp1911
I1
aI2
aI1
as(S'helpful'
p1912
g2
tp1913
(lp1914
I1
aI1
aI3
as(S'consciously'
p1915
g6
tp1916
(lp1917
I1
aI2
aI1
as(S'Medical'
p1918
g2
tp1919
(lp1920
I1
aI1
aI2
as(S'good'
p1921
g2
tp1922
(lp1923
I1
aI53
aI95
as(S'Poorly'
p1924
g6
tp1925
(lp1926
I1
aI4
aI1
as(S'material'
p1927
g41
tp1928
(lp1929
I1
aI1
aI2
as(S'verbal'
p1930
g2
tp1931
(lp1932
I1
aI5
aI1
as(S'created'
p1933
g2
tp1934
(lp1935
I1
aI3
aI1
as(S'season'
p1936
g41
tp1937
(lp1938
I1
aI1
aI2
as(S'lucky'
p1939
g2
tp1940
(lp1941
I1
aI2
aI2
as(S'entrepreneural'
p1942
g2
tp1943
(lp1944
I1
aI1
aI2
as(S'knowledgable'
p1945
g2
tp1946
(lp1947
I1
aI2
aI1
as(S'seriously'
p1948
g6
tp1949
(lp1950
I1
aI2
aI2
as(S'divisions'
p1951
g16
tp1952
(lp1953
I1
aI3
aI1
as(S'workforce'
p1954
g41
tp1955
(lp1956
I1
aI2
aI1
as(S'knowledge'
p1957
g41
tp1958
(lp1959
I1
aI2
aI1
as(S'theoretical'
p1960
g2
tp1961
(lp1962
I1
aI2
aI1
as(S'likely'
p1963
g6
tp1964
(lp1965
I1
aI2
aI3
as(S'mostly'
p1966
g6
tp1967
(lp1968
I1
aI3
aI1
as(S'quite'
p1969
g6
tp1970
(lp1971
I1
aI2
aI2
as(S'overtime'
p1972
g41
tp1973
(lp1974
I1
aI1
aI2
as(S'Cultish'
p1975
g2
tp1976
(lp1977
I1
aI2
aI1
as(S'nothing'
p1978
g41
tp1979
(lp1980
I1
aI3
aI3
as(S'personally'
p1981
g6
tp1982
(lp1983
I1
aI2
aI1
as(S'determine'
p1984
g2
tp1985
(lp1986
I1
aI2
aI1
as(S'team'
p1987
g41
tp1988
(lp1989
I1
aI3
aI1
as(S'dental'
p1990
g2
tp1991
(lp1992
I1
aI1
aI2
as(S'royal'
p1993
g2
tp1994
(lp1995
I1
aI2
aI1
as(S'pool'
p1996
g41
tp1997
(lp1998
I1
aI1
aI2
as(S'site'
p1999
g2
tp2000
(lp2001
I1
aI1
aI2
as(S'even'
p2002
g6
tp2003
(lp2004
I1
aI18
aI2
as(S'knowledgeable'
p2005
g2
tp2006
(lp2007
I1
aI1
aI4
as(S'multi-hour'
p2008
g2
tp2009
(lp2010
I1
aI2
aI1
as(S'NOT'
p2011
g6
tp2012
(lp2013
I1
aI4
aI1
as(S'specifically'
p2014
g6
tp2015
(lp2016
I1
aI3
aI1
as(S'medical'
p2017
g2
tp2018
(lp2019
I1
aI2
aI7
as(S'professional'
p2020
g2
tp2021
(lp2022
I1
aI10
aI6
as(S'logical'
p2023
g2
tp2024
(lp2025
I1
aI2
aI1
as(S'-Solid'
p2026
g2
tp2027
(lp2028
I1
aI1
aI2
as(S'average'
p2029
g2
tp2030
(lp2031
I1
aI5
aI1
as(S'technological'
p2032
g2
tp2033
(lp2034
I1
aI1
aI3
as(S'oil/gas'
p2035
g2
tp2036
(lp2037
I1
aI2
aI1
as(S'extremely'
p2038
g6
tp2039
(lp2040
I1
aI16
aI3
as(S'!'
p2041
g41
tp2042
(lp2043
I1
aI14
aI4
as(S'programs'
p2044
g16
tp2045
(lp2046
I1
aI1
aI2
as(S'private'
p2047
g2
tp2048
(lp2049
I1
aI2
aI2
as(S'short-term'
p2050
g2
tp2051
(lp2052
I1
aI5
aI1
as(S'promotional'
p2053
g2
tp2054
(lp2055
I1
aI4
aI1
as(S'wrong'
p2056
g2
tp2057
(lp2058
I1
aI6
aI1
as(S'nearly'
p2059
g6
tp2060
(lp2061
I1
aI2
aI1
as(S'technical'
p2062
g2
tp2063
(lp2064
I1
aI9
aI10
as(S'extra-curricular'
p2065
g2
tp2066
(lp2067
I1
aI2
aI1
as(S'enough'
p2068
g2
tp2069
(lp2070
I1
aI2
aI1
as(S'Oppressive'
p2071
g2
tp2072
(lp2073
I1
aI3
aI1
as(S'super'
p2074
g41
tp2075
(lp2076
I1
aI2
aI1
as(S'ridiculously'
p2077
g6
tp2078
(lp2079
I1
aI2
aI1
as(S'simple'
p2080
g2
tp2081
(lp2082
I1
aI6
aI1
as(S'Always'
p2083
g6
tp2084
(lp2085
I1
aI5
aI2
as(S'mentioning'
p2086
g41
tp2087
(lp2088
I1
aI1
aI2
as(S'Major'
p2089
g2
tp2090
(lp2091
I1
aI1
aI3
as(S'companies'
p2092
g16
tp2093
(lp2094
I1
aI1
aI3
as(S'billable'
p2095
g2
tp2096
(lp2097
I1
aI7
aI1
as(S'several'
p2098
g2
tp2099
(lp2100
I1
aI6
aI2
as(S'good/bad'
p2101
g2
tp2102
(lp2103
I1
aI2
aI1
as(S'code'
p2104
g41
tp2105
(lp2106
I1
aI1
aI2
as(S'exciting'
p2107
g2
tp2108
(lp2109
I1
aI1
aI2
as(S'back'
p2110
g6
tp2111
(lp2112
I1
aI3
aI2
as(S'strongly'
p2113
g6
tp2114
(lp2115
I1
aI1
aI2
as(S'statements'
p2116
g16
tp2117
(lp2118
I1
aI2
aI1
as(S'thing'
p2119
g41
tp2120
(lp2121
I1
aI2
aI1
as(S're-tool'
p2122
g2
tp2123
(lp2124
I1
aI2
aI1
as(S'executive'
p2125
g2
tp2126
(lp2127
I1
aI3
aI2
as(S'intern'
p2128
g41
tp2129
(lp2130
I1
aI2
aI1
as(S'employee'
p2131
g41
tp2132
(lp2133
I1
aI2
aI1
as(S'strictly'
p2134
g6
tp2135
(lp2136
I1
aI3
aI1
as(S'steady'
p2137
g2
tp2138
(lp2139
I1
aI1
aI2
as(S'departments'
p2140
g16
tp2141
(lp2142
I1
aI1
aI4
as(S'tight-knit'
p2143
g2
tp2144
(lp2145
I1
aI1
aI2
as(S'merely'
p2146
g6
tp2147
(lp2148
I1
aI2
aI1
as(S'pay'
p2149
g41
tp2150
(lp2151
I1
aI2
aI4
as(S"'as"
p2152
g2
tp2153
(lp2154
I1
aI2
aI1
as(S'colleagues'
p2155
g16
tp2156
(lp2157
I1
aI1
aI2
as(S'bit'
p2158
g41
tp2159
(lp2160
I1
aI2
aI1
as(S'great'
p2161
g2
tp2162
(lp2163
I1
aI23
aI48
as(S'clic'
p2164
g2
tp2165
(lp2166
I1
aI2
aI1
as(S'many'
p2167
g2
tp2168
(lp2169
I1
aI51
aI12
as(S'yes'
p2170
g16
tp2171
(lp2172
I1
aI2
aI1
as(S'Annual'
p2173
g2
tp2174
(lp2175
I1
aI4
aI2
as(S'frequent'
p2176
g2
tp2177
(lp2178
I1
aI1
aI2
as(S'formal'
p2179
g2
tp2180
(lp2181
I1
aI4
aI1
as(S'stupid'
p2182
g2
tp2183
(lp2184
I1
aI2
aI1
as(S'Work/life'
p2185
g2
tp2186
(lp2187
I1
aI3
aI1
as(S'Average'
p2188
g2
tp2189
(lp2190
I1
aI2
aI1
as(S'such'
p2191
g2
tp2192
(lp2193
I1
aI3
aI2
as(S'daily'
p2194
g2
tp2195
(lp2196
I1
aI12
aI3
as(S'Too'
p2197
g6
tp2198
(lp2199
I1
aI9
aI1
as(S'generic'
p2200
g2
tp2201
(lp2202
I1
aI1
aI2
as(S'office'
p2203
g41
tp2204
(lp2205
I1
aI3
aI1
as(S'essential'
p2206
g2
tp2207
(lp2208
I1
aI2
aI1
as(S'modest'
p2209
g2
tp2210
(lp2211
I1
aI3
aI1
as(S'glorious'
p2212
g2
tp2213
(lp2214
I1
aI2
aI1
as(S'well'
p2215
g6
tp2216
(lp2217
I1
aI8
aI8
as(S'insight'
p2218
g41
tp2219
(lp2220
I1
aI3
aI1
as(S'career-minded'
p2221
g2
tp2222
(lp2223
I1
aI2
aI1
as(S'Even'
p2224
g6
tp2225
(lp2226
I1
aI2
aI1
as(S'walmart'
p2227
g41
tp2228
(lp2229
I1
aI2
aI1
as(S'Large'
p2230
g2
tp2231
(lp2232
I1
aI5
aI3
as(S'merchandising'
p2233
g41
tp2234
(lp2235
I1
aI1
aI2
as(S'interesting'
p2236
g2
tp2237
(lp2238
I1
aI3
aI5
as(S'physical'
p2239
g2
tp2240
(lp2241
I1
aI2
aI1
as(S'receive'
p2242
g2
tp2243
(lp2244
I1
aI2
aI1
as(S'stars'
p2245
g16
tp2246
(lp2247
I1
aI3
aI1
as(S'negative'
p2248
g2
tp2249
(lp2250
I1
aI6
aI2
as(S'obviously'
p2251
g6
tp2252
(lp2253
I1
aI2
aI1
as(S'stress'
p2254
g41
tp2255
(lp2256
I1
aI2
aI1
as(S'tap'
p2257
g41
tp2258
(lp2259
I1
aI2
aI1
as(S'somewhat'
p2260
g6
tp2261
(lp2262
I1
aI2
aI1
as(S'Institutional'
p2263
g2
tp2264
(lp2265
I1
aI2
aI1
as(S'builder'
p2266
g41
tp2267
(lp2268
I1
aI1
aI2
as(S'ever'
p2269
g6
tp2270
(lp2271
I1
aI14
aI3
as(S'month'
p2272
g41
tp2273
(lp2274
I1
aI2
aI1
as(S'benefit'
p2275
g41
tp2276
(lp2277
I1
aI1
aI2
as(S'potical'
p2278
g2
tp2279
(lp2280
I1
aI2
aI1
as(S'end-of-month'
p2281
g2
tp2282
(lp2283
I1
aI2
aI1
as(S'severe'
p2284
g2
tp2285
(lp2286
I1
aI2
aI1
as(S'easily'
p2287
g6
tp2288
(lp2289
I1
aI5
aI1
as(S'OK'
p2290
g41
tp2291
(lp2292
I1
aI3
aI1
as(S'verbally'
p2293
g6
tp2294
(lp2295
I1
aI2
aI1
as(S'historically'
p2296
g6
tp2297
(lp2298
I1
aI2
aI1
as(S'recent'
p2299
g2
tp2300
(lp2301
I1
aI5
aI6
as(S'complete'
p2302
g2
tp2303
(lp2304
I1
aI2
aI1
as(S'co-workers'
p2305
g16
tp2306
(lp2307
I1
aI1
aI2
as(S'definite'
p2308
g2
tp2309
(lp2310
I1
aI2
aI1
as(S'French'
p2311
g2
tp2312
(lp2313
I1
aI2
aI2
as(S'anything'
p2314
g41
tp2315
(lp2316
I1
aI3
aI3
as(S'micro-class'
p2317
g2
tp2318
(lp2319
I1
aI2
aI1
as(S'annual'
p2320
g2
tp2321
(lp2322
I1
aI6
aI2
as(S'special'
p2323
g2
tp2324
(lp2325
I1
aI3
aI1
as(S'Initial'
p2326
g2
tp2327
(lp2328
I1
aI1
aI2
as(S'productivity'
p2329
g41
tp2330
(lp2331
I1
aI2
aI1
as(S'first-hand'
p2332
g2
tp2333
(lp2334
I1
aI2
aI1
as(S'finance'
p2335
g41
tp2336
(lp2337
I1
aI1
aI2
as(S'horrible'
p2338
g2
tp2339
(lp2340
I1
aI4
aI1
as(S'positively'
p2341
g6
tp2342
(lp2343
I1
aI1
aI2
as(S'wel'
p2344
g41
tp2345
(lp2346
I1
aI2
aI1
as(S'retail'
p2347
g2
tp2348
(lp2349
I1
aI6
aI2
as(S'Terrible'
p2350
g2
tp2351
(lp2352
I1
aI6
aI1
as(S'cite'
p2353
g2
tp2354
(lp2355
I1
aI3
aI1
as(S'intensive'
p2356
g2
tp2357
(lp2358
I1
aI2
aI1
as(S'qualified'
p2359
g2
tp2360
(lp2361
I1
aI2
aI1
as(S'extra'
p2362
g2
tp2363
(lp2364
I1
aI4
aI2
as(S'tight'
p2365
g2
tp2366
(lp2367
I1
aI2
aI1
as(S'next'
p2368
g2
tp2369
(lp2370
I1
aI11
aI2
as(S'upper'
p2371
g2
tp2372
(lp2373
I1
aI10
aI3
as(S'C-suite'
p2374
g2
tp2375
(lp2376
I1
aI2
aI1
as(S'services'
p2377
g16
tp2378
(lp2379
I1
aI2
aI1
as(S'intellectually'
p2380
g6
tp2381
(lp2382
I1
aI2
aI1
as(S'different'
p2383
g2
tp2384
(lp2385
I1
aI14
aI19
as(S'CONSTANTLY'
p2386
g6
tp2387
(lp2388
I1
aI1
aI2
as(S'safety'
p2389
g41
tp2390
(lp2391
I1
aI1
aI3
as(S'mad'
p2392
g41
tp2393
(lp2394
I1
aI2
aI1
as(S'unprofessional'
p2395
g2
tp2396
(lp2397
I1
aI4
aI1
as(S'financial'
p2398
g2
tp2399
(lp2400
I1
aI4
aI3
as(S'opportunities'
p2401
g16
tp2402
(lp2403
I1
aI5
aI3
as(S'-The'
p2404
g2
tp2405
(lp2406
I1
aI6
aI1
as(S'-Some'
p2407
g2
tp2408
(lp2409
I1
aI1
aI2
as(S'balance'
p2410
g41
tp2411
(lp2412
I1
aI3
aI7
as(S'specific'
p2413
g2
tp2414
(lp2415
I1
aI2
aI4
as(S'readily'
p2416
g6
tp2417
(lp2418
I1
aI1
aI2
as(S'Other'
p2419
g2
tp2420
(lp2421
I1
aI2
aI1
as(S'cubicles'
p2422
g16
tp2423
(lp2424
I1
aI1
aI2
as(S'ongoing'
p2425
g2
tp2426
(lp2427
I1
aI3
aI1
as(S'sure'
p2428
g2
tp2429
(lp2430
I1
aI2
aI1
as(S'package'
p2431
g41
tp2432
(lp2433
I1
aI1
aI3
as(S'once'
p2434
g6
tp2435
(lp2436
I1
aI3
aI2
as(S'publicly'
p2437
g6
tp2438
(lp2439
I1
aI1
aI2
as(S'smart-phone'
p2440
g2
tp2441
(lp2442
I1
aI1
aI2
as(S'personality'
p2443
g41
tp2444
(lp2445
I1
aI2
aI1
as(S'finally'
p2446
g6
tp2447
(lp2448
I1
aI2
aI1
as(S'Decentralized'
p2449
g2
tp2450
(lp2451
I1
aI2
aI1
as(S'fundamental'
p2452
g2
tp2453
(lp2454
I1
aI2
aI2
as(S'senior'
p2455
g2
tp2456
(lp2457
I1
aI22
aI4
as(S'big'
p2458
g2
tp2459
(lp2460
I1
aI7
aI9
as(S'comparable'
p2461
g2
tp2462
(lp2463
I1
aI2
aI1
as(S'galactic'
p2464
g2
tp2465
(lp2466
I1
aI2
aI1
as(S'Not'
p2467
g6
tp2468
(lp2469
I1
aI7
aI4
as(S'largely'
p2470
g6
tp2471
(lp2472
I1
aI2
aI1
as(S'recognizable'
p2473
g2
tp2474
(lp2475
I1
aI2
aI3
as(S'truly'
p2476
g6
tp2477
(lp2478
I1
aI6
aI1
as(S'helpful.The'
p2479
g2
tp2480
(lp2481
I1
aI1
aI2
as(S'peers'
p2482
g16
tp2483
(lp2484
I1
aI2
aI1
as(S'rough'
p2485
g2
tp2486
(lp2487
I1
aI2
aI1
as(S'double'
p2488
g2
tp2489
(lp2490
I1
aI2
aI1
as(S'supervisors'
p2491
g16
tp2492
(lp2493
I1
aI2
aI1
as(S'time'
p2494
g41
tp2495
(lp2496
I1
aI3
aI4
as(S'One-Stop'
p2497
g2
tp2498
(lp2499
I1
aI2
aI1
as(S'overly'
p2500
g6
tp2501
(lp2502
I1
aI2
aI1
as(S'Mediocrity'
p2503
g41
tp2504
(lp2505
I1
aI2
aI1
as(S'REALLY'
p2506
g6
tp2507
(lp2508
I1
aI1
aI2
as(S'Internal'
p2509
g2
tp2510
(lp2511
I1
aI3
aI1
as(S'Vindictive'
p2512
g2
tp2513
(lp2514
I1
aI3
aI1
as(S'unbelievably'
p2515
g6
tp2516
(lp2517
I1
aI2
aI1
as(S'strong'
p2518
g2
tp2519
(lp2520
I1
aI9
aI4
as(S'dead'
p2521
g2
tp2522
(lp2523
I1
aI4
aI1
as(S'backlogged'
p2524
g2
tp2525
(lp2526
I1
aI2
aI1
as(S'ac'
p2527
g41
tp2528
(lp2529
I1
aI2
aI1
as(S'So'
p2530
g6
tp2531
(lp2532
I1
aI2
aI1
as(S'legitimate'
p2533
g2
tp2534
(lp2535
I1
aI2
aI1
as(S'Never'
p2536
g6
tp2537
(lp2538
I1
aI2
aI3
as(S'hours'
p2539
g16
tp2540
(lp2541
I1
aI2
aI5
as(S'accountability'
p2542
g41
tp2543
(lp2544
I1
aI1
aI2
as(S'places'
p2545
g16
tp2546
(lp2547
I1
aI1
aI2
as(S'Flexible'
p2548
g2
tp2549
(lp2550
I1
aI1
aI3
as(S'Total'
p2551
g2
tp2552
(lp2553
I1
aI2
aI1
as(S'pre-planned'
p2554
g2
tp2555
(lp2556
I1
aI1
aI2
as(S'sprawling'
p2557
g2
tp2558
(lp2559
I1
aI2
aI1
as(S'archaic'
p2560
g2
tp2561
(lp2562
I1
aI2
aI1
as(S'service'
p2563
g41
tp2564
(lp2565
I1
aI1
aI2
as(S'Constantly'
p2566
g6
tp2567
(lp2568
I1
aI3
aI1
as(S'experience'
p2569
g41
tp2570
(lp2571
I1
aI3
aI4
as(S'feelings'
p2572
g16
tp2573
(lp2574
I1
aI3
aI1
as(S'equivalently'
p2575
g6
tp2576
(lp2577
I1
aI3
aI1
as(S'skills'
p2578
g16
tp2579
(lp2580
I1
aI2
aI2
as(S'Outstanding'
p2581
g2
tp2582
(lp2583
I1
aI1
aI2
as(S'brilliant'
p2584
g2
tp2585
(lp2586
I1
aI3
aI1
as(S'insincerely'
p2587
g6
tp2588
(lp2589
I1
aI2
aI1
as(S'issues'
p2590
g16
tp2591
(lp2592
I1
aI2
aI1
as(S'junior'
p2593
g2
tp2594
(lp2595
I1
aI3
aI5
as(S'cool'
p2596
g2
tp2597
(lp2598
I1
aI1
aI4
as(S'Personal'
p2599
g2
tp2600
(lp2601
I1
aI2
aI1
as(S'analytical'
p2602
g2
tp2603
(lp2604
I1
aI2
aI3
as(S'capable'
p2605
g2
tp2606
(lp2607
I1
aI2
aI2
as(S'long'
p2608
g2
tp2609
(lp2610
I1
aI17
aI4
as(S'predictable'
p2611
g2
tp2612
(lp2613
I1
aI2
aI1
as(S'for-profit'
p2614
g2
tp2615
(lp2616
I1
aI2
aI1
as(S'Horrible'
p2617
g2
tp2618
(lp2619
I1
aI6
aI1
as(S'travel'
p2620
g41
tp2621
(lp2622
I1
aI1
aI2
as(S'clinically'
p2623
g6
tp2624
(lp2625
I1
aI2
aI1
as(S'intangible'
p2626
g2
tp2627
(lp2628
I1
aI2
aI1
as(S'weak/poor'
p2629
g2
tp2630
(lp2631
I1
aI2
aI1
as(S'laziness'
p2632
g41
tp2633
(lp2634
I1
aI2
aI1
as(S'highly'
p2635
g6
tp2636
(lp2637
I1
aI3
aI5
as(S'consulting'
p2638
g41
tp2639
(lp2640
I1
aI2
aI1
as(S'high-performing'
p2641
g2
tp2642
(lp2643
I1
aI2
aI1
as(S'non-essential'
p2644
g2
tp2645
(lp2646
I1
aI2
aI1
as(S'there'
p2647
g6
tp2648
(lp2649
I1
aI3
aI1
as(S'office/business'
p2650
g2
tp2651
(lp2652
I1
aI2
aI1
as(S'native'
p2653
g2
tp2654
(lp2655
I1
aI2
aI1
as(S'offices'
p2656
g16
tp2657
(lp2658
I1
aI1
aI3
as(S'sympathizers'
p2659
g16
tp2660
(lp2661
I1
aI2
aI1
as(S'marital'
p2662
g2
tp2663
(lp2664
I1
aI2
aI1
as(S'management'
p2665
g41
tp2666
(lp2667
I1
aI5
aI2
as(S'hand'
p2668
g41
tp2669
(lp2670
I1
aI1
aI2
as(S'intra-office'
p2671
g2
tp2672
(lp2673
I1
aI2
aI1
as(S'early'
p2674
g6
tp2675
(lp2676
I1
aI2
aI1
as(S'managers'
p2677
g16
tp2678
(lp2679
I1
aI2
aI1
as(S'body-shop'
p2680
g2
tp2681
(lp2682
I1
aI2
aI1
as(S'Japanese'
p2683
g2
tp2684
(lp2685
I1
aI2
aI2
as(S'Future'
p2686
g2
tp2687
(lp2688
I1
aI2
aI1
as(S'severely'
p2689
g6
tp2690
(lp2691
I1
aI5
aI1
as(S'over-all'
p2692
g2
tp2693
(lp2694
I1
aI1
aI2
as(S'rather'
p2695
g6
tp2696
(lp2697
I1
aI5
aI1
as(S'similar'
p2698
g2
tp2699
(lp2700
I1
aI2
aI2
as(S'theoretically'
p2701
g6
tp2702
(lp2703
I1
aI2
aI1
as(S'Great'
p2704
g2
tp2705
(lp2706
I1
aI1
aI3
as(S'career'
p2707
g41
tp2708
(lp2709
I1
aI8
aI5
as(S'day'
p2710
g41
tp2711
(lp2712
I1
aI2
aI1
as(S'dreadful'
p2713
g2
tp2714
(lp2715
I1
aI1
aI2
as(S'easy'
p2716
g2
tp2717
(lp2718
I1
aI2
aI2
as(S'adequately'
p2719
g6
tp2720
(lp2721
I1
aI2
aI1
as(S'consistently'
p2722
g6
tp2723
(lp2724
I1
aI4
aI2
as(S'huge'
p2725
g2
tp2726
(lp2727
I1
aI7
aI2
as(S'consultant'
p2728
g41
tp2729
(lp2730
I1
aI1
aI2
as(S'Now'
p2731
g6
tp2732
(lp2733
I1
aI2
aI1
as(S'care'
p2734
g41
tp2735
(lp2736
I1
aI1
aI2
as(S'levels'
p2737
g16
tp2738
(lp2739
I1
aI1
aI4
as(S'-Mixed'
p2740
g2
tp2741
(lp2742
I1
aI3
aI1
as(S'cronyism'
p2743
g41
tp2744
(lp2745
I1
aI2
aI1
as(S'numerous'
p2746
g2
tp2747
(lp2748
I1
aI1
aI3
as(S'superficial'
p2749
g2
tp2750
(lp2751
I1
aI2
aI1
as(S'manner'
p2752
g41
tp2753
(lp2754
I1
aI2
aI1
as(S'alone'
p2755
g6
tp2756
(lp2757
I1
aI3
aI1
as(S'cultural'
p2758
g2
tp2759
(lp2760
I1
aI1
aI2
as(S'Mid-level'
p2761
g2
tp2762
(lp2763
I1
aI2
aI1
as(S'German'
p2764
g2
tp2765
(lp2766
I1
aI1
aI2
as(S'product-driven'
p2767
g2
tp2768
(lp2769
I1
aI2
aI1
as(S'Corporate'
p2770
g2
tp2771
(lp2772
I1
aI3
aI4
as(S'dominant'
p2773
g2
tp2774
(lp2775
I1
aI1
aI2
as(S'micro-managing'
p2776
g2
tp2777
(lp2778
I1
aI1
aI2
as(S'are'
p2779
g2
tp2780
(lp2781
I1
aI1
aI3
as(S'chaotic'
p2782
g2
tp2783
(lp2784
I1
aI2
aI1
as(S'engineering-friendly'
p2785
g2
tp2786
(lp2787
I1
aI2
aI1
as(S'times'
p2788
g16
tp2789
(lp2790
I1
aI3
aI1
as(S'sales'
p2791
g16
tp2792
(lp2793
I1
aI2
aI2
as(S'cons'
p2794
g16
tp2795
(lp2796
I1
aI2
aI1
as(S'Serious'
p2797
g2
tp2798
(lp2799
I1
aI2
aI1
as(S'main'
p2800
g2
tp2801
(lp2802
I1
aI3
aI2
as(S'continually'
p2803
g6
tp2804
(lp2805
I1
aI2
aI1
as(S'Potential'
p2806
g2
tp2807
(lp2808
I1
aI1
aI2
as(S'previously'
p2809
g6
tp2810
(lp2811
I1
aI2
aI2
as(S'reach'
p2812
g41
tp2813
(lp2814
I1
aI1
aI2
as(S'large'
p2815
g2
tp2816
(lp2817
I1
aI8
aI11
as(S'much'
p2818
g6
tp2819
(lp2820
I1
aI5
aI2
as(S'groups'
p2821
g16
tp2822
(lp2823
I1
aI2
aI1
as(S'fresh'
p2824
g2
tp2825
(lp2826
I1
aI2
aI2
as(S'extended'
p2827
g2
tp2828
(lp2829
I1
aI1
aI3
as(S'workable'
p2830
g2
tp2831
(lp2832
I1
aI2
aI1
as(S'Daily'
p2833
g6
tp2834
(lp2835
I1
aI3
aI1
as(S'likewise'
p2836
g6
tp2837
(lp2838
I1
aI2
aI1
as(S'Plant'
p2839
g2
tp2840
(lp2841
I1
aI3
aI1
as(S'beautiful'
p2842
g2
tp2843
(lp2844
I1
aI1
aI2
as(S'fragmented/local'
p2845
g2
tp2846
(lp2847
I1
aI2
aI1
as(S'rear'
p2848
g2
tp2849
(lp2850
I1
aI2
aI1
as(S'public'
p2851
g2
tp2852
(lp2853
I1
aI3
aI2
as(S'multiple'
p2854
g2
tp2855
(lp2856
I1
aI2
aI1
as(S'regular'
p2857
g2
tp2858
(lp2859
I1
aI2
aI1
as(S'additional'
p2860
g2
tp2861
(lp2862
I1
aI4
aI2
as(S'insular'
p2863
g2
tp2864
(lp2865
I1
aI2
aI1
as(S'beginning'
p2866
g41
tp2867
(lp2868
I1
aI2
aI1
as(S'industries'
p2869
g16
tp2870
(lp2871
I1
aI1
aI2
as(S'conservative'
p2872
g2
tp2873
(lp2874
I1
aI2
aI2
as(S'summer'
p2875
g2
tp2876
(lp2877
I1
aI2
aI1
as(S'unreasonab'
p2878
g41
tp2879
(lp2880
I1
aI2
aI1
as(S'stay-at-home'
p2881
g2
tp2882
(lp2883
I1
aI2
aI1
as(S'pleasant'
p2884
g2
tp2885
(lp2886
I1
aI2
aI2
as(S'worse'
p2887
g2
tp2888
(lp2889
I1
aI2
aI1
as(S'couple'
p2890
g2
tp2891
(lp2892
I1
aI2
aI1
as(S'Intellectual'
p2893
g2
tp2894
(lp2895
I1
aI1
aI2
as(S'poor'
p2896
g2
tp2897
(lp2898
I1
aI26
aI3
as(S'beneffit'
p2899
g41
tp2900
(lp2901
I1
aI1
aI2
as(S'center'
p2902
g41
tp2903
(lp2904
I1
aI3
aI1
as(S'uncollaborative'
p2905
g2
tp2906
(lp2907
I1
aI2
aI1
as(S'guidance'
p2908
g41
tp2909
(lp2910
I1
aI2
aI1
as(S'technologies'
p2911
g16
tp2912
(lp2913
I1
aI1
aI2
as(S'non-revenue'
p2914
g2
tp2915
(lp2916
I1
aI2
aI1
as(S'really'
p2917
g6
tp2918
(lp2919
I1
aI20
aI6
as(S'also'
p2920
g6
tp2921
(lp2922
I1
aI9
aI3
as(S'bonus'
p2923
g41
tp2924
(lp2925
I1
aI1
aI3
as(S'security'
p2926
g41
tp2927
(lp2928
I1
aI1
aI2
as(S'Long'
p2929
g2
tp2930
(lp2931
I1
aI22
aI1
as(S'environments'
p2932
g16
tp2933
(lp2934
I1
aI1
aI2
as(S'-Entrepreneurial'
p2935
g2
tp2936
(lp2937
I1
aI2
aI1
as(S'superfluous'
p2938
g2
tp2939
(lp2940
I1
aI2
aI1
as(S'generally'
p2941
g6
tp2942
(lp2943
I1
aI4
aI5
as(S'Privileged'
p2944
g2
tp2945
(lp2946
I1
aI2
aI1
as(S'isnt'
p2947
g41
tp2948
(lp2949
I1
aI2
aI1
as(S'Disastrous'
p2950
g2
tp2951
(lp2952
I1
aI2
aI1
as(S'quarterly'
p2953
g2
tp2954
(lp2955
I1
aI2
aI1
as(S'start-up'
p2956
g2
tp2957
(lp2958
I1
aI1
aI2
as(S'stressful'
p2959
g2
tp2960
(lp2961
I1
aI5
aI1
as(S'Highly'
p2962
g6
tp2963
(lp2964
I1
aI6
aI2
as(S'hardly'
p2965
g6
tp2966
(lp2967
I1
aI3
aI1
as(S'Confidential'
p2968
g2
tp2969
(lp2970
I1
aI2
aI1
as(S'workplace'
p2971
g41
tp2972
(lp2973
I1
aI1
aI2
as(S'poisonous'
p2974
g2
tp2975
(lp2976
I1
aI2
aI1
as(S'international'
p2977
g2
tp2978
(lp2979
I1
aI4
aI6
as(S'dynamic'
p2980
g2
tp2981
(lp2982
I1
aI2
aI1
as(S'abundant'
p2983
g2
tp2984
(lp2985
I1
aI1
aI2
as(S'fast'
p2986
g6
tp2987
(lp2988
I1
aI2
aI1
as(S'graduates'
p2989
g16
tp2990
(lp2991
I1
aI1
aI2
as(S'fr'
p2992
g41
tp2993
(lp2994
I1
aI2
aI1
as(S'corporate'
p2995
g2
tp2996
(lp2997
I1
aI15
aI9
as(S'sneaky'
p2998
g2
tp2999
(lp3000
I1
aI2
aI1
as(S'political'
p3001
g2
tp3002
(lp3003
I1
aI15
aI1
as(S'direct'
p3004
g2
tp3005
(lp3006
I1
aI7
aI3
as(S're-adapt'
p3007
g2
tp3008
(lp3009
I1
aI2
aI1
as(S'afraid'
p3010
g2
tp3011
(lp3012
I1
aI2
aI1
as(S'glacial'
p3013
g2
tp3014
(lp3015
I1
aI2
aI1
as(S'sweet'
p3016
g2
tp3017
(lp3018
I1
aI3
aI1
as(S'ta'
p3019
g41
tp3020
(lp3021
I1
aI2
aI1
as(S'outrageous'
p3022
g2
tp3023
(lp3024
I1
aI2
aI1
as(S'essentially'
p3025
g6
tp3026
(lp3027
I1
aI2
aI1
as(S'individual'
p3028
g2
tp3029
(lp3030
I1
aI2
aI2
as(S'board'
p3031
g41
tp3032
(lp3033
I1
aI2
aI1
as(S'unique'
p3034
g2
tp3035
(lp3036
I1
aI2
aI1
as(S'centralized'
p3037
g2
tp3038
(lp3039
I1
aI2
aI1
as(S'prime'
p3040
g2
tp3041
(lp3042
I1
aI2
aI1
as(S'business'
p3043
g41
tp3044
(lp3045
I1
aI1
aI2
as(S'basic'
p3046
g2
tp3047
(lp3048
I1
aI4
aI4
as(S'inferior'
p3049
g2
tp3050
(lp3051
I1
aI2
aI1
as(S'charitable'
p3052
g2
tp3053
(lp3054
I1
aI1
aI2
as(S'in-charge'
p3055
g2
tp3056
(lp3057
I1
aI1
aI2
as(S'particular'
p3058
g2
tp3059
(lp3060
I1
aI2
aI1
as(S'monetary'
p3061
g2
tp3062
(lp3063
I1
aI2
aI1
as(S'fa'
p3064
g41
tp3065
(lp3066
I1
aI2
aI1
as(S'repeatedly'
p3067
g6
tp3068
(lp3069
I1
aI2
aI1
as(S'far'
p3070
g6
tp3071
(lp3072
I1
aI2
aI1
as(S'unethical'
p3073
g2
tp3074
(lp3075
I1
aI2
aI1
as(S'More'
p3076
g192
tp3077
(lp3078
I1
aI4
aI1
as(S'+year'
p3079
g2
tp3080
(lp3081
I1
aI2
aI1
as(S'active'
p3082
g2
tp3083
(lp3084
I1
aI2
aI1
as(S'give'
p3085
g2
tp3086
(lp3087
I1
aI2
aI1
as(S'practice'
p3088
g41
tp3089
(lp3090
I1
aI2
aI1
as(S'golden'
p3091
g2
tp3092
(lp3093
I1
aI2
aI1
as(S'b'
p3094
g6
tp3095
(lp3096
I1
aI2
aI1
as(S'female'
p3097
g2
tp3098
(lp3099
I1
aI2
aI1
as(S'help'
p3100
g41
tp3101
(lp3102
I1
aI2
aI1
as(S'micro-management'
p3103
g2
tp3104
(lp3105
I1
aI2
aI1
as(S'Fantastic'
p3106
g2
tp3107
(lp3108
I1
aI1
aI2
as(S'managers.And'
p3109
g2
tp3110
(lp3111
I1
aI2
aI1
as(S'inefficient'
p3112
g2
tp3113
(lp3114
I1
aI2
aI1
as(S'either'
p3115
g6
tp3116
(lp3117
I1
aI2
aI1
as(S'ill'
p3118
g6
tp3119
(lp3120
I1
aI2
aI1
as(S'Recently'
p3121
g6
tp3122
(lp3123
I1
aI2
aI1
as(S'superior'
p3124
g2
tp3125
(lp3126
I1
aI2
aI1
as(S'tremendous'
p3127
g2
tp3128
(lp3129
I1
aI2
aI1
as(S'Barely'
p3130
g6
tp3131
(lp3132
I1
aI2
aI1
as(S'practical'
p3133
g2
tp3134
(lp3135
I1
aI2
aI1
as(S'first'
p3136
g2
tp3137
(lp3138
I1
aI11
aI2
as(S'separate'
p3139
g2
tp3140
(lp3141
I1
aI2
aI1
as(S'ignorant'
p3142
g2
tp3143
(lp3144
I1
aI2
aI1
as(S'completely'
p3145
g6
tp3146
(lp3147
I1
aI8
aI1
as(S'again'
p3148
g6
tp3149
(lp3150
I1
aI2
aI1
as(S'projects/client/internal'
p3151
g2
tp3152
(lp3153
I1
aI2
aI1
as(S'horribly'
p3154
g6
tp3155
(lp3156
I1
aI2
aI1
as(S'fair'
p3157
g2
tp3158
(lp3159
I1
aI2
aI3
as(S'seemingly'
p3160
g6
tp3161
(lp3162
I1
aI2
aI1
as(S'entire'
p3163
g2
tp3164
(lp3165
I1
aI6
aI1
as(S'Looks'
p3166
g16
tp3167
(lp3168
I1
aI1
aI2
as(S'hands-on'
p3169
g2
tp3170
(lp3171
I1
aI1
aI2
as(S'Especially'
p3172
g6
tp3173
(lp3174
I1
aI1
aI2
as(S'locker/shower'
p3175
g2
tp3176
(lp3177
I1
aI1
aI2
as(S'staff'
p3178
g41
tp3179
(lp3180
I1
aI1
aI2
as(S'Tremendous'
p3181
g2
tp3182
(lp3183
I1
aI2
aI1
as(S'company'
p3184
g41
tp3185
(lp3186
I1
aI6
aI1
as(S'continuous'
p3187
g2
tp3188
(lp3189
I1
aI2
aI1
as(S'future'
p3190
g2
tp3191
(lp3192
I1
aI3
aI2
as(S'unafforadble'
p3193
g2
tp3194
(lp3195
I1
aI2
aI1
as(S'did'
p3196
g41
tp3197
(lp3198
I1
aI2
aI1
as(S'work/home'
p3199
g2
tp3200
(lp3201
I1
aI1
aI2
as(S'layoffs'
p3202
g16
tp3203
(lp3204
I1
aI2
aI1
as(S'them.I'
p3205
g2
tp3206
(lp3207
I1
aI2
aI1
as(S'soul-less'
p3208
g2
tp3209
(lp3210
I1
aI2
aI1
as(S'C-Suite'
p3211
g2
tp3212
(lp3213
I1
aI2
aI1
as(S'hire'
p3214
g41
tp3215
(lp3216
I1
aI1
aI2
as(S'set'
p3217
g41
tp3218
(lp3219
I1
aI2
aI1
as(S'often'
p3220
g6
tp3221
(lp3222
I1
aI6
aI2
as(S'demonstrable'
p3223
g2
tp3224
(lp3225
I1
aI2
aI1
as(S'looks'
p3226
g16
tp3227
(lp3228
I1
aI3
aI1
as(S'creativity'
p3229
g41
tp3230
(lp3231
I1
aI2
aI1
as(S'prioritized'
p3232
g2
tp3233
(lp3234
I1
aI2
aI1
as(S'in-house'
p3235
g2
tp3236
(lp3237
I1
aI1
aI2
as(S'rarely'
p3238
g6
tp3239
(lp3240
I1
aI3
aI1
as(S'central'
p3241
g2
tp3242
(lp3243
I1
aI2
aI2
as(S'general'
p3244
g2
tp3245
(lp3246
I1
aI2
aI2
as(S'training'
p3247
g41
tp3248
(lp3249
I1
aI1
aI3
as(S'self-serve'
p3250
g2
tp3251
(lp3252
I1
aI2
aI1
as(S'excellent'
p3253
g2
tp3254
(lp3255
I1
aI2
aI1
as(S'industry'
p3256
g41
tp3257
(lp3258
I1
aI3
aI3
as(S'true'
p3259
g2
tp3260
(lp3261
I1
aI4
aI1
as(S'slave'
p3262
g2
tp3263
(lp3264
I1
aI2
aI1
as(S'long-term'
p3265
g2
tp3266
(lp3267
I1
aI4
aI1
as(S'process'
p3268
g41
tp3269
(lp3270
I1
aI2
aI2
as(S'immature'
p3271
g41
tp3272
(lp3273
I1
aI2
aI1
as(S'('
p3274
g41
tp3275
(lp3276
I1
aI1
aI2
as(S'group'
p3277
g41
tp3278
(lp3279
I1
aI1
aI2
as(S'hires'
p3280
g16
tp3281
(lp3282
I1
aI2
aI1
as(S'limited'
p3283
g2
tp3284
(lp3285
I1
aI2
aI1
as(S'sabbatical'
p3286
g2
tp3287
(lp3288
I1
aI1
aI2
as(S'friendly'
p3289
g6
tp3290
(lp3291
I1
aI2
aI1
as(S'-Generally'
p3292
g6
tp3293
(lp3294
I1
aI1
aI2
as(S'job'
p3295
g41
tp3296
(lp3297
I1
aI3
aI2
as(S'concerns'
p3298
g16
tp3299
(lp3300
I1
aI2
aI1
as(S'walls'
p3301
g16
tp3302
(lp3303
I1
aI2
aI1
as(S'Preferential'
p3304
g2
tp3305
(lp3306
I1
aI2
aI1
as(S'probably'
p3307
g6
tp3308
(lp3309
I1
aI2
aI2
as(S'autocratic'
p3310
g2
tp3311
(lp3312
I1
aI2
aI1
as.