(dp0
(S'actually'
p1
S'RB'
p2
tp3
(lp4
I1
aI1
aI2
as(S'micro-managing'
p5
S'JJ'
p6
tp7
(lp8
I1
aI1
aI2
as(S'stuff'
p9
S'NN'
p10
tp11
(lp12
I1
aI1
aI2
as(S'low'
p13
g6
tp14
(lp15
I1
aI9
aI1
as(S'Stable'
p16
g6
tp17
(lp18
I1
aI1
aI2
as(S'just'
p19
g2
tp20
(lp21
I1
aI8
aI1
as(S'non-management'
p22
g6
tp23
(lp24
I1
aI3
aI1
as(S'idealistic'
p25
g6
tp26
(lp27
I1
aI1
aI2
as(S'Services/Managed'
p28
g6
tp29
(lp30
I1
aI1
aI2
as(S'young'
p31
g6
tp32
(lp33
I1
aI2
aI1
as(S'onsite'
p34
g6
tp35
(lp36
I1
aI2
aI2
as(S'add'
p37
g6
tp38
(lp39
I1
aI2
aI1
as(S'successful'
p40
g6
tp41
(lp42
I1
aI2
aI1
as(S'level'
p43
g10
tp44
(lp45
I1
aI2
aI1
as(S"N'T"
p46
g2
tp47
(lp48
I1
aI1
aI2
as(S'manager'
p49
g10
tp50
(lp51
I1
aI2
aI1
as(S'wide'
p52
g6
tp53
(lp54
I1
aI1
aI3
as(S'already'
p55
g2
tp56
(lp57
I1
aI2
aI1
as(S'interactions'
p58
S'NNS'
p59
tp60
(lp61
I1
aI1
aI2
as(S'Incredible'
p62
g6
tp63
(lp64
I1
aI1
aI2
as(S'unresponsive/'
p65
g6
tp66
(lp67
I1
aI2
aI1
as(S'unnecessary'
p68
g6
tp69
(lp70
I1
aI2
aI1
as(S'bad'
p71
g6
tp72
(lp73
I1
aI9
aI3
as(S'safe'
p74
g6
tp75
(lp76
I1
aI1
aI2
as(S'secondary'
p77
g6
tp78
(lp79
I1
aI1
aI2
as(S'cult-like'
p80
g6
tp81
(lp82
I1
aI2
aI1
as(S'nothing'
p83
g10
tp84
(lp85
I1
aI3
aI3
as(S'+Strong'
p86
g6
tp87
(lp88
I1
aI1
aI2
as(S'quick'
p89
g6
tp90
(lp91
I1
aI1
aI2
as(S'likely'
p92
g6
tp93
(lp94
I1
aI2
aI1
as(S'directly'
p95
g2
tp96
(lp97
I1
aI2
aI1
as(S'innovative'
p98
g6
tp99
(lp100
I1
aI1
aI2
as(S'happene'
p101
g10
tp102
(lp103
I1
aI2
aI1
as(S'bureaucratic'
p104
g6
tp105
(lp106
I1
aI3
aI1
as(S'downhill'
p107
g2
tp108
(lp109
I1
aI2
aI1
as(S'poorly'
p110
g2
tp111
(lp112
I1
aI3
aI1
as(S'old'
p113
g6
tp114
(lp115
I1
aI5
aI1
as(S'favorites'
p116
g59
tp117
(lp118
I1
aI2
aI1
as(S'manageable'
p119
g6
tp120
(lp121
I1
aI1
aI2
as(S'competitive'
p122
g6
tp123
(lp124
I1
aI2
aI4
as(S'vague'
p125
g6
tp126
(lp127
I1
aI2
aI1
as(S'anonymously'
p128
g2
tp129
(lp130
I1
aI2
aI1
as(S'world-class'
p131
g6
tp132
(lp133
I1
aI1
aI2
as(S'significant'
p134
g6
tp135
(lp136
I1
aI2
aI2
as(S'unduly'
p137
g2
tp138
(lp139
I1
aI2
aI1
as(S'casual'
p140
g6
tp141
(lp142
I1
aI1
aI3
as(S'high'
p143
g6
tp144
(lp145
I1
aI6
aI4
as(S'first'
p146
g2
tp147
(lp148
I1
aI2
aI1
as(S'Ridiculous'
p149
g6
tp150
(lp151
I1
aI2
aI1
as(S'very'
p152
g2
tp153
(lp154
I1
aI31
aI21
as(S'heavily'
p155
g2
tp156
(lp157
I1
aI2
aI1
as(S'monstrous'
p158
g6
tp159
(lp160
I1
aI2
aI1
as(S'officially'
p161
g2
tp162
(lp163
I1
aI2
aI1
as(S'buddy'
p164
g6
tp165
(lp166
I1
aI2
aI1
as(S'forward'
p167
g2
tp168
(lp169
I1
aI1
aI2
as(S'Seriously'
p170
g2
tp171
(lp172
I1
aI2
aI1
as(S'Huge'
p173
g6
tp174
(lp175
I1
aI2
aI1
as(S'non-exempt'
p176
g6
tp177
(lp178
I1
aI1
aI2
as(S'Once'
p179
g2
tp180
(lp181
I1
aI2
aI1
as(S'results'
p182
g59
tp183
(lp184
I1
aI2
aI1
as(S'more'
p185
S'RBR'
p186
tp187
(lp188
I1
aI5
aI3
as(S'now'
p189
g2
tp190
(lp191
I1
aI6
aI1
as(S'attractive'
p192
g6
tp193
(lp194
I1
aI2
aI1
as(S'relatively'
p195
g2
tp196
(lp197
I1
aI1
aI2
as(S'single'
p198
g6
tp199
(lp200
I1
aI3
aI1
as(S'global'
p201
g6
tp202
(lp203
I1
aI3
aI5
as(S'plants'
p204
g59
tp205
(lp206
I1
aI1
aI2
as(S'consciously'
p207
g2
tp208
(lp209
I1
aI2
aI1
as(S'good'
p210
g6
tp211
(lp212
I1
aI21
aI39
as(S'busy'
p213
g6
tp214
(lp215
I1
aI2
aI1
as(S'skilled'
p216
g6
tp217
(lp218
I1
aI2
aI1
as(S'arrogance'
p219
g10
tp220
(lp221
I1
aI2
aI1
as(S'little'
p222
g6
tp223
(lp224
I1
aI9
aI3
as(S'verbal'
p225
g6
tp226
(lp227
I1
aI3
aI1
as(S'mental'
p228
g6
tp229
(lp230
I1
aI2
aI2
as(S'lucky'
p231
g6
tp232
(lp233
I1
aI1
aI2
as(S'seasonal'
p234
g6
tp235
(lp236
I1
aI2
aI1
as(S'numbingly'
p237
g2
tp238
(lp239
I1
aI2
aI1
as(S'workforce'
p240
g10
tp241
(lp242
I1
aI2
aI1
as(S'common'
p243
g6
tp244
(lp245
I1
aI2
aI1
as(S'middle'
p246
g6
tp247
(lp248
I1
aI4
aI1
as(S'mostly'
p249
g2
tp250
(lp251
I1
aI2
aI1
as(S'quite'
p252
g2
tp253
(lp254
I1
aI2
aI1
as(S'overtime'
p255
g10
tp256
(lp257
I1
aI1
aI2
as(S'dependable'
p258
g6
tp259
(lp260
I1
aI1
aI2
as(S'cost'
p261
g10
tp262
(lp263
I1
aI2
aI1
as(S'pretty'
p264
g2
tp265
(lp266
I1
aI2
aI2
as(S'prisoner'
p267
g10
tp268
(lp269
I1
aI2
aI1
as(S'social'
p270
g6
tp271
(lp272
I1
aI1
aI2
as(S'On-site'
p273
g6
tp274
(lp275
I1
aI1
aI2
as(S'barely'
p276
g2
tp277
(lp278
I1
aI2
aI1
as(S'locations'
p279
g59
tp280
(lp281
I1
aI1
aI2
as(S'even'
p282
g2
tp283
(lp284
I1
aI6
aI1
as(S'benefits'
p285
g59
tp286
(lp287
I1
aI1
aI4
as(S'knowledgeable'
p288
g6
tp289
(lp290
I1
aI1
aI2
as(S'walls'
p291
g59
tp292
(lp293
I1
aI2
aI1
as(S'Generous'
p294
g6
tp295
(lp296
I1
aI1
aI2
as(S'minimum'
p297
g6
tp298
(lp299
I1
aI2
aI1
as(S'third'
p300
g6
tp301
(lp302
I1
aI3
aI1
as(S'NOT'
p303
g2
tp304
(lp305
I1
aI2
aI1
as(S'medical'
p306
g6
tp307
(lp308
I1
aI2
aI3
as(S'professional'
p309
g6
tp310
(lp311
I1
aI4
aI1
as(S'logical'
p312
g6
tp313
(lp314
I1
aI2
aI1
as(S'decidedly'
p315
g2
tp316
(lp317
I1
aI2
aI1
as(S'outside'
p318
g6
tp319
(lp320
I1
aI1
aI2
as(S'oil/gas'
p321
g6
tp322
(lp323
I1
aI2
aI1
as(S'local'
p324
g6
tp325
(lp326
I1
aI2
aI1
as(S'hard'
p327
g6
tp328
(lp329
I1
aI4
aI2
as(S'!'
p330
g10
tp331
(lp332
I1
aI4
aI1
as(S'educational'
p333
g6
tp334
(lp335
I1
aI2
aI2
as(S'sensitive'
p336
g6
tp337
(lp338
I1
aI2
aI1
as(S')'
p339
g10
tp340
(lp341
I1
aI2
aI1
as(S'private'
p342
g6
tp343
(lp344
I1
aI1
aI2
as(S'work'
p345
g10
tp346
(lp347
I1
aI1
aI2
as(S'promotional'
p348
g6
tp349
(lp350
I1
aI3
aI1
as(S'wrong'
p351
g6
tp352
(lp353
I1
aI3
aI1
as(S'-Solid'
p354
g6
tp355
(lp356
I1
aI1
aI2
as(S'nearly'
p357
g2
tp358
(lp359
I1
aI2
aI1
as(S'technical'
p360
g6
tp361
(lp362
I1
aI6
aI2
as(S'region'
p363
g10
tp364
(lp365
I1
aI1
aI2
as(S'assistant'
p366
g6
tp367
(lp368
I1
aI2
aI1
as(S'value'
p369
g10
tp370
(lp371
I1
aI1
aI2
as(S'+Industry'
p372
g6
tp373
(lp374
I1
aI1
aI2
as(S'important'
p375
g6
tp376
(lp377
I1
aI2
aI1
as(S'Oppressive'
p378
g6
tp379
(lp380
I1
aI2
aI1
as(S'own'
p381
g6
tp382
(lp383
I1
aI5
aI3
as(S'simple'
p384
g6
tp385
(lp386
I1
aI3
aI1
as(S'Always'
p387
g2
tp388
(lp389
I1
aI2
aI1
as(S'mentioning'
p390
g10
tp391
(lp392
I1
aI1
aI2
as(S'Major'
p393
g6
tp394
(lp395
I1
aI1
aI2
as(S'Free-Fire'
p396
g6
tp397
(lp398
I1
aI2
aI1
as(S'incredible'
p399
g6
tp400
(lp401
I1
aI1
aI3
as(S'several'
p402
g6
tp403
(lp404
I1
aI2
aI1
as(S'good/bad'
p405
g6
tp406
(lp407
I1
aI2
aI1
as(S'extremely'
p408
g2
tp409
(lp410
I1
aI10
aI2
as(S'High'
p411
g6
tp412
(lp413
I1
aI6
aI1
as(S'code'
p414
g10
tp415
(lp416
I1
aI1
aI2
as(S'emotional'
p417
g6
tp418
(lp419
I1
aI2
aI1
as(S'exciting'
p420
g6
tp421
(lp422
I1
aI1
aI2
as(S'strongly'
p423
g2
tp424
(lp425
I1
aI1
aI2
as(S'-Slow'
p426
g6
tp427
(lp428
I1
aI2
aI1
as(S'managers'
p429
g59
tp430
(lp431
I1
aI2
aI1
as(S'past'
p432
g6
tp433
(lp434
I1
aI2
aI1
as(S'rich'
p435
g6
tp436
(lp437
I1
aI1
aI3
as(S'promotion/'
p438
g6
tp439
(lp440
I1
aI2
aI1
as(S'intern'
p441
g10
tp442
(lp443
I1
aI2
aI1
as(S'departments'
p444
g59
tp445
(lp446
I1
aI1
aI3
as(S'worth'
p447
g6
tp448
(lp449
I1
aI2
aI2
as(S'wasteful'
p450
g6
tp451
(lp452
I1
aI4
aI1
as(S'generally'
p453
g2
tp454
(lp455
I1
aI1
aI3
as(S'free'
p456
g6
tp457
(lp458
I1
aI1
aI4
as(S'however'
p459
g2
tp460
(lp461
I1
aI1
aI2
as(S'morale'
p462
g10
tp463
(lp464
I1
aI2
aI1
as(S'serial'
p465
g6
tp466
(lp467
I1
aI2
aI1
as(S'many'
p468
g6
tp469
(lp470
I1
aI22
aI8
as(S'Annual'
p471
g6
tp472
(lp473
I1
aI1
aI2
as(S'former'
p474
g6
tp475
(lp476
I1
aI2
aI1
as(S'such'
p477
g6
tp478
(lp479
I1
aI2
aI1
as(S'daily'
p480
g6
tp481
(lp482
I1
aI4
aI3
as(S'rigid'
p483
g6
tp484
(lp485
I1
aI2
aI1
as(S'Too'
p486
g2
tp487
(lp488
I1
aI6
aI1
as(S'essential'
p489
g6
tp490
(lp491
I1
aI2
aI1
as(S'oil/energy'
p492
g6
tp493
(lp494
I1
aI2
aI1
as(S'exceptional'
p495
g6
tp496
(lp497
I1
aI1
aI2
as(S'glorious'
p498
g6
tp499
(lp500
I1
aI2
aI1
as(S'well'
p501
g2
tp502
(lp503
I1
aI2
aI3
as(S'insight'
p504
g10
tp505
(lp506
I1
aI2
aI1
as(S'open-door'
p507
g6
tp508
(lp509
I1
aI2
aI1
as(S'full'
p510
g6
tp511
(lp512
I1
aI4
aI2
as(S'Large'
p513
g6
tp514
(lp515
I1
aI2
aI2
as(S'interesting'
p516
g6
tp517
(lp518
I1
aI2
aI3
as(S'receive'
p519
g6
tp520
(lp521
I1
aI2
aI1
as(S'objective'
p522
g6
tp523
(lp524
I1
aI2
aI1
as(S'line'
p525
g10
tp526
(lp527
I1
aI3
aI1
as(S'here'
p528
g2
tp529
(lp530
I1
aI2
aI1
as(S'negative'
p531
g6
tp532
(lp533
I1
aI4
aI1
as(S'Institutional'
p534
g6
tp535
(lp536
I1
aI2
aI1
as(S'builder'
p537
g10
tp538
(lp539
I1
aI1
aI2
as(S'ever'
p540
g2
tp541
(lp542
I1
aI4
aI1
as(S'end-of-month'
p543
g6
tp544
(lp545
I1
aI2
aI1
as(S'easily'
p546
g2
tp547
(lp548
I1
aI2
aI1
as(S'OK'
p549
g10
tp550
(lp551
I1
aI2
aI1
as(S'complete'
p552
g6
tp553
(lp554
I1
aI2
aI1
as(S'cleverly'
p555
g2
tp556
(lp557
I1
aI2
aI1
as(S'C-level'
p558
g6
tp559
(lp560
I1
aI2
aI1
as(S'future'
p561
g10
tp562
(lp563
I1
aI2
aI1
as(S'dysfunctional'
p564
g6
tp565
(lp566
I1
aI2
aI1
as(S'almost'
p567
g2
tp568
(lp569
I1
aI4
aI2
as(S'annual'
p570
g6
tp571
(lp572
I1
aI4
aI1
as(S'special'
p573
g6
tp574
(lp575
I1
aI2
aI1
as(S'major'
p576
g6
tp577
(lp578
I1
aI3
aI2
as(S'Unmatched'
p579
g6
tp580
(lp581
I1
aI1
aI2
as(S'WORK-LIFE'
p582
g6
tp583
(lp584
I1
aI2
aI1
as(S'contractor'
p585
g10
tp586
(lp587
I1
aI2
aI1
as(S'improvement'
p588
g10
tp589
(lp590
I1
aI4
aI1
as(S'retail'
p591
g6
tp592
(lp593
I1
aI5
aI1
as(S'Terrible'
p594
g6
tp595
(lp596
I1
aI2
aI1
as(S'..the'
p597
g6
tp598
(lp599
I1
aI2
aI1
as(S'drastically'
p600
g2
tp601
(lp602
I1
aI2
aI1
as(S'resume'
p603
g10
tp604
(lp605
I1
aI1
aI3
as(S'always'
p606
g2
tp607
(lp608
I1
aI3
aI3
as(S'creative'
p609
g6
tp610
(lp611
I1
aI3
aI1
as(S'hard'
p612
g2
tp613
(lp614
I1
aI2
aI1
as(S'cubical'
p615
g6
tp616
(lp617
I1
aI2
aI1
as(S'years'
p618
g59
tp619
(lp620
I1
aI2
aI1
as(S'qualified'
p621
g6
tp622
(lp623
I1
aI2
aI1
as(S'awful'
p624
g6
tp625
(lp626
I1
aI1
aI2
as(S'extra'
p627
g6
tp628
(lp629
I1
aI1
aI2
as(S'expensive'
p630
g6
tp631
(lp632
I1
aI2
aI1
as(S'next'
p633
g6
tp634
(lp635
I1
aI4
aI2
as(S'upper'
p636
g6
tp637
(lp638
I1
aI5
aI2
as(S'growth'
p639
g10
tp640
(lp641
I1
aI2
aI1
as(S'fields'
p642
g59
tp643
(lp644
I1
aI2
aI1
as(S'safety'
p645
g10
tp646
(lp647
I1
aI1
aI2
as(S'mad'
p648
g10
tp649
(lp650
I1
aI2
aI1
as(S'unprofessional'
p651
g6
tp652
(lp653
I1
aI2
aI1
as(S'insiders'
p654
g59
tp655
(lp656
I1
aI1
aI2
as(S'financial'
p657
g6
tp658
(lp659
I1
aI1
aI2
as(S'real'
p660
g6
tp661
(lp662
I1
aI4
aI1
as(S'funny'
p663
g6
tp664
(lp665
I1
aI2
aI1
as(S'submission'
p666
g10
tp667
(lp668
I1
aI2
aI1
as(S'-Some'
p669
g6
tp670
(lp671
I1
aI1
aI2
as(S'balance'
p672
g10
tp673
(lp674
I1
aI1
aI4
as(S'specific'
p675
g6
tp676
(lp677
I1
aI1
aI2
as(S'lasting'
p678
g6
tp679
(lp680
I1
aI2
aI1
as(S'Other'
p681
g6
tp682
(lp683
I1
aI2
aI1
as(S'cubicles'
p684
g59
tp685
(lp686
I1
aI1
aI2
as(S'experienced'
p687
g6
tp688
(lp689
I1
aI2
aI1
as(S'key'
p690
g6
tp691
(lp692
I1
aI2
aI1
as(S'stable'
p693
g6
tp694
(lp695
I1
aI1
aI3
as(S'once'
p696
g2
tp697
(lp698
I1
aI3
aI1
as(S'appreciated,'
p699
g6
tp700
(lp701
I1
aI2
aI1
as(S'manual'
p702
g6
tp703
(lp704
I1
aI2
aI1
as(S'French'
p705
g6
tp706
(lp707
I1
aI2
aI2
as(S'CONSTANTLY'
p708
g2
tp709
(lp710
I1
aI1
aI2
as(S'fundamental'
p711
g6
tp712
(lp713
I1
aI2
aI1
as(S'senior'
p714
g6
tp715
(lp716
I1
aI6
aI1
as(S'Many'
p717
g6
tp718
(lp719
I1
aI6
aI3
as(S'highly'
p720
g2
tp721
(lp722
I1
aI1
aI3
as(S'expenses'
p723
g59
tp724
(lp725
I1
aI2
aI1
as(S'comparable'
p726
g6
tp727
(lp728
I1
aI2
aI1
as(S'galactic'
p729
g6
tp730
(lp731
I1
aI2
aI1
as(S'Not'
p732
g2
tp733
(lp734
I1
aI3
aI1
as(S'top'
p735
g6
tp736
(lp737
I1
aI6
aI4
as(S'recognizable'
p738
g6
tp739
(lp740
I1
aI1
aI2
as(S'truly'
p741
g2
tp742
(lp743
I1
aI3
aI1
as(S'peers'
p744
g59
tp745
(lp746
I1
aI2
aI1
as(S'rough'
p747
g6
tp748
(lp749
I1
aI2
aI1
as(S'steal'
p750
g6
tp751
(lp752
I1
aI2
aI1
as(S'time'
p753
g10
tp754
(lp755
I1
aI2
aI2
as(S'One-Stop'
p756
g6
tp757
(lp758
I1
aI2
aI1
as(S'gas'
p759
g10
tp760
(lp761
I1
aI1
aI2
as(S'REALLY'
p762
g2
tp763
(lp764
I1
aI1
aI2
as(S'Internal'
p765
g6
tp766
(lp767
I1
aI2
aI1
as(S'Vindictive'
p768
g6
tp769
(lp770
I1
aI3
aI1
as(S'disposable'
p771
g6
tp772
(lp773
I1
aI2
aI1
as(S'strong'
p774
g6
tp775
(lp776
I1
aI5
aI2
as(S'dead'
p777
g6
tp778
(lp779
I1
aI2
aI1
as(S'ac'
p780
g10
tp781
(lp782
I1
aI2
aI1
as(S'slow'
p783
g6
tp784
(lp785
I1
aI2
aI1
as(S'native'
p786
g6
tp787
(lp788
I1
aI2
aI1
as(S'Never'
p789
g2
tp790
(lp791
I1
aI2
aI2
as(S'hours'
p792
g59
tp793
(lp794
I1
aI1
aI5
as(S'managment'
p795
g10
tp796
(lp797
I1
aI2
aI1
as(S'divisions'
p798
g59
tp799
(lp800
I1
aI3
aI1
as(S'personal'
p801
g6
tp802
(lp803
I1
aI7
aI3
as(S'sprawling'
p804
g6
tp805
(lp806
I1
aI2
aI1
as(S'internal'
p807
g6
tp808
(lp809
I1
aI5
aI1
as(S'service'
p810
g10
tp811
(lp812
I1
aI1
aI2
as(S'firms'
p813
g59
tp814
(lp815
I1
aI2
aI1
as(S'Constantly'
p816
g2
tp817
(lp818
I1
aI3
aI1
as(S'experience'
p819
g10
tp820
(lp821
I1
aI2
aI3
as(S'feelings'
p822
g59
tp823
(lp824
I1
aI2
aI1
as(S'happy'
p825
g6
tp826
(lp827
I1
aI3
aI1
as(S'one-way'
p828
g6
tp829
(lp830
I1
aI2
aI1
as(S'skills'
p831
g59
tp832
(lp833
I1
aI1
aI2
as(S'politically'
p834
g2
tp835
(lp836
I1
aI4
aI1
as(S'-Arrogant'
p837
g6
tp838
(lp839
I1
aI2
aI1
as(S'customer'
p840
g10
tp841
(lp842
I1
aI1
aI2
as(S'all'
p843
g2
tp844
(lp845
I1
aI2
aI1
as(S'necessary'
p846
g6
tp847
(lp848
I1
aI2
aI1
as(S'capable'
p849
g6
tp850
(lp851
I1
aI1
aI2
as(S'long'
p852
g6
tp853
(lp854
I1
aI4
aI2
as(S'travel'
p855
g10
tp856
(lp857
I1
aI1
aI2
as(S'literally'
p858
g2
tp859
(lp860
I1
aI2
aI1
as(S'clinically'
p861
g2
tp862
(lp863
I1
aI2
aI1
as(S'weak/poor'
p864
g6
tp865
(lp866
I1
aI2
aI1
as(S'overall'
p867
g6
tp868
(lp869
I1
aI3
aI1
as(S'laziness'
p870
g10
tp871
(lp872
I1
aI2
aI1
as(S'work-life'
p873
g6
tp874
(lp875
I1
aI1
aI2
as(S'consulting'
p876
g10
tp877
(lp878
I1
aI2
aI1
as(S'unpractical'
p879
g6
tp880
(lp881
I1
aI2
aI1
as(S'constantly'
p882
g2
tp883
(lp884
I1
aI5
aI1
as(S'absolute'
p885
g6
tp886
(lp887
I1
aI2
aI1
as(S'offices'
p888
g59
tp889
(lp890
I1
aI1
aI3
as(S'other'
p891
g6
tp892
(lp893
I1
aI19
aI6
as(S'Outstanding'
p894
g6
tp895
(lp896
I1
aI1
aI2
as(S'away'
p897
g2
tp898
(lp899
I1
aI2
aI1
as(S'fast'
p900
g6
tp901
(lp902
I1
aI2
aI1
as(S'sympathizers'
p903
g59
tp904
(lp905
I1
aI2
aI1
as(S'marital'
p906
g6
tp907
(lp908
I1
aI2
aI1
as(S'management'
p909
g10
tp910
(lp911
I1
aI2
aI1
as(S'basically'
p912
g2
tp913
(lp914
I1
aI3
aI1
as(S'lifelong'
p915
g6
tp916
(lp917
I1
aI1
aI2
as(S'expectations'
p918
g59
tp919
(lp920
I1
aI2
aI1
as(S'Great'
p921
g6
tp922
(lp923
I1
aI1
aI2
as(S'cold-calling'
p924
g6
tp925
(lp926
I1
aI2
aI1
as(S'year'
p927
g10
tp928
(lp929
I1
aI2
aI1
as(S'lateral'
p930
g6
tp931
(lp932
I1
aI2
aI1
as(S'package'
p933
g10
tp934
(lp935
I1
aI1
aI2
as(S'opportunity'
p936
g10
tp937
(lp938
I1
aI2
aI1
as(S'fat'
p939
g6
tp940
(lp941
I1
aI2
aI1
as(S'Japanese'
p942
g6
tp943
(lp944
I1
aI2
aI2
as(S're-org'
p945
g6
tp946
(lp947
I1
aI2
aI1
as(S'severely'
p948
g2
tp949
(lp950
I1
aI2
aI1
as(S'over-all'
p951
g6
tp952
(lp953
I1
aI1
aI2
as(S'cross-functional'
p954
g6
tp955
(lp956
I1
aI2
aI1
as(S'rather'
p957
g2
tp958
(lp959
I1
aI2
aI1
as(S'theoretically'
p960
g2
tp961
(lp962
I1
aI2
aI1
as(S'great'
p963
g6
tp964
(lp965
I1
aI10
aI16
as(S'career'
p966
g10
tp967
(lp968
I1
aI3
aI1
as(S'mid-lower'
p969
g6
tp970
(lp971
I1
aI2
aI1
as(S'day'
p972
g10
tp973
(lp974
I1
aI2
aI1
as(S'salaries'
p975
g59
tp976
(lp977
I1
aI1
aI2
as(S'thoughtful'
p978
g6
tp979
(lp980
I1
aI2
aI1
as(S'recallable'
p981
g6
tp982
(lp983
I1
aI2
aI1
as(S'big'
p984
g6
tp985
(lp986
I1
aI3
aI5
as(S'consistently'
p987
g2
tp988
(lp989
I1
aI3
aI1
as(S'huge'
p990
g6
tp991
(lp992
I1
aI4
aI1
as(S'employees'
p993
g59
tp994
(lp995
I1
aI7
aI2
as(S'Now'
p996
g2
tp997
(lp998
I1
aI2
aI1
as(S'Opportunities'
p999
g59
tp1000
(lp1001
I1
aI2
aI1
as(S'care'
p1002
g10
tp1003
(lp1004
I1
aI1
aI2
as(S'numerous'
p1005
g6
tp1006
(lp1007
I1
aI1
aI2
as(S'products'
p1008
g59
tp1009
(lp1010
I1
aI1
aI2
as(S'wonderful'
p1011
g6
tp1012
(lp1013
I1
aI2
aI1
as(S'manner'
p1014
g10
tp1015
(lp1016
I1
aI2
aI1
as(S'alone'
p1017
g2
tp1018
(lp1019
I1
aI3
aI1
as(S'national'
p1020
g6
tp1021
(lp1022
I1
aI3
aI1
as(S'cultural'
p1023
g6
tp1024
(lp1025
I1
aI1
aI2
as(S'Mid-level'
p1026
g6
tp1027
(lp1028
I1
aI2
aI1
as(S'German'
p1029
g6
tp1030
(lp1031
I1
aI1
aI2
as(S'Corporate'
p1032
g6
tp1033
(lp1034
I1
aI2
aI1
as(S'late'
p1035
g6
tp1036
(lp1037
I1
aI2
aI2
as(S'definitely'
p1038
g2
tp1039
(lp1040
I1
aI2
aI1
as(S'prospective'
p1041
g6
tp1042
(lp1043
I1
aI2
aI1
as(S'skin'
p1044
g10
tp1045
(lp1046
I1
aI2
aI1
as(S'-VERY'
p1047
g6
tp1048
(lp1049
I1
aI2
aI1
as(S'tactical'
p1050
g6
tp1051
(lp1052
I1
aI2
aI1
as(S'blows'
p1053
g59
tp1054
(lp1055
I1
aI2
aI1
as(S'times'
p1056
g59
tp1057
(lp1058
I1
aI2
aI1
as(S'possibly'
p1059
g2
tp1060
(lp1061
I1
aI2
aI2
as(S'non-diverse'
p1062
g6
tp1063
(lp1064
I1
aI2
aI1
as(S'main'
p1065
g6
tp1066
(lp1067
I1
aI1
aI2
as(S'Outside'
p1068
g6
tp1069
(lp1070
I1
aI1
aI2
as(S'so'
p1071
g2
tp1072
(lp1073
I1
aI7
aI1
as(S'previously'
p1074
g2
tp1075
(lp1076
I1
aI2
aI1
as(S'large'
p1077
g6
tp1078
(lp1079
I1
aI2
aI2
as(S'technically'
p1080
g2
tp1081
(lp1082
I1
aI2
aI1
as(S'much'
p1083
g2
tp1084
(lp1085
I1
aI3
aI1
as(S'groups'
p1086
g59
tp1087
(lp1088
I1
aI2
aI1
as(S'serious'
p1089
g6
tp1090
(lp1091
I1
aI2
aI1
as(S'incredibly'
p1092
g2
tp1093
(lp1094
I1
aI2
aI1
as(S'either'
p1095
g2
tp1096
(lp1097
I1
aI2
aI1
as(S'Daily'
p1098
g2
tp1099
(lp1100
I1
aI2
aI1
as(S'Unrealistic'
p1101
g6
tp1102
(lp1103
I1
aI2
aI1
as(S'intimidation'
p1104
g10
tp1105
(lp1106
I1
aI2
aI1
as(S'relative'
p1107
g6
tp1108
(lp1109
I1
aI2
aI1
as(S'different'
p1110
g6
tp1111
(lp1112
I1
aI6
aI4
as(S'critical'
p1113
g6
tp1114
(lp1115
I1
aI2
aI1
as(S'Enormously'
p1116
g2
tp1117
(lp1118
I1
aI2
aI1
as(S'average'
p1119
g6
tp1120
(lp1121
I1
aI3
aI1
as(S'steadily'
p1122
g2
tp1123
(lp1124
I1
aI2
aI1
as(S'automotive'
p1125
g6
tp1126
(lp1127
I1
aI1
aI4
as(S'advanced'
p1128
g6
tp1129
(lp1130
I1
aI2
aI1
as(S'public'
p1131
g6
tp1132
(lp1133
I1
aI2
aI1
as(S'additional'
p1134
g6
tp1135
(lp1136
I1
aI3
aI1
as(S'flexible'
p1137
g6
tp1138
(lp1139
I1
aI2
aI4
as(S'immediate'
p1140
g6
tp1141
(lp1142
I1
aI1
aI2
as(S'conservative'
p1143
g6
tp1144
(lp1145
I1
aI1
aI2
as(S'various'
p1146
g6
tp1147
(lp1148
I1
aI1
aI4
as(S'disciplines'
p1149
g59
tp1150
(lp1151
I1
aI1
aI2
as(S'trite'
p1152
g6
tp1153
(lp1154
I1
aI2
aI1
as(S'alternative'
p1155
g6
tp1156
(lp1157
I1
aI2
aI1
as(S'pleasant'
p1158
g6
tp1159
(lp1160
I1
aI1
aI2
as(S'last'
p1161
g6
tp1162
(lp1163
I1
aI3
aI1
as(S'couple'
p1164
g6
tp1165
(lp1166
I1
aI2
aI1
as(S'mainly'
p1167
g2
tp1168
(lp1169
I1
aI2
aI1
as(S'poor'
p1170
g6
tp1171
(lp1172
I1
aI11
aI2
as(S'ONLY'
p1173
g2
tp1174
(lp1175
I1
aI2
aI1
as(S'beneffit'
p1176
g10
tp1177
(lp1178
I1
aI1
aI2
as(S'absolutely'
p1179
g2
tp1180
(lp1181
I1
aI2
aI1
as(S'guidance'
p1182
g10
tp1183
(lp1184
I1
aI2
aI1
as(S'really'
p1185
g2
tp1186
(lp1187
I1
aI9
aI3
as(S'also'
p1188
g2
tp1189
(lp1190
I1
aI3
aI2
as(S'bonus'
p1191
g10
tp1192
(lp1193
I1
aI1
aI2
as(S'Long'
p1194
g6
tp1195
(lp1196
I1
aI2
aI1
as(S'only'
p1197
g6
tp1198
(lp1199
I1
aI6
aI3
as(S'new'
p1200
g6
tp1201
(lp1202
I1
aI11
aI5
as(S"n't"
p1203
g2
tp1204
(lp1205
I1
aI55
aI7
as(S'isnt'
p1206
g10
tp1207
(lp1208
I1
aI2
aI1
as(S'quarterly'
p1209
g6
tp1210
(lp1211
I1
aI2
aI1
as(S'same'
p1212
g6
tp1213
(lp1214
I1
aI7
aI3
as(S'yearly'
p1215
g6
tp1216
(lp1217
I1
aI1
aI2
as(S'Highly'
p1218
g2
tp1219
(lp1220
I1
aI5
aI2
as(S'initial'
p1221
g6
tp1222
(lp1223
I1
aI1
aI2
as(S'vacation'
p1224
g10
tp1225
(lp1226
I1
aI2
aI1
as(S'manipulative'
p1227
g6
tp1228
(lp1229
I1
aI2
aI1
as(S'workplace'
p1230
g10
tp1231
(lp1232
I1
aI1
aI2
as(S'international'
p1233
g6
tp1234
(lp1235
I1
aI3
aI2
as(S'dynamic'
p1236
g6
tp1237
(lp1238
I1
aI2
aI1
as(S'abundant'
p1239
g6
tp1240
(lp1241
I1
aI1
aI2
as(S'Zone'
p1242
g10
tp1243
(lp1244
I1
aI2
aI1
as(S'too'
p1245
g2
tp1246
(lp1247
I1
aI12
aI3
as(S'corporate'
p1248
g6
tp1249
(lp1250
I1
aI10
aI1
as(S'regional'
p1251
g6
tp1252
(lp1253
I1
aI2
aI1
as(S'early'
p1254
g6
tp1255
(lp1256
I1
aI3
aI1
as(S'painfully'
p1257
g2
tp1258
(lp1259
I1
aI2
aI1
as(S'unhappy'
p1260
g6
tp1261
(lp1262
I1
aI2
aI1
as(S'political'
p1263
g6
tp1264
(lp1265
I1
aI8
aI1
as(S'direct'
p1266
g6
tp1267
(lp1268
I1
aI3
aI2
as(S'blatantly'
p1269
g2
tp1270
(lp1271
I1
aI2
aI1
as(S'then'
p1272
g2
tp1273
(lp1274
I1
aI3
aI1
as(S'glacial'
p1275
g6
tp1276
(lp1277
I1
aI2
aI1
as(S'outrageous'
p1278
g6
tp1279
(lp1280
I1
aI2
aI1
as(S'essentially'
p1281
g2
tp1282
(lp1283
I1
aI2
aI1
as(S'individual'
p1284
g6
tp1285
(lp1286
I1
aI2
aI2
as(S'work/life'
p1287
g6
tp1288
(lp1289
I1
aI1
aI3
as(S'postal'
p1290
g6
tp1291
(lp1292
I1
aI2
aI1
as(S'centralized'
p1293
g6
tp1294
(lp1295
I1
aI2
aI1
as(S'unstable'
p1296
g6
tp1297
(lp1298
I1
aI2
aI1
as(S'basic'
p1299
g6
tp1300
(lp1301
I1
aI1
aI2
as(S'anything'
p1302
g10
tp1303
(lp1304
I1
aI2
aI1
as(S'charitable'
p1305
g6
tp1306
(lp1307
I1
aI1
aI2
as(S'partly'
p1308
g2
tp1309
(lp1310
I1
aI2
aI1
as(S'impersonal'
p1311
g6
tp1312
(lp1313
I1
aI2
aI1
as(S'still'
p1314
g2
tp1315
(lp1316
I1
aI2
aI1
as(S'monetary'
p1317
g6
tp1318
(lp1319
I1
aI2
aI1
as(S'overseas'
p1320
g6
tp1321
(lp1322
I1
aI1
aI2
as(S'short'
p1323
g6
tp1324
(lp1325
I1
aI3
aI1
as(S'overwork/overstressed'
p1326
g6
tp1327
(lp1328
I1
aI2
aI1
as(S'Extremely'
p1329
g2
tp1330
(lp1331
I1
aI3
aI1
as(S'current'
p1332
g6
tp1333
(lp1334
I1
aI3
aI3
as(S'ending'
p1335
g10
tp1336
(lp1337
I1
aI2
aI1
as(S'More'
p1338
g186
tp1339
(lp1340
I1
aI3
aI1
as(S'+year'
p1341
g6
tp1342
(lp1343
I1
aI2
aI1
as(S'give'
p1344
g6
tp1345
(lp1346
I1
aI2
aI1
as(S'better'
p1347
g186
tp1348
(lp1349
I1
aI2
aI1
as(S'Medical'
p1350
g6
tp1351
(lp1352
I1
aI1
aI2
as(S'b'
p1353
g2
tp1354
(lp1355
I1
aI2
aI1
as(S'micro-management'
p1356
g6
tp1357
(lp1358
I1
aI2
aI1
as(S'price'
p1359
g10
tp1360
(lp1361
I1
aI1
aI2
as(S'unenjoyable'
p1362
g6
tp1363
(lp1364
I1
aI2
aI1
as(S'thus'
p1365
g2
tp1366
(lp1367
I1
aI2
aI1
as(S'Usual'
p1368
g6
tp1369
(lp1370
I1
aI2
aI1
as(S'few'
p1371
g6
tp1372
(lp1373
I1
aI9
aI3
as(S'policies'
p1374
g59
tp1375
(lp1376
I1
aI1
aI2
as(S'Competitive'
p1377
g6
tp1378
(lp1379
I1
aI1
aI2
as(S'Politically'
p1380
g2
tp1381
(lp1382
I1
aI2
aI1
as(S'superior'
p1383
g6
tp1384
(lp1385
I1
aI2
aI1
as(S'monthly'
p1386
g6
tp1387
(lp1388
I1
aI1
aI2
as(S'culture/workplace'
p1389
g10
tp1390
(lp1391
I1
aI2
aI1
as(S'first'
p1392
g6
tp1393
(lp1394
I1
aI2
aI1
as(S'ergonomics'
p1395
g59
tp1396
(lp1397
I1
aI1
aI2
as(S'mirrors'
p1398
g59
tp1399
(lp1400
I1
aI2
aI1
as(S'touch'
p1401
g6
tp1402
(lp1403
I1
aI2
aI1
as(S'Sucks'
p1404
g59
tp1405
(lp1406
I1
aI3
aI1
as(S'inherent'
p1407
g6
tp1408
(lp1409
I1
aI2
aI1
as(S'potential'
p1410
g6
tp1411
(lp1412
I1
aI5
aI2
as(S'surprisingly'
p1413
g2
tp1414
(lp1415
I1
aI1
aI2
as(S'completely'
p1416
g2
tp1417
(lp1418
I1
aI4
aI1
as(S'recently'
p1419
g2
tp1420
(lp1421
I1
aI2
aI1
as(S'much'
p1422
g6
tp1423
(lp1424
I1
aI12
aI1
as(S'fair'
p1425
g6
tp1426
(lp1427
I1
aI1
aI2
as(S'scared'
p1428
g6
tp1429
(lp1430
I1
aI1
aI2
as(S'favorite'
p1431
g6
tp1432
(lp1433
I1
aI2
aI1
as(S'enough'
p1434
g2
tp1435
(lp1436
I1
aI2
aI1
as(S'entire'
p1437
g6
tp1438
(lp1439
I1
aI4
aI1
as(S'hands-on'
p1440
g6
tp1441
(lp1442
I1
aI1
aI2
as(S'ideas'
p1443
g59
tp1444
(lp1445
I1
aI2
aI1
as(S'+Financial'
p1446
g6
tp1447
(lp1448
I1
aI1
aI2
as(S'British'
p1449
g6
tp1450
(lp1451
I1
aI2
aI1
as(S'entrepreneurial'
p1452
g6
tp1453
(lp1454
I1
aI2
aI1
as(S'company'
p1455
g10
tp1456
(lp1457
I1
aI2
aI1
as(S'whole'
p1458
g6
tp1459
(lp1460
I1
aI3
aI1
as(S'continuous'
p1461
g6
tp1462
(lp1463
I1
aI2
aI1
as(S'inflation-based'
p1464
g6
tp1465
(lp1466
I1
aI2
aI1
as(S'future'
p1467
g6
tp1468
(lp1469
I1
aI2
aI2
as(S'following'
p1470
g6
tp1471
(lp1472
I1
aI2
aI1
as(S'soul-less'
p1473
g6
tp1474
(lp1475
I1
aI2
aI1
as(S'culture'
p1476
g10
tp1477
(lp1478
I1
aI1
aI2
as(S'never'
p1479
g2
tp1480
(lp1481
I1
aI10
aI1
as(S'location'
p1482
g10
tp1483
(lp1484
I1
aI1
aI2
as(S'Bad'
p1485
g6
tp1486
(lp1487
I1
aI4
aI1
as(S'constant'
p1488
g6
tp1489
(lp1490
I1
aI4
aI1
as(S'diverse'
p1491
g6
tp1492
(lp1493
I1
aI2
aI1
as(S'often'
p1494
g2
tp1495
(lp1496
I1
aI2
aI1
as(S'competence'
p1497
g10
tp1498
(lp1499
I1
aI2
aI2
as(S'after-taste'
p1500
g6
tp1501
(lp1502
I1
aI2
aI1
as(S'looks'
p1503
g59
tp1504
(lp1505
I1
aI2
aI1
as(S'ignorant'
p1506
g6
tp1507
(lp1508
I1
aI2
aI1
as(S'knowledge'
p1509
g10
tp1510
(lp1511
I1
aI2
aI1
as(S'stressful'
p1512
g6
tp1513
(lp1514
I1
aI3
aI1
as(S'prioritized'
p1515
g6
tp1516
(lp1517
I1
aI2
aI1
as(S'not'
p1518
g2
tp1519
(lp1520
I1
aI77
aI8
as(S'in-house'
p1521
g6
tp1522
(lp1523
I1
aI1
aI2
as(S'central'
p1524
g6
tp1525
(lp1526
I1
aI2
aI1
as(S'environment'
p1527
g10
tp1528
(lp1529
I1
aI4
aI1
as(S'ta'
p1530
g10
tp1531
(lp1532
I1
aI2
aI1
as(S'only'
p1533
g2
tp1534
(lp1535
I1
aI6
aI1
as(S'self-serve'
p1536
g6
tp1537
(lp1538
I1
aI2
aI1
as(S'industry'
p1539
g10
tp1540
(lp1541
I1
aI1
aI2
as(S'true'
p1542
g6
tp1543
(lp1544
I1
aI2
aI1
as(S'terrific'
p1545
g6
tp1546
(lp1547
I1
aI2
aI1
as(S'nice'
p1548
g6
tp1549
(lp1550
I1
aI1
aI4
as(S'compensation'
p1551
g10
tp1552
(lp1553
I1
aI3
aI1
as(S'Recently'
p1554
g2
tp1555
(lp1556
I1
aI2
aI1
as(S'statistically'
p1557
g2
tp1558
(lp1559
I1
aI2
aI1
as(S'process'
p1560
g10
tp1561
(lp1562
I1
aI1
aI2
as(S'('
p1563
g10
tp1564
(lp1565
I1
aI1
aI2
as(S'terrible'
p1566
g6
tp1567
(lp1568
I1
aI3
aI1
as(S'hires'
p1569
g59
tp1570
(lp1571
I1
aI2
aI1
as(S'walmart'
p1572
g10
tp1573
(lp1574
I1
aI2
aI1
as(S'probably'
p1575
g2
tp1576
(lp1577
I1
aI2
aI1
as(S'myopic'
p1578
g6
tp1579
(lp1580
I1
aI2
aI1
as(S'deplorable'
p1581
g6
tp1582
(lp1583
I1
aI2
aI1
as(S'friendly'
p1584
g2
tp1585
(lp1586
I1
aI2
aI1
as(S'job'
p1587
g10
tp1588
(lp1589
I1
aI1
aI2
as(S'actual'
p1590
g6
tp1591
(lp1592
I1
aI4
aI1
as(S'money'
p1593
g10
tp1594
(lp1595
I1
aI2
aI1
as(S'autocratic'
p1596
g6
tp1597
(lp1598
I1
aI2
aI1
as(S'clear'
p1599
g6
tp1600
(lp1601
I1
aI2
aI1
as.