(dp0
(S'functional'
p1
S'JJ'
p2
tp3
(lp4
I1
aI5
aI2
as(S'profile'
p5
g2
tp6
(lp7
I1
aI1
aI2
as(S'actually'
p8
S'RB'
p9
tp10
(lp11
I1
aI1
aI6
as(S'definitely'
p12
g9
tp13
(lp14
I1
aI1
aI4
as(S'rapid'
p15
g2
tp16
(lp17
I1
aI2
aI1
as(S'Stable'
p18
g2
tp19
(lp20
I4
aI1
aI1
as(S'fumbly'
p21
g9
tp22
(lp23
I2
aI1
aI1
as(S'ously'
p24
g9
tp25
(lp26
I1
aI2
aI1
as(S'pension'
p27
S'NN'
p28
tp29
(lp30
I1
aI1
aI2
as(S'usual'
p31
g2
tp32
(lp33
I1
aI2
aI2
as(S'internally'
p34
g9
tp35
(lp36
I2
aI1
aI1
as(S'completely'
p37
g9
tp38
(lp39
I1
aI1
aI4
as(S'reliable'
p40
g2
tp41
(lp42
I2
aI1
aI1
as(S'weak'
p43
g2
tp44
(lp45
I1
aI1
aI2
as(S"'really"
p46
g9
tp47
(lp48
I1
aI1
aI2
as(S'level'
p49
g28
tp50
(lp51
I2
aI1
aI3
as(S'merit'
p52
g28
tp53
(lp54
I2
aI1
aI1
as(S'previous'
p55
g2
tp56
(lp57
I1
aI1
aI4
as(S'wide'
p58
g2
tp59
(lp60
I2
aI7
aI1
as(S'moral'
p61
g2
tp62
(lp63
I1
aI2
aI2
as(S'already'
p64
g9
tp65
(lp66
I1
aI1
aI2
as(S'mechanic'
p67
g2
tp68
(lp69
I2
aI1
aI1
as(S'A*B'
p70
g2
tp71
(lp72
I1
aI1
aI2
as(S'broadly'
p73
g9
tp74
(lp75
I1
aI1
aI2
as(S'wind/water/power'
p76
g2
tp77
(lp78
I1
aI2
aI1
as(S'congenial'
p79
g2
tp80
(lp81
I1
aI2
aI1
as(S'Bright'
p82
g2
tp83
(lp84
I1
aI2
aI1
as(S'uncomfortable'
p85
g2
tp86
(lp87
I1
aI1
aI2
as(S'education'
p88
g28
tp89
(lp90
I1
aI2
aI1
as(S'role'
p91
g28
tp92
(lp93
I3
aI1
aI1
as(S'respects'
p94
S'NNS'
p95
tp96
(lp97
I2
aI1
aI1
as(S'optic'
p98
g2
tp99
(lp100
I1
aI2
aI1
as(S'-Work/Life'
p101
g2
tp102
(lp103
I1
aI2
aI1
as(S'small'
p104
g2
tp105
(lp106
I1
aI3
aI7
as(S'likely'
p107
g2
tp108
(lp109
I1
aI1
aI2
as(S'established'
p110
g2
tp111
(lp112
I1
aI3
aI1
as(S'client'
p113
g28
tp114
(lp115
I2
aI1
aI1
as(S'economical'
p116
g2
tp117
(lp118
I1
aI2
aI1
as(S'innovative'
p119
g2
tp120
(lp121
I1
aI3
aI3
as(S'his/her'
p122
g2
tp123
(lp124
I1
aI1
aI2
as(S'bureaucratic'
p125
g2
tp126
(lp127
I2
aI1
aI3
as(S'poorly'
p128
g9
tp129
(lp130
I1
aI1
aI2
as(S'economic'
p131
g2
tp132
(lp133
I1
aI3
aI3
as(S'pretty'
p134
g28
tp135
(lp136
I1
aI2
aI1
as(S'valuable'
p137
g2
tp138
(lp139
I3
aI5
aI1
as(S'volume'
p140
g28
tp141
(lp142
I2
aI1
aI1
as(S'independent'
p143
g2
tp144
(lp145
I1
aI1
aI2
as(S'casual'
p146
g2
tp147
(lp148
I1
aI2
aI2
as(S'massive'
p149
g2
tp150
(lp151
I1
aI2
aI3
as(S'academic'
p152
g2
tp153
(lp154
I1
aI1
aI2
as(S'Ridiculous'
p155
g2
tp156
(lp157
I1
aI1
aI2
as(S'apps'
p158
g95
tp159
(lp160
I1
aI1
aI2
as(S'young'
p161
g2
tp162
(lp163
I2
aI3
aI1
as(S'Various'
p164
g2
tp165
(lp166
I2
aI1
aI2
as(S'exact'
p167
g2
tp168
(lp169
I1
aI1
aI2
as(S'factory'
p170
g28
tp171
(lp172
I2
aI1
aI1
as(S'certainly'
p173
g9
tp174
(lp175
I1
aI2
aI1
as(S'forward'
p176
g9
tp177
(lp178
I1
aI3
aI1
as(S'Still'
p179
g9
tp180
(lp181
I1
aI1
aI2
as(S'preferred'
p182
g2
tp183
(lp184
I1
aI2
aI1
as(S'direction'
p185
g28
tp186
(lp187
I2
aI1
aI2
as(S'institutional'
p188
g2
tp189
(lp190
I1
aI1
aI2
as(S'thick'
p191
g2
tp192
(lp193
I1
aI1
aI2
as(S'demanding'
p194
g28
tp195
(lp196
I2
aI1
aI1
as(S'intense'
p197
g2
tp198
(lp199
I1
aI1
aI2
as(S'technologically'
p200
g9
tp201
(lp202
I1
aI2
aI1
as(S'more'
p203
S'RBR'
p204
tp205
(lp206
I1
aI5
aI14
as(S'natural'
p207
g2
tp208
(lp209
I1
aI1
aI2
as(S'Banker'
p210
g28
tp211
(lp212
I3
aI1
aI1
as(S'push'
p213
g2
tp214
(lp215
I1
aI2
aI1
as(S'now'
p216
g9
tp217
(lp218
I1
aI1
aI3
as(S'ok'
p219
g28
tp220
(lp221
I2
aI1
aI1
as(S'unfair'
p222
g2
tp223
(lp224
I1
aI1
aI3
as(S'fantastic'
p225
g2
tp226
(lp227
I1
aI3
aI1
as(S'red'
p228
g2
tp229
(lp230
I1
aI1
aI2
as(S'door'
p231
g28
tp232
(lp233
I2
aI1
aI1
as(S'%'
p234
g28
tp235
(lp236
I1
aI1
aI2
as(S'manager'
p237
g28
tp238
(lp239
I3
aI1
aI1
as(S'just-in-time'
p240
g2
tp241
(lp242
I1
aI2
aI1
as(S'mental'
p243
g2
tp244
(lp245
I1
aI1
aI2
as(S'legal'
p246
g2
tp247
(lp248
I1
aI2
aI1
as(S'Bad'
p249
g2
tp250
(lp251
I2
aI1
aI3
as(S'common'
p252
g2
tp253
(lp254
I1
aI1
aI4
as(S'process-oriented'
p255
g2
tp256
(lp257
I2
aI1
aI1
as(S'experiences'
p258
g95
tp259
(lp260
I3
aI1
aI2
as(S'middle'
p261
g2
tp262
(lp263
I2
aI2
aI2
as(S'lay-offs'
p264
g95
tp265
(lp266
I1
aI1
aI2
as(S'time-off'
p267
g2
tp268
(lp269
I1
aI2
aI1
as(S'organisational'
p270
g2
tp271
(lp272
I1
aI3
aI1
as(S'department-centric'
p273
g2
tp274
(lp275
I1
aI1
aI2
as(S'seasoned'
p276
g2
tp277
(lp278
I1
aI2
aI1
as(S'street'
p279
g28
tp280
(lp281
I1
aI1
aI2
as(S'pretty'
p282
g9
tp283
(lp284
I2
aI6
aI4
as(S'perspective'
p285
g2
tp286
(lp287
I2
aI1
aI1
as(S'social'
p288
g2
tp289
(lp290
I1
aI3
aI7
as(S'quire'
p291
g9
tp292
(lp293
I1
aI2
aI1
as(S'Experience'
p294
g28
tp295
(lp296
I2
aI1
aI1
as(S'recordable'
p297
g2
tp298
(lp299
I1
aI1
aI2
as(S'particularly'
p300
g9
tp301
(lp302
I1
aI1
aI2
as(S'plan'
p303
g28
tp304
(lp305
I2
aI1
aI2
as(S'reasonably'
p306
g9
tp307
(lp308
I2
aI1
aI1
as(S'legally'
p309
g9
tp310
(lp311
I1
aI1
aI2
as(S'structure'
p312
g28
tp313
(lp314
I2
aI2
aI2
as(S'effectivly'
p315
g9
tp316
(lp317
I1
aI2
aI1
as(S'Management'
p318
g28
tp319
(lp320
I2
aI1
aI1
as(S'merciful'
p321
g2
tp322
(lp323
I1
aI1
aI2
as(S'open'
p324
g2
tp325
(lp326
I1
aI3
aI2
as(S'fifth'
p327
g2
tp328
(lp329
I1
aI1
aI2
as(S'Generous'
p330
g2
tp331
(lp332
I1
aI2
aI1
as(S'minimum'
p333
g2
tp334
(lp335
I1
aI1
aI3
as(S'third'
p336
g2
tp337
(lp338
I1
aI1
aI2
as(S'usually'
p339
g9
tp340
(lp341
I1
aI4
aI3
as(S'personal'
p342
g2
tp343
(lp344
I2
aI8
aI7
as(S'promotion'
p345
g28
tp346
(lp347
I2
aI1
aI3
as(S'Overly'
p348
g9
tp349
(lp350
I1
aI1
aI3
as(S'outside'
p351
g2
tp352
(lp353
I1
aI3
aI1
as(S'banks'
p354
g95
tp355
(lp356
I2
aI1
aI1
as(S'local'
p357
g2
tp358
(lp359
I2
aI2
aI8
as(S'hard'
p360
g2
tp361
(lp362
I1
aI6
aI2
as(S'minor'
p363
g2
tp364
(lp365
I2
aI1
aI1
as(S'nauseum'
p366
g28
tp367
(lp368
I1
aI1
aI3
as(S'educational'
p369
g2
tp370
(lp371
I2
aI3
aI1
as(S'sensitive'
p372
g2
tp373
(lp374
I1
aI1
aI2
as(S')'
p375
g28
tp376
(lp377
I1
aI1
aI3
as(S'median'
p378
g2
tp379
(lp380
I2
aI1
aI1
as(S'work'
p381
g28
tp382
(lp383
I3
aI5
aI6
as(S'-Amazing'
p384
g2
tp385
(lp386
I1
aI2
aI1
as(S'visible'
p387
g2
tp388
(lp389
I1
aI1
aI3
as(S'important'
p390
g2
tp391
(lp392
I1
aI2
aI2
as(S'Spectacular'
p393
g2
tp394
(lp395
I1
aI2
aI1
as(S'unambitious'
p396
g2
tp397
(lp398
I1
aI1
aI2
as(S'equal'
p399
g2
tp400
(lp401
I1
aI2
aI3
as(S'own'
p402
g2
tp403
(lp404
I2
aI4
aI11
as(S'services'
p405
g95
tp406
(lp407
I1
aI2
aI1
as(S'Extensive'
p408
g2
tp409
(lp410
I1
aI2
aI1
as(S'replaceable'
p411
g2
tp412
(lp413
I1
aI1
aI2
as(S'stellar'
p414
g2
tp415
(lp416
I1
aI2
aI1
as(S'appropriate'
p417
g2
tp418
(lp419
I1
aI2
aI1
as(S'neck'
p420
g28
tp421
(lp422
I2
aI1
aI1
as(S'informal'
p423
g2
tp424
(lp425
I1
aI2
aI1
as(S'non-structured'
p426
g2
tp427
(lp428
I1
aI1
aI2
as(S'issues'
p429
g95
tp430
(lp431
I2
aI1
aI2
as(S'cut-throat'
p432
g2
tp433
(lp434
I1
aI1
aI2
as(S'tough'
p435
g2
tp436
(lp437
I1
aI1
aI3
as(S'exposure'
p438
g28
tp439
(lp440
I1
aI1
aI2
as(S'hourly'
p441
g9
tp442
(lp443
I1
aI3
aI1
as(S'Passive'
p444
g2
tp445
(lp446
I2
aI1
aI1
as(S'products'
p447
g95
tp448
(lp449
I3
aI1
aI1
as(S'Dynamic'
p450
g2
tp451
(lp452
I1
aI2
aI1
as(S'environme'
p453
g28
tp454
(lp455
I2
aI1
aI1
as(S'book'
p456
g28
tp457
(lp458
I2
aI1
aI1
as(S'historical'
p459
g2
tp460
(lp461
I1
aI1
aI2
as(S'all-too'
p462
g2
tp463
(lp464
I1
aI1
aI2
as(S'worth'
p465
g2
tp466
(lp467
I1
aI2
aI1
as(S'projects'
p468
g95
tp469
(lp470
I2
aI2
aI1
as(S'wold'
p471
g28
tp472
(lp473
I2
aI1
aI1
as(S'wasteful'
p474
g2
tp475
(lp476
I1
aI1
aI2
as(S'Political'
p477
g2
tp478
(lp479
I1
aI1
aI2
as(S'free'
p480
g2
tp481
(lp482
I1
aI3
aI2
as(S'however'
p483
g9
tp484
(lp485
I1
aI2
aI1
as(S'morale'
p486
g28
tp487
(lp488
I3
aI1
aI2
as(S'Self-imposed'
p489
g2
tp490
(lp491
I1
aI1
aI2
as(S'former'
p492
g2
tp493
(lp494
I1
aI1
aI2
as(S'major'
p495
g2
tp496
(lp497
I1
aI3
aI9
as(S'engineering/science'
p498
g2
tp499
(lp500
I1
aI2
aI1
as(S'clear'
p501
g2
tp502
(lp503
I1
aI3
aI4
as(S'Overall'
p504
g2
tp505
(lp506
I3
aI3
aI1
as(S'Competitive'
p507
g2
tp508
(lp509
I1
aI5
aI3
as(S'reputation'
p510
g28
tp511
(lp512
I1
aI1
aI2
as(S'deeply'
p513
g9
tp514
(lp515
I1
aI1
aI2
as(S'downsides'
p516
g95
tp517
(lp518
I1
aI1
aI2
as(S'pyramid'
p519
g2
tp520
(lp521
I1
aI1
aI2
as(S'Non-monetary'
p522
g2
tp523
(lp524
I1
aI1
aI2
as(S'proper'
p525
g2
tp526
(lp527
I1
aI2
aI2
as(S'exceptional'
p528
g2
tp529
(lp530
I1
aI2
aI1
as(S'normal'
p531
g2
tp532
(lp533
I1
aI2
aI2
as(S'professionally'
p534
g9
tp535
(lp536
I1
aI2
aI1
as(S'timely'
p537
g2
tp538
(lp539
I1
aI1
aI2
as(S'group'
p540
g28
tp541
(lp542
I3
aI1
aI1
as(S'Short'
p543
g2
tp544
(lp545
I1
aI1
aI2
as(S'unqualified'
p546
g2
tp547
(lp548
I1
aI1
aI2
as(S'endless'
p549
g2
tp550
(lp551
I1
aI2
aI1
as(S'Current'
p552
g2
tp553
(lp554
I1
aI2
aI2
as(S'genuinely'
p555
g9
tp556
(lp557
I1
aI2
aI1
as(S'-Very'
p558
g2
tp559
(lp560
I1
aI1
aI2
as(S'here'
p561
g9
tp562
(lp563
I3
aI1
aI1
as(S'undesirable'
p564
g2
tp565
(lp566
I1
aI1
aI2
as(S'weeks'
p567
g95
tp568
(lp569
I1
aI1
aI2
as(S'responsible'
p570
g2
tp571
(lp572
I2
aI1
aI1
as(S'sub-par'
p573
g2
tp574
(lp575
I1
aI1
aI2
as(S'Direct'
p576
g2
tp577
(lp578
I1
aI2
aI1
as(S'namely'
p579
g9
tp580
(lp581
I1
aI2
aI1
as(S'press'
p582
g28
tp583
(lp584
I1
aI1
aI2
as(S'changes'
p585
g95
tp586
(lp587
I1
aI1
aI3
as(S'instantly'
p588
g9
tp589
(lp590
I1
aI1
aI2
as(S'students'
p591
g95
tp592
(lp593
I3
aI1
aI1
as(S'bottom'
p594
g2
tp595
(lp596
I1
aI1
aI2
as(S'Professional'
p597
g2
tp598
(lp599
I1
aI2
aI1
as(S'logistics'
p600
g95
tp601
(lp602
I2
aI1
aI1
as(S'practices'
p603
g95
tp604
(lp605
I1
aI1
aI2
as(S'dysfunctional'
p606
g2
tp607
(lp608
I1
aI1
aI2
as(S'almost'
p609
g9
tp610
(lp611
I1
aI1
aI2
as(S'extensive'
p612
g2
tp613
(lp614
I1
aI2
aI1
as(S'catastrophic'
p615
g2
tp616
(lp617
I1
aI1
aI2
as(S'obsessive'
p618
g2
tp619
(lp620
I1
aI2
aI1
as(S'Inter-group'
p621
g2
tp622
(lp623
I1
aI2
aI1
as(S'second'
p624
g2
tp625
(lp626
I2
aI2
aI1
as(S'uncapped'
p627
g2
tp628
(lp629
I1
aI1
aI2
as(S'respectful'
p630
g2
tp631
(lp632
I1
aI3
aI1
as(S'responsive'
p633
g2
tp634
(lp635
I1
aI2
aI1
as(S'opposite'
p636
g2
tp637
(lp638
I1
aI1
aI2
as(S'associates'
p639
g95
tp640
(lp641
I1
aI1
aI2
as(S'frugal'
p642
g2
tp643
(lp644
I1
aI2
aI1
as(S'fiercely'
p645
g9
tp646
(lp647
I1
aI1
aI2
as(S'Incomparable'
p648
g2
tp649
(lp650
I1
aI2
aI1
as(S'Kids'
p651
g95
tp652
(lp653
I2
aI1
aI1
as(S'possible'
p654
g2
tp655
(lp656
I1
aI1
aI2
as(S'spontaneously'
p657
g9
tp658
(lp659
I1
aI2
aI1
as(S'reasonable'
p660
g2
tp661
(lp662
I3
aI3
aI1
as(S'permanents'
p663
g95
tp664
(lp665
I1
aI1
aI2
as(S'always'
p666
g9
tp667
(lp668
I3
aI16
aI20
as(S'hard'
p669
g9
tp670
(lp671
I2
aI3
aI1
as(S'departmentalize'
p672
g28
tp673
(lp674
I1
aI1
aI2
as(S'years'
p675
g95
tp676
(lp677
I4
aI1
aI2
as(S'awful'
p678
g2
tp679
(lp680
I1
aI2
aI2
as(S'expensive'
p681
g2
tp682
(lp683
I1
aI1
aI2
as(S'under-controlled'
p684
g2
tp685
(lp686
I1
aI1
aI2
as(S'growth'
p687
g28
tp688
(lp689
I4
aI1
aI2
as(S'term'
p690
g2
tp691
(lp692
I1
aI2
aI2
as(S'real'
p693
g2
tp694
(lp695
I2
aI6
aI6
as(S'negatively'
p696
g9
tp697
(lp698
I1
aI1
aI2
as(S'paltry'
p699
g28
tp700
(lp701
I2
aI1
aI1
as(S'-Exceptional'
p702
g2
tp703
(lp704
I1
aI2
aI1
as(S'secretive'
p705
g2
tp706
(lp707
I1
aI1
aI2
as(S'friends'
p708
g95
tp709
(lp710
I2
aI1
aI2
as(S'Numerous'
p711
g2
tp712
(lp713
I1
aI2
aI1
as(S'week'
p714
g28
tp715
(lp716
I1
aI1
aI2
as(S'bonuses'
p717
g95
tp718
(lp719
I1
aI1
aI3
as(S'substantial'
p720
g2
tp721
(lp722
I1
aI1
aI2
as(S'key'
p723
g2
tp724
(lp725
I1
aI1
aI2
as(S'stable'
p726
g2
tp727
(lp728
I2
aI4
aI1
as(S'decent'
p729
g2
tp730
(lp731
I1
aI2
aI2
as(S'administrative'
p732
g2
tp733
(lp734
I1
aI1
aI2
as(S'things'
p735
g95
tp736
(lp737
I1
aI2
aI1
as(S'reputational'
p738
g2
tp739
(lp740
I2
aI1
aI1
as(S'reality'
p741
g28
tp742
(lp743
I1
aI2
aI1
as(S'multicultural'
p744
g2
tp745
(lp746
I1
aI3
aI1
as(S'market'
p747
g28
tp748
(lp749
I4
aI1
aI3
as(S'comfortable'
p750
g2
tp751
(lp752
I1
aI3
aI1
as(S'so-called'
p753
g2
tp754
(lp755
I1
aI1
aI2
as(S'slowly'
p756
g9
tp757
(lp758
I1
aI1
aI2
as(S'others'
p759
g95
tp760
(lp761
I1
aI1
aI2
as(S'fully'
p762
g9
tp763
(lp764
I1
aI2
aI1
as(S'on-boarding'
p765
g2
tp766
(lp767
I1
aI2
aI1
as(S'Many'
p768
g2
tp769
(lp770
I2
aI10
aI7
as(S'unrealistic'
p771
g2
tp772
(lp773
I1
aI1
aI2
as(S'expenses'
p774
g95
tp775
(lp776
I1
aI1
aI2
as(S'mora'
p777
g28
tp778
(lp779
I2
aI1
aI1
as(S'top'
p780
g2
tp781
(lp782
I1
aI11
aI7
as(S'advancement'
p783
g28
tp784
(lp785
I2
aI1
aI2
as(S'lucrative'
p786
g2
tp787
(lp788
I1
aI1
aI2
as(S'la'
p789
g28
tp790
(lp791
I2
aI1
aI1
as(S'challenges'
p792
g95
tp793
(lp794
I4
aI1
aI1
as(S'standards'
p795
g95
tp796
(lp797
I2
aI1
aI1
as(S'reactive'
p798
g2
tp799
(lp800
I1
aI1
aI2
as(S'Mostly'
p801
g9
tp802
(lp803
I2
aI1
aI1
as(S'Organizational'
p804
g2
tp805
(lp806
I1
aI1
aI2
as(S'far'
p807
g9
tp808
(lp809
I1
aI1
aI2
as(S'gas'
p810
g28
tp811
(lp812
I1
aI1
aI2
as(S'Executive'
p813
g2
tp814
(lp815
I1
aI1
aI2
as(S'clearly'
p816
g9
tp817
(lp818
I2
aI1
aI2
as(S'typical'
p819
g2
tp820
(lp821
I3
aI1
aI4
as(S'easy-going'
p822
g2
tp823
(lp824
I2
aI1
aI1
as(S'slow'
p825
g2
tp826
(lp827
I1
aI1
aI10
as(S'less'
p828
g204
tp829
(lp830
I1
aI1
aI3
as(S'global'
p831
g2
tp832
(lp833
I4
aI14
aI8
as(S'37.5hr'
p834
g2
tp835
(lp836
I1
aI2
aI1
as(S'*Great'
p837
g2
tp838
(lp839
I1
aI2
aI1
as(S'business/department'
p840
g2
tp841
(lp842
I1
aI1
aI2
as(S'lunch'
p843
g28
tp844
(lp845
I1
aI1
aI2
as(S'workload'
p846
g28
tp847
(lp848
I1
aI1
aI2
as(S'changing'
p849
g28
tp850
(lp851
I2
aI1
aI1
as(S'firms'
p852
g95
tp853
(lp854
I1
aI1
aI2
as(S'happy'
p855
g2
tp856
(lp857
I1
aI2
aI1
as(S'sales/profit'
p858
g2
tp859
(lp860
I1
aI1
aI2
as(S'leveraged'
p861
g2
tp862
(lp863
I1
aI2
aI1
as(S'immediately'
p864
g9
tp865
(lp866
I1
aI2
aI2
as(S'routine'
p867
g28
tp868
(lp869
I1
aI1
aI2
as(S'politically'
p870
g9
tp871
(lp872
I1
aI1
aI2
as(S'semiannual'
p873
g2
tp874
(lp875
I1
aI2
aI1
as(S'underqualified'
p876
g2
tp877
(lp878
I2
aI1
aI1
as(S'lifestyle'
p879
g28
tp880
(lp881
I1
aI2
aI1
as(S'customer'
p882
g28
tp883
(lp884
I2
aI1
aI1
as(S'legitimately'
p885
g9
tp886
(lp887
I1
aI1
aI2
as(S'day-to-day'
p888
g2
tp889
(lp890
I1
aI1
aI2
as(S'unproductive'
p891
g2
tp892
(lp893
I1
aI1
aI2
as(S'overall'
p894
g2
tp895
(lp896
I4
aI5
aI4
as(S'work-life'
p897
g2
tp898
(lp899
I1
aI8
aI3
as(S'names'
p900
g95
tp901
(lp902
I2
aI1
aI1
as(S'constantly'
p903
g9
tp904
(lp905
I1
aI7
aI7
as(S'over-worked'
p906
g2
tp907
(lp908
I1
aI1
aI2
as(S'Marvelous'
p909
g2
tp910
(lp911
I1
aI2
aI1
as(S'other'
p912
g2
tp913
(lp914
I1
aI23
aI38
as(S'Outstanding'
p915
g2
tp916
(lp917
I1
aI3
aI1
as(S'fast'
p918
g2
tp919
(lp920
I1
aI2
aI1
as(S'scary'
p921
g2
tp922
(lp923
I1
aI1
aI2
as(S'basically'
p924
g9
tp925
(lp926
I1
aI1
aI2
as(S'Continuous'
p927
g2
tp928
(lp929
I1
aI2
aI1
as(S'expectations'
p930
g95
tp931
(lp932
I2
aI1
aI1
as(S'quit'
p933
g28
tp934
(lp935
I1
aI1
aI2
as(S'year'
p936
g28
tp937
(lp938
I1
aI1
aI2
as(S'lateral'
p939
g2
tp940
(lp941
I1
aI3
aI3
as(S'opportunity'
p942
g28
tp943
(lp944
I5
aI2
aI2
as(S'with..rare'
p945
g2
tp946
(lp947
I1
aI2
aI1
as(S'correctly'
p948
g9
tp949
(lp950
I1
aI2
aI2
as(S'house'
p951
g28
tp952
(lp953
I1
aI1
aI2
as(S'nonflexible'
p954
g2
tp955
(lp956
I1
aI1
aI2
as(S'back'
p957
g28
tp958
(lp959
I1
aI1
aI2
as(S'modules'
p960
g95
tp961
(lp962
I2
aI1
aI1
as(S'bank'
p963
g28
tp964
(lp965
I2
aI1
aI1
as(S'complain'
p966
g28
tp967
(lp968
I2
aI1
aI1
as(S'paramount'
p969
g28
tp970
(lp971
I1
aI1
aI2
as(S'notch'
p972
g28
tp973
(lp974
I1
aI1
aI2
as(S'excessive'
p975
g2
tp976
(lp977
I2
aI1
aI1
as(S'regulatory'
p978
g2
tp979
(lp980
I1
aI1
aI2
as(S'thoughtfully'
p981
g9
tp982
(lp983
I1
aI2
aI1
as(S'employees'
p984
g95
tp985
(lp986
I4
aI4
aI9
as(S'inform'
p987
g28
tp988
(lp989
I1
aI1
aI2
as(S'and/or'
p990
g2
tp991
(lp992
I1
aI2
aI2
as(S'worse'
p993
g28
tp994
(lp995
I2
aI1
aI1
as(S'trajectory'
p996
g28
tp997
(lp998
I2
aI1
aI1
as(S'excel'
p999
g28
tp1000
(lp1001
I2
aI1
aI1
as(S'multi-focus'
p1002
g2
tp1003
(lp1004
I1
aI2
aI1
as(S'perfect'
p1005
g28
tp1006
(lp1007
I1
aI1
aI2
as(S'generous'
p1008
g2
tp1009
(lp1010
I3
aI4
aI1
as(S'wonderful'
p1011
g2
tp1012
(lp1013
I2
aI5
aI1
as(S'especially'
p1014
g9
tp1015
(lp1016
I1
aI1
aI4
as(S'national'
p1017
g2
tp1018
(lp1019
I1
aI2
aI2
as(S'miserable'
p1020
g2
tp1021
(lp1022
I1
aI1
aI2
as(S'Conservative'
p1023
g2
tp1024
(lp1025
I2
aI1
aI3
as(S'benefits'
p1026
g95
tp1027
(lp1028
I5
aI3
aI2
as(S'tx'
p1029
g28
tp1030
(lp1031
I1
aI1
aI2
as(S'meaningful'
p1032
g2
tp1033
(lp1034
I1
aI1
aI2
as(S'late'
p1035
g2
tp1036
(lp1037
I1
aI2
aI2
as(S'life'
p1038
g28
tp1039
(lp1040
I1
aI1
aI2
as(S'Global'
p1041
g2
tp1042
(lp1043
I1
aI6
aI1
as(S'co-op'
p1044
g28
tp1045
(lp1046
I2
aI1
aI1
as(S'Vestigial'
p1047
g2
tp1048
(lp1049
I1
aI1
aI2
as(S'activites'
p1050
g95
tp1051
(lp1052
I1
aI2
aI1
as(S'gladly'
p1053
g9
tp1054
(lp1055
I1
aI3
aI1
as(S'intellegent'
p1056
g2
tp1057
(lp1058
I1
aI2
aI1
as(S'development'
p1059
g28
tp1060
(lp1061
I2
aI1
aI3
as(S'Years'
p1062
g95
tp1063
(lp1064
I2
aI1
aI1
as(S'exhorbitantly-paid'
p1065
g2
tp1066
(lp1067
I1
aI1
aI2
as(S'drama'
p1068
g28
tp1069
(lp1070
I1
aI1
aI2
as(S'so'
p1071
g9
tp1072
(lp1073
I3
aI10
aI9
as(S'geographical'
p1074
g2
tp1075
(lp1076
I1
aI2
aI1
as(S'department'
p1077
g28
tp1078
(lp1079
I2
aI1
aI2
as(S'Sometimes'
p1080
g9
tp1081
(lp1082
I1
aI1
aI2
as(S'leave'
p1083
g2
tp1084
(lp1085
I1
aI1
aI2
as(S'technically'
p1086
g9
tp1087
(lp1088
I1
aI2
aI1
as(S'suck-up'
p1089
g2
tp1090
(lp1091
I1
aI1
aI2
as(S'uniformity'
p1092
g28
tp1093
(lp1094
I1
aI1
aI2
as(S'Assistant'
p1095
g2
tp1096
(lp1097
I1
aI2
aI1
as(S'TIght/small'
p1098
g2
tp1099
(lp1100
I1
aI1
aI2
as(S'competition'
p1101
g28
tp1102
(lp1103
I1
aI1
aI2
as(S'full-time'
p1104
g2
tp1105
(lp1106
I1
aI4
aI1
as(S'critical'
p1107
g2
tp1108
(lp1109
I1
aI2
aI2
as(S'Often'
p1110
g9
tp1111
(lp1112
I1
aI1
aI2
as(S'conceptual'
p1113
g2
tp1114
(lp1115
I2
aI1
aI1
as(S'*Better'
p1116
g2
tp1117
(lp1118
I1
aI2
aI1
as(S'average'
p1119
g2
tp1120
(lp1121
I1
aI8
aI5
as(S'steadily'
p1122
g9
tp1123
(lp1124
I1
aI1
aI3
as(S'automotive'
p1125
g2
tp1126
(lp1127
I1
aI2
aI1
as(S'difficult'
p1128
g2
tp1129
(lp1130
I1
aI1
aI3
as(S'little'
p1131
g9
tp1132
(lp1133
I2
aI1
aI6
as(S'perception'
p1134
g28
tp1135
(lp1136
I1
aI1
aI2
as(S'Vertical'
p1137
g2
tp1138
(lp1139
I1
aI1
aI2
as(S'flexible'
p1140
g2
tp1141
(lp1142
I4
aI21
aI3
as(S'immediate'
p1143
g2
tp1144
(lp1145
I1
aI2
aI6
as(S'wing'
p1146
g28
tp1147
(lp1148
I1
aI2
aI1
as(S'creative'
p1149
g2
tp1150
(lp1151
I1
aI2
aI1
as(S'sucks'
p1152
g95
tp1153
(lp1154
I1
aI1
aI2
as(S'various'
p1155
g2
tp1156
(lp1157
I1
aI7
aI3
as(S'co-operative'
p1158
g2
tp1159
(lp1160
I1
aI2
aI1
as(S'Innovative'
p1161
g2
tp1162
(lp1163
I1
aI3
aI1
as(S'Reasonable'
p1164
g2
tp1165
(lp1166
I2
aI2
aI1
as(S'transistion'
p1167
g28
tp1168
(lp1169
I2
aI1
aI1
as(S'Little'
p1170
g9
tp1171
(lp1172
I1
aI1
aI2
as(S'last'
p1173
g2
tp1174
(lp1175
I1
aI1
aI2
as(S'ship'
p1176
g28
tp1177
(lp1178
I3
aI1
aI1
as(S'holistic'
p1179
g2
tp1180
(lp1181
I1
aI1
aI2
as(S'absolutely'
p1182
g9
tp1183
(lp1184
I1
aI1
aI2
as(S'typically'
p1185
g9
tp1186
(lp1187
I1
aI2
aI2
as(S'environmental'
p1188
g2
tp1189
(lp1190
I1
aI2
aI1
as(S'people'
p1191
g95
tp1192
(lp1193
I8
aI2
aI4
as(S'manifestly'
p1194
g9
tp1195
(lp1196
I1
aI1
aI2
as(S'effo'
p1197
g28
tp1198
(lp1199
I2
aI1
aI1
as(S'reorganizations'
p1200
g95
tp1201
(lp1202
I2
aI1
aI1
as(S'only'
p1203
g2
tp1204
(lp1205
I2
aI2
aI1
as(S'periods'
p1206
g95
tp1207
(lp1208
I1
aI1
aI2
as(S'desirable'
p1209
g2
tp1210
(lp1211
I1
aI1
aI2
as(S"n't"
p1212
g9
tp1213
(lp1214
I5
aI9
aI80
as(S'European'
p1215
g2
tp1216
(lp1217
I1
aI2
aI1
as(S'middle-management'
p1218
g2
tp1219
(lp1220
I1
aI1
aI2
as(S'long'
p1221
g9
tp1222
(lp1223
I2
aI2
aI1
as(S'same'
p1224
g2
tp1225
(lp1226
I2
aI5
aI13
as(S'yearly'
p1227
g2
tp1228
(lp1229
I1
aI2
aI1
as(S'American'
p1230
g2
tp1231
(lp1232
I1
aI2
aI2
as(S'initial'
p1233
g2
tp1234
(lp1235
I1
aI1
aI2
as(S'firm-wide'
p1236
g2
tp1237
(lp1238
I1
aI2
aI1
as(S'Recent'
p1239
g2
tp1240
(lp1241
I1
aI1
aI2
as(S'hierarchical'
p1242
g2
tp1243
(lp1244
I1
aI1
aI2
as(S'new'
p1245
g2
tp1246
(lp1247
I3
aI24
aI21
as(S'product'
p1248
g28
tp1249
(lp1250
I1
aI2
aI1
as(S'continuous'
p1251
g2
tp1252
(lp1253
I1
aI3
aI1
as(S'right'
p1254
g2
tp1255
(lp1256
I1
aI2
aI1
as(S'too'
p1257
g9
tp1258
(lp1259
I6
aI6
aI25
as(S'sometimes'
p1260
g9
tp1261
(lp1262
I2
aI1
aI14
as(S'early'
p1263
g2
tp1264
(lp1265
I1
aI3
aI1
as(S'most'
p1266
S'RBS'
p1267
tp1268
(lp1269
I1
aI7
aI3
as(S'ever-increasing'
p1270
g2
tp1271
(lp1272
I1
aI1
aI2
as(S'French'
p1273
g2
tp1274
(lp1275
I1
aI1
aI9
as(S'Corporation'
p1276
g28
tp1277
(lp1278
I2
aI1
aI1
as(S'change'
p1279
g28
tp1280
(lp1281
I2
aI1
aI2
as(S'pervasive'
p1282
g2
tp1283
(lp1284
I1
aI1
aI2
as(S'intern'
p1285
g2
tp1286
(lp1287
I1
aI1
aI2
as(S'then'
p1288
g9
tp1289
(lp1290
I1
aI2
aI7
as(S'sales/service'
p1291
g2
tp1292
(lp1293
I1
aI1
aI2
as(S'joiner'
p1294
g28
tp1295
(lp1296
I2
aI1
aI1
as(S'regional'
p1297
g2
tp1298
(lp1299
I1
aI1
aI2
as(S'work/life'
p1300
g2
tp1301
(lp1302
I1
aI6
aI2
as(S'unstable'
p1303
g2
tp1304
(lp1305
I1
aI1
aI2
as(S'raises'
p1306
g95
tp1307
(lp1308
I1
aI1
aI2
as(S'impossible'
p1309
g2
tp1310
(lp1311
I1
aI1
aI2
as(S'politics'
p1312
g95
tp1313
(lp1314
I2
aI1
aI6
as(S'short'
p1315
g2
tp1316
(lp1317
I1
aI4
aI6
as(S'contractors'
p1318
g95
tp1319
(lp1320
I2
aI1
aI2
as(S'action'
p1321
g28
tp1322
(lp1323
I1
aI1
aI3
as(S'offer'
p1324
g28
tp1325
(lp1326
I1
aI4
aI1
as(S'considerate'
p1327
g2
tp1328
(lp1329
I1
aI2
aI1
as(S'Extremely'
p1330
g9
tp1331
(lp1332
I1
aI2
aI2
as(S'current'
p1333
g2
tp1334
(lp1335
I1
aI3
aI5
as(S'supervisiors'
p1336
g95
tp1337
(lp1338
I2
aI1
aI1
as(S'no-call'
p1339
g2
tp1340
(lp1341
I1
aI1
aI2
as(S'Only'
p1342
g9
tp1343
(lp1344
I1
aI1
aI2
as(S'team-oriented'
p1345
g2
tp1346
(lp1347
I1
aI2
aI1
as(S'limits.Great'
p1348
g2
tp1349
(lp1350
I1
aI2
aI1
as(S'price'
p1351
g28
tp1352
(lp1353
I2
aI1
aI1
as(S'thus'
p1354
g9
tp1355
(lp1356
I1
aI2
aI1
as(S'few'
p1357
g2
tp1358
(lp1359
I4
aI7
aI13
as(S'Other'
p1360
g2
tp1361
(lp1362
I1
aI2
aI1
as(S'direct'
p1363
g2
tp1364
(lp1365
I1
aI1
aI5
as(S'standard'
p1366
g2
tp1367
(lp1368
I1
aI2
aI2
as(S'fairly'
p1369
g9
tp1370
(lp1371
I1
aI3
aI3
as(S'wildly'
p1372
g9
tp1373
(lp1374
I1
aI1
aI2
as(S'Repetitive'
p1375
g2
tp1376
(lp1377
I1
aI1
aI2
as(S'Safety'
p1378
g28
tp1379
(lp1380
I1
aI2
aI1
as(S'eventually'
p1381
g9
tp1382
(lp1383
I1
aI1
aI3
as(S'Sucks'
p1384
g95
tp1385
(lp1386
I2
aI1
aI1
as(S'potential'
p1387
g2
tp1388
(lp1389
I2
aI4
aI2
as(S'negative'
p1390
g2
tp1391
(lp1392
I2
aI1
aI9
as(S'salary'
p1393
g2
tp1394
(lp1395
I1
aI1
aI2
as(S'mundane'
p1396
g2
tp1397
(lp1398
I2
aI1
aI1
as(S'end'
p1399
g28
tp1400
(lp1401
I1
aI1
aI3
as(S'flexibility'
p1402
g28
tp1403
(lp1404
I1
aI2
aI1
as(S'recently'
p1405
g9
tp1406
(lp1407
I1
aI3
aI3
as(S'much'
p1408
g2
tp1409
(lp1410
I5
aI3
aI30
as(S'something'
p1411
g28
tp1412
(lp1413
I1
aI3
aI2
as(S'movement'
p1414
g28
tp1415
(lp1416
I1
aI2
aI1
as(S'enough'
p1417
g9
tp1418
(lp1419
I2
aI1
aI5
as(S'schedule'
p1420
g28
tp1421
(lp1422
I1
aI1
aI2
as(S'ride'
p1423
g28
tp1424
(lp1425
I2
aI1
aI1
as(S'centers'
p1426
g95
tp1427
(lp1428
I1
aI1
aI2
as(S'hard-to-beat'
p1429
g2
tp1430
(lp1431
I1
aI2
aI1
as(S'British'
p1432
g2
tp1433
(lp1434
I1
aI1
aI2
as(S'stability'
p1435
g28
tp1436
(lp1437
I1
aI1
aI2
as(S'entrepreneurial'
p1438
g2
tp1439
(lp1440
I1
aI2
aI1
as(S'predictive'
p1441
g2
tp1442
(lp1443
I1
aI2
aI1
as(S'processes'
p1444
g95
tp1445
(lp1446
I1
aI1
aI3
as(S'Already'
p1447
g9
tp1448
(lp1449
I1
aI1
aI2
as(S'boa'
p1450
g28
tp1451
(lp1452
I2
aI1
aI1
as(S'whole'
p1453
g2
tp1454
(lp1455
I1
aI1
aI2
as(S'inflation-based'
p1456
g2
tp1457
(lp1458
I1
aI1
aI2
as(S'Strong'
p1459
g2
tp1460
(lp1461
I1
aI6
aI2
as(S'culture'
p1462
g28
tp1463
(lp1464
I3
aI2
aI2
as(S'ambitious'
p1465
g2
tp1466
(lp1467
I1
aI2
aI1
as(S'review'
p1468
g28
tp1469
(lp1470
I2
aI1
aI1
as(S'dogs'
p1471
g95
tp1472
(lp1473
I1
aI1
aI2
as(S'never'
p1474
g9
tp1475
(lp1476
I2
aI7
aI9
as(S'profile'
p1477
g28
tp1478
(lp1479
I2
aI1
aI1
as(S'movemoent'
p1480
g2
tp1481
(lp1482
I2
aI1
aI1
as(S'constant'
p1483
g2
tp1484
(lp1485
I2
aI6
aI7
as(S'way'
p1486
g28
tp1487
(lp1488
I2
aI1
aI1
as(S'tall'
p1489
g2
tp1490
(lp1491
I1
aI1
aI2
as(S'Retail'
p1492
g2
tp1493
(lp1494
I2
aI2
aI6
as(S'intellectual'
p1495
g2
tp1496
(lp1497
I1
aI4
aI2
as(S'leadership'
p1498
g28
tp1499
(lp1500
I1
aI1
aI2
as(S'wear'
p1501
g2
tp1502
(lp1503
I1
aI1
aI2
as(S'attendant'
p1504
g2
tp1505
(lp1506
I1
aI1
aI2
as(S'positive'
p1507
g2
tp1508
(lp1509
I3
aI4
aI5
as(S'mutual'
p1510
g2
tp1511
(lp1512
I1
aI2
aI1
as(S'soon-to-be-completed'
p1513
g2
tp1514
(lp1515
I1
aI2
aI1
as(S'place'
p1516
g28
tp1517
(lp1518
I3
aI1
aI3
as(S'solid'
p1519
g2
tp1520
(lp1521
I2
aI3
aI4
as(S'not'
p1522
g9
tp1523
(lp1524
I13
aI17
aI112
as(S'organic'
p1525
g2
tp1526
(lp1527
I1
aI1
aI2
as(S'Junior-level'
p1528
g2
tp1529
(lp1530
I1
aI1
aI2
as(S'Part-time'
p1531
g2
tp1532
(lp1533
I1
aI1
aI2
as(S'nice'
p1534
g2
tp1535
(lp1536
I5
aI11
aI3
as(S'Few'
p1537
g2
tp1538
(lp1539
I1
aI1
aI3
as(S'rapidly'
p1540
g9
tp1541
(lp1542
I1
aI2
aI1
as(S'bag'
p1543
g28
tp1544
(lp1545
I2
aI1
aI1
as(S'clueless'
p1546
g28
tp1547
(lp1548
I2
aI1
aI1
as(S'terrible'
p1549
g2
tp1550
(lp1551
I1
aI1
aI3
as(S'Questionable'
p1552
g2
tp1553
(lp1554
I1
aI1
aI2
as(S'chase'
p1555
g28
tp1556
(lp1557
I2
aI1
aI1
as(S'unclear'
p1558
g2
tp1559
(lp1560
I2
aI1
aI1
as(S'multiple'
p1561
g2
tp1562
(lp1563
I1
aI3
aI2
as(S'unstoppable'
p1564
g2
tp1565
(lp1566
I2
aI1
aI1
as(S'actual'
p1567
g2
tp1568
(lp1569
I2
aI2
aI3
as(S'properly'
p1570
g9
tp1571
(lp1572
I1
aI1
aI2
as(S'ample'
p1573
g2
tp1574
(lp1575
I1
aI2
aI1
as(S'money'
p1576
g28
tp1577
(lp1578
I1
aI1
aI3
as(S'C*D'
p1579
g2
tp1580
(lp1581
I1
aI1
aI2
as(S'primary'
p1582
g2
tp1583
(lp1584
I1
aI1
aI2
as(S'stuff'
p1585
g28
tp1586
(lp1587
I2
aI1
aI2
as(S'low'
p1588
g2
tp1589
(lp1590
I4
aI2
aI17
as(S'Relative'
p1591
g2
tp1592
(lp1593
I1
aI1
aI2
as(S'just'
p1594
g9
tp1595
(lp1596
I2
aI3
aI10
as(S'non-management'
p1597
g2
tp1598
(lp1599
I1
aI1
aI2
as(S'track'
p1600
g28
tp1601
(lp1602
I2
aI1
aI1
as(S'related'
p1603
g2
tp1604
(lp1605
I1
aI2
aI1
as(S'onsite'
p1606
g2
tp1607
(lp1608
I1
aI2
aI1
as(S'decently'
p1609
g9
tp1610
(lp1611
I1
aI1
aI2
as(S'successful'
p1612
g2
tp1613
(lp1614
I1
aI2
aI1
as(S'little'
p1615
g2
tp1616
(lp1617
I4
aI2
aI12
as(S'ahead'
p1618
g9
tp1619
(lp1620
I2
aI1
aI1
as(S'sharp'
p1621
g2
tp1622
(lp1623
I1
aI2
aI1
as(S'geographic'
p1624
g2
tp1625
(lp1626
I1
aI2
aI2
as(S'-Demanding'
p1627
g2
tp1628
(lp1629
I1
aI1
aI2
as(S'strategic'
p1630
g2
tp1631
(lp1632
I1
aI4
aI3
as(S'entitlement'
p1633
g28
tp1634
(lp1635
I2
aI1
aI1
as(S'highly-qualified'
p1636
g2
tp1637
(lp1638
I1
aI1
aI2
as(S'system'
p1639
g28
tp1640
(lp1641
I1
aI1
aI2
as(S'Confortable'
p1642
g2
tp1643
(lp1644
I2
aI1
aI1
as(S'Small'
p1645
g2
tp1646
(lp1647
I1
aI2
aI1
as(S'Incredible'
p1648
g2
tp1649
(lp1650
I1
aI2
aI1
as(S'corporation'
p1651
g28
tp1652
(lp1653
I1
aI1
aI2
as(S'operational'
p1654
g2
tp1655
(lp1656
I1
aI2
aI1
as(S'bad'
p1657
g2
tp1658
(lp1659
I5
aI4
aI22
as(S'risk-averse'
p1660
g2
tp1661
(lp1662
I1
aI2
aI1
as(S'.just'
p1663
g2
tp1664
(lp1665
I1
aI2
aI1
as(S'secondary'
p1666
g2
tp1667
(lp1668
I2
aI2
aI1
as(S'tight'
p1669
g2
tp1670
(lp1671
I1
aI1
aI2
as(S'still'
p1672
g9
tp1673
(lp1674
I2
aI6
aI7
as(S'rules'
p1675
g95
tp1676
(lp1677
I1
aI1
aI2
as(S'irrational'
p1678
g2
tp1679
(lp1680
I1
aI2
aI1
as(S'equitable'
p1681
g2
tp1682
(lp1683
I1
aI2
aI1
as(S'unpolished'
p1684
g2
tp1685
(lp1686
I1
aI1
aI2
as(S'Work-life'
p1687
g2
tp1688
(lp1689
I2
aI1
aI1
as(S'efficient'
p1690
g2
tp1691
(lp1692
I1
aI1
aI2
as(S'old'
p1693
g2
tp1694
(lp1695
I1
aI1
aI8
as(S'hostile'
p1696
g2
tp1697
(lp1698
I1
aI1
aI2
as(S'competitive'
p1699
g2
tp1700
(lp1701
I1
aI5
aI5
as(S'mission'
p1702
g28
tp1703
(lp1704
I2
aI1
aI1
as(S'significant'
p1705
g2
tp1706
(lp1707
I1
aI2
aI4
as(S'high'
p1708
g2
tp1709
(lp1710
I3
aI19
aI17
as(S'first'
p1711
g9
tp1712
(lp1713
I3
aI2
aI3
as(S'bureaucracy'
p1714
g28
tp1715
(lp1716
I3
aI1
aI1
as(S'tech'
p1717
g28
tp1718
(lp1719
I1
aI2
aI1
as(S'Important'
p1720
g2
tp1721
(lp1722
I1
aI1
aI2
as(S'Just'
p1723
g9
tp1724
(lp1725
I2
aI2
aI1
as(S'heavily'
p1726
g9
tp1727
(lp1728
I1
aI1
aI2
as(S'heavy'
p1729
g2
tp1730
(lp1731
I1
aI2
aI1
as(S'mouth'
p1732
g28
tp1733
(lp1734
I2
aI1
aI1
as(S'activities'
p1735
g95
tp1736
(lp1737
I1
aI1
aI2
as(S'frequently'
p1738
g9
tp1739
(lp1740
I1
aI1
aI2
as(S'Several'
p1741
g2
tp1742
(lp1743
I1
aI1
aI2
as(S'internal'
p1744
g2
tp1745
(lp1746
I1
aI5
aI10
as(S'Oddly'
p1747
g9
tp1748
(lp1749
I2
aI1
aI1
as(S'part-time'
p1750
g2
tp1751
(lp1752
I2
aI1
aI2
as(S'Huge'
p1753
g2
tp1754
(lp1755
I1
aI3
aI4
as(S'above'
p1756
g9
tp1757
(lp1758
I1
aI2
aI1
as(S'non-exempt'
p1759
g2
tp1760
(lp1761
I1
aI1
aI2
as(S'perhaps'
p1762
g9
tp1763
(lp1764
I1
aI1
aI2
as(S'area'
p1765
g28
tp1766
(lp1767
I1
aI1
aI3
as(S'Dead-end'
p1768
g2
tp1769
(lp1770
I1
aI1
aI2
as(S'redundancy'
p1771
g28
tp1772
(lp1773
I1
aI1
aI2
as(S'operations'
p1774
g95
tp1775
(lp1776
I1
aI1
aI2
as(S'B+D'
p1777
g2
tp1778
(lp1779
I1
aI1
aI2
as(S'bright'
p1780
g2
tp1781
(lp1782
I1
aI3
aI1
as(S'defintely'
p1783
g9
tp1784
(lp1785
I1
aI2
aI1
as(S'customers'
p1786
g95
tp1787
(lp1788
I1
aI1
aI2
as(S'attractive'
p1789
g2
tp1790
(lp1791
I1
aI2
aI1
as(S'relatively'
p1792
g9
tp1793
(lp1794
I1
aI5
aI2
as(S'uncompetence'
p1795
g28
tp1796
(lp1797
I1
aI1
aI2
as(S'Analyst'
p1798
g28
tp1799
(lp1800
I2
aI1
aI1
as(S'yesterday'
p1801
g28
tp1802
(lp1803
I1
aI1
aI2
as(S'Medical'
p1804
g2
tp1805
(lp1806
I1
aI2
aI2
as(S'good'
p1807
g2
tp1808
(lp1809
I53
aI144
aI24
as(S'very'
p1810
g2
tp1811
(lp1812
I2
aI2
aI2
as(S'roller-coaster'
p1813
g2
tp1814
(lp1815
I2
aI1
aI1
as(S'store..excellent'
p1816
g2
tp1817
(lp1818
I2
aI1
aI1
as(S'merger'
p1819
g28
tp1820
(lp1821
I1
aI1
aI2
as(S'further'
p1822
g2
tp1823
(lp1824
I1
aI1
aI2
as(S'guilty'
p1825
g2
tp1826
(lp1827
I2
aI1
aI1
as(S'lucky'
p1828
g2
tp1829
(lp1830
I1
aI1
aI3
as(S'throughbe'
p1831
g28
tp1832
(lp1833
I1
aI1
aI2
as(S'knowledgable'
p1834
g2
tp1835
(lp1836
I1
aI3
aI1
as(S'regardless'
p1837
g28
tp1838
(lp1839
I2
aI1
aI1
as(S'knowledge'
p1840
g28
tp1841
(lp1842
I2
aI1
aI1
as(S'computers'
p1843
g95
tp1844
(lp1845
I1
aI1
aI2
as(S'jobs'
p1846
g95
tp1847
(lp1848
I2
aI1
aI1
as(S'mostly'
p1849
g9
tp1850
(lp1851
I1
aI3
aI1
as(S'quite'
p1852
g9
tp1853
(lp1854
I1
aI2
aI7
as(S'overtime'
p1855
g28
tp1856
(lp1857
I1
aI1
aI2
as(S'monthly'
p1858
g9
tp1859
(lp1860
I1
aI2
aI1
as(S'personally'
p1861
g9
tp1862
(lp1863
I1
aI2
aI2
as(S'restrictedly'
p1864
g9
tp1865
(lp1866
I1
aI1
aI2
as(S'approachable'
p1867
g2
tp1868
(lp1869
I1
aI2
aI1
as(S'royal'
p1870
g2
tp1871
(lp1872
I1
aI1
aI2
as(S'site'
p1873
g2
tp1874
(lp1875
I1
aI2
aI1
as(S'even'
p1876
g9
tp1877
(lp1878
I1
aI2
aI3
as(S'everyone'
p1879
g28
tp1880
(lp1881
I3
aI1
aI1
as(S'Significant'
p1882
g2
tp1883
(lp1884
I2
aI2
aI2
as(S'unemployment'
p1885
g28
tp1886
(lp1887
I2
aI1
aI1
as(S'knowledgeable'
p1888
g2
tp1889
(lp1890
I1
aI3
aI1
as(S'perpetual'
p1891
g2
tp1892
(lp1893
I2
aI1
aI2
as(S'better'
p1894
g204
tp1895
(lp1896
I1
aI1
aI2
as(S'incremental'
p1897
g2
tp1898
(lp1899
I1
aI1
aI2
as(S'organizational'
p1900
g2
tp1901
(lp1902
I1
aI3
aI5
as(S'medical'
p1903
g2
tp1904
(lp1905
I1
aI6
aI2
as(S'shift'
p1906
g28
tp1907
(lp1908
I1
aI1
aI4
as(S'signifcant'
p1909
g2
tp1910
(lp1911
I1
aI2
aI1
as(S'enthusiastic'
p1912
g2
tp1913
(lp1914
I1
aI2
aI1
as(S'spills'
p1915
g95
tp1916
(lp1917
I1
aI1
aI2
as(S'professional'
p1918
g2
tp1919
(lp1920
I5
aI19
aI6
as(S'extremely'
p1921
g9
tp1922
(lp1923
I1
aI5
aI5
as(S'!'
p1924
g28
tp1925
(lp1926
I3
aI1
aI1
as(S'enormous'
p1927
g2
tp1928
(lp1929
I1
aI1
aI2
as(S'programs'
p1930
g95
tp1931
(lp1932
I1
aI3
aI1
as(S'private'
p1933
g2
tp1934
(lp1935
I1
aI2
aI1
as(S'promotional'
p1936
g2
tp1937
(lp1938
I1
aI1
aI5
as(S'wrong'
p1939
g2
tp1940
(lp1941
I1
aI2
aI1
as(S'nearly'
p1942
g9
tp1943
(lp1944
I1
aI1
aI2
as(S'technical'
p1945
g2
tp1946
(lp1947
I2
aI12
aI7
as(S'orthodox'
p1948
g28
tp1949
(lp1950
I1
aI1
aI2
as(S'break-through'
p1951
g2
tp1952
(lp1953
I1
aI1
aI2
as(S'work-related'
p1954
g2
tp1955
(lp1956
I1
aI1
aI2
as(S'prosper'
p1957
g28
tp1958
(lp1959
I2
aI1
aI1
as(S'family'
p1960
g28
tp1961
(lp1962
I1
aI1
aI2
as(S'simple'
p1963
g2
tp1964
(lp1965
I1
aI1
aI2
as(S'expansion'
p1966
g28
tp1967
(lp1968
I1
aI1
aI2
as(S'companies'
p1969
g95
tp1970
(lp1971
I2
aI1
aI2
as(S'several'
p1972
g2
tp1973
(lp1974
I1
aI4
aI2
as(S'Adversarial'
p1975
g2
tp1976
(lp1977
I1
aI1
aI2
as(S'managerial'
p1978
g2
tp1979
(lp1980
I1
aI1
aI2
as(S'traditional'
p1981
g2
tp1982
(lp1983
I1
aI1
aI2
as(S'kaizen'
p1984
g28
tp1985
(lp1986
I2
aI1
aI1
as(S'crime-filled'
p1987
g2
tp1988
(lp1989
I1
aI1
aI2
as(S'back'
p1990
g9
tp1991
(lp1992
I1
aI2
aI1
as(S'strongly'
p1993
g9
tp1994
(lp1995
I1
aI3
aI1
as(S'slow-moving'
p1996
g2
tp1997
(lp1998
I1
aI1
aI2
as(S'broad'
p1999
g2
tp2000
(lp2001
I1
aI3
aI1
as(S'executive'
p2002
g2
tp2003
(lp2004
I1
aI2
aI4
as(S'employee'
p2005
g28
tp2006
(lp2007
I2
aI2
aI2
as(S'strictly'
p2008
g9
tp2009
(lp2010
I1
aI1
aI3
as(S'steady'
p2011
g2
tp2012
(lp2013
I1
aI2
aI2
as(S'fellow'
p2014
g2
tp2015
(lp2016
I1
aI2
aI2
as(S'departments'
p2017
g95
tp2018
(lp2019
I1
aI1
aI3
as(S'raise'
p2020
g28
tp2021
(lp2022
I1
aI1
aI2
as(S'ful'
p2023
g2
tp2024
(lp2025
I1
aI1
aI2
as(S'diff'
p2026
g28
tp2027
(lp2028
I2
aI1
aI1
as(S'crafts-people'
p2029
g2
tp2030
(lp2031
I1
aI2
aI1
as(S'friendly'
p2032
g2
tp2033
(lp2034
I1
aI3
aI3
as(S'ridiculous'
p2035
g2
tp2036
(lp2037
I1
aI1
aI2
as(S'3rd'
p2038
g2
tp2039
(lp2040
I1
aI1
aI2
as(S'pay'
p2041
g28
tp2042
(lp2043
I3
aI1
aI2
as(S'generally'
p2044
g9
tp2045
(lp2046
I1
aI4
aI4
as(S'greedy'
p2047
g2
tp2048
(lp2049
I1
aI1
aI2
as(S'perfect'
p2050
g2
tp2051
(lp2052
I1
aI3
aI1
as(S'engineer'
p2053
g28
tp2054
(lp2055
I4
aI1
aI1
as(S'bit'
p2056
g28
tp2057
(lp2058
I1
aI1
aI3
as(S'talent'
p2059
g28
tp2060
(lp2061
I2
aI1
aI3
as(S'many'
p2062
g2
tp2063
(lp2064
I6
aI34
aI64
as(S'number'
p2065
g28
tp2066
(lp2067
I1
aI1
aI2
as(S'formal'
p2068
g2
tp2069
(lp2070
I1
aI3
aI3
as(S'Work/life'
p2071
g2
tp2072
(lp2073
I1
aI2
aI2
as(S'Average'
p2074
g2
tp2075
(lp2076
I1
aI1
aI3
as(S'such'
p2077
g2
tp2078
(lp2079
I1
aI3
aI4
as(S'daily'
p2080
g2
tp2081
(lp2082
I1
aI4
aI2
as(S'Too'
p2083
g9
tp2084
(lp2085
I2
aI1
aI14
as(S'generic'
p2086
g2
tp2087
(lp2088
I1
aI1
aI2
as(S'days'
p2089
g95
tp2090
(lp2091
I1
aI1
aI3
as(S'non-existent'
p2092
g2
tp2093
(lp2094
I1
aI1
aI2
as(S'-People'
p2095
g2
tp2096
(lp2097
I1
aI2
aI1
as(S'noticeable'
p2098
g2
tp2099
(lp2100
I1
aI1
aI2
as(S'well'
p2101
g9
tp2102
(lp2103
I3
aI19
aI6
as(S'walmart'
p2104
g28
tp2105
(lp2106
I2
aI1
aI1
as(S'Large'
p2107
g2
tp2108
(lp2109
I4
aI10
aI10
as(S'interesting'
p2110
g2
tp2111
(lp2112
I2
aI14
aI1
as(S'engineering'
p2113
g28
tp2114
(lp2115
I1
aI1
aI2
as(S'complex'
p2116
g2
tp2117
(lp2118
I1
aI2
aI2
as(S'healthy'
p2119
g2
tp2120
(lp2121
I1
aI1
aI2
as(S'Promotions'
p2122
g95
tp2123
(lp2124
I1
aI1
aI2
as(S'worth'
p2125
g28
tp2126
(lp2127
I1
aI2
aI1
as(S'somewhat'
p2128
g9
tp2129
(lp2130
I1
aI2
aI3
as(S'ever'
p2131
g9
tp2132
(lp2133
I4
aI8
aI3
as(S'inwardly'
p2134
g9
tp2135
(lp2136
I2
aI1
aI1
as(S'court'
p2137
g28
tp2138
(lp2139
I1
aI2
aI1
as(S'comforts'
p2140
g95
tp2141
(lp2142
I1
aI1
aI2
as(S'easily'
p2143
g9
tp2144
(lp2145
I1
aI3
aI5
as(S'OK'
p2146
g28
tp2147
(lp2148
I3
aI1
aI1
as(S'recent'
p2149
g2
tp2150
(lp2151
I1
aI2
aI2
as(S'Appliances'
p2152
g95
tp2153
(lp2154
I2
aI1
aI1
as(S'Headquarter-centric'
p2155
g2
tp2156
(lp2157
I1
aI1
aI3
as(S'long'
p2158
g2
tp2159
(lp2160
I1
aI7
aI25
as(S'annual'
p2161
g2
tp2162
(lp2163
I1
aI5
aI4
as(S'Casual'
p2164
g2
tp2165
(lp2166
I1
aI2
aI1
as(S'goods'
p2167
g95
tp2168
(lp2169
I1
aI1
aI2
as(S'company,'
p2170
g28
tp2171
(lp2172
I1
aI1
aI2
as(S'continuously'
p2173
g9
tp2174
(lp2175
I1
aI1
aI3
as(S"'ole"
p2176
g2
tp2177
(lp2178
I1
aI1
aI2
as(S'finance'
p2179
g28
tp2180
(lp2181
I1
aI2
aI1
as(S'horrible'
p2182
g2
tp2183
(lp2184
I2
aI1
aI2
as(S'fruition'
p2185
g28
tp2186
(lp2187
I1
aI1
aI2
as(S'impact'
p2188
g28
tp2189
(lp2190
I1
aI1
aI3
as(S'improvement'
p2191
g28
tp2192
(lp2193
I3
aI1
aI1
as(S'retail'
p2194
g2
tp2195
(lp2196
I4
aI5
aI13
as(S'Terrible'
p2197
g2
tp2198
(lp2199
I1
aI1
aI2
as(S'economics'
p2200
g95
tp2201
(lp2202
I1
aI1
aI2
as(S'recreational'
p2203
g2
tp2204
(lp2205
I1
aI1
aI2
as(S'pragmatic'
p2206
g2
tp2207
(lp2208
I2
aI1
aI1
as(S'intensive'
p2209
g2
tp2210
(lp2211
I1
aI2
aI1
as(S'livable'
p2212
g2
tp2213
(lp2214
I1
aI2
aI1
as(S'varied'
p2215
g2
tp2216
(lp2217
I1
aI2
aI1
as(S'extra'
p2218
g2
tp2219
(lp2220
I1
aI1
aI2
as(S'next'
p2221
g2
tp2222
(lp2223
I1
aI1
aI6
as(S'upper'
p2224
g2
tp2225
(lp2226
I2
aI3
aI10
as(S'sick/personal'
p2227
g2
tp2228
(lp2229
I1
aI2
aI1
as(S'space'
p2230
g28
tp2231
(lp2232
I1
aI1
aI2
as(S'making/closing'
p2233
g2
tp2234
(lp2235
I1
aI1
aI2
as(S'paths'
p2236
g95
tp2237
(lp2238
I2
aI1
aI1
as(S'fundamentals'
p2239
g95
tp2240
(lp2241
I2
aI1
aI1
as(S'equitqable'
p2242
g2
tp2243
(lp2244
I2
aI1
aI1
as(S'developers'
p2245
g95
tp2246
(lp2247
I2
aI1
aI1
as(S'stonewall'
p2248
g2
tp2249
(lp2250
I1
aI1
aI2
as(S'opportunities'
p2251
g95
tp2252
(lp2253
I5
aI1
aI2
as(S'-Some'
p2254
g2
tp2255
(lp2256
I1
aI1
aI2
as(S'balance'
p2257
g28
tp2258
(lp2259
I3
aI1
aI5
as(S'specific'
p2260
g2
tp2261
(lp2262
I1
aI1
aI3
as(S'upward'
p2263
g2
tp2264
(lp2265
I1
aI1
aI4
as(S'college'
p2266
g28
tp2267
(lp2268
I2
aI1
aI1
as(S'increadible'
p2269
g2
tp2270
(lp2271
I1
aI2
aI1
as(S'quantitative'
p2272
g2
tp2273
(lp2274
I1
aI1
aI2
as(S'nothing'
p2275
g28
tp2276
(lp2277
I1
aI2
aI1
as(S'ongoing'
p2278
g2
tp2279
(lp2280
I1
aI2
aI1
as(S'wha'
p2281
g28
tp2282
(lp2283
I2
aI1
aI1
as(S'Technical'
p2284
g2
tp2285
(lp2286
I2
aI1
aI1
as(S'marketable'
p2287
g2
tp2288
(lp2289
I1
aI2
aI1
as(S'once'
p2290
g9
tp2291
(lp2292
I1
aI3
aI1
as(S'effectively'
p2293
g9
tp2294
(lp2295
I1
aI1
aI2
as(S'dis-functional'
p2296
g2
tp2297
(lp2298
I1
aI1
aI2
as(S'unit'
p2299
g28
tp2300
(lp2301
I1
aI1
aI2
as(S'stone'
p2302
g28
tp2303
(lp2304
I2
aI1
aI1
as(S'senior'
p2305
g2
tp2306
(lp2307
I2
aI9
aI15
as(S'big'
p2308
g2
tp2309
(lp2310
I5
aI17
aI16
as(S'justifiable'
p2311
g2
tp2312
(lp2313
I1
aI1
aI2
as(S'comparable'
p2314
g2
tp2315
(lp2316
I1
aI1
aI2
as(S'bp'
p2317
g28
tp2318
(lp2319
I2
aI1
aI1
as(S'Not'
p2320
g9
tp2321
(lp2322
I3
aI2
aI16
as(S'stre'
p2323
g28
tp2324
(lp2325
I2
aI1
aI1
as(S'hierarchal'
p2326
g2
tp2327
(lp2328
I1
aI1
aI2
as(S'blue'
p2329
g2
tp2330
(lp2331
I1
aI2
aI1
as(S'truly'
p2332
g9
tp2333
(lp2334
I1
aI2
aI4
as(S'seem'
p2335
g28
tp2336
(lp2337
I1
aI1
aI2
as(S'new-hire'
p2338
g2
tp2339
(lp2340
I1
aI2
aI1
as(S'depts'
p2341
g95
tp2342
(lp2343
I1
aI1
aI2
as(S'-Faire'
p2344
g2
tp2345
(lp2346
I1
aI2
aI1
as(S'salary'
p2347
g28
tp2348
(lp2349
I2
aI2
aI1
as(S'supervisors'
p2350
g95
tp2351
(lp2352
I1
aI1
aI2
as(S'time'
p2353
g28
tp2354
(lp2355
I3
aI1
aI1
as(S'approach'
p2356
g28
tp2357
(lp2358
I1
aI1
aI2
as(S'overly'
p2359
g9
tp2360
(lp2361
I1
aI1
aI3
as(S'analyst'
p2362
g28
tp2363
(lp2364
I2
aI1
aI1
as(S'inadequate'
p2365
g2
tp2366
(lp2367
I1
aI1
aI3
as(S'REALLY'
p2368
g9
tp2369
(lp2370
I1
aI1
aI2
as(S'inertial'
p2371
g2
tp2372
(lp2373
I1
aI1
aI2
as(S'understaffing'
p2374
g28
tp2375
(lp2376
I2
aI1
aI1
as(S'commercial'
p2377
g2
tp2378
(lp2379
I1
aI2
aI1
as(S'strong'
p2380
g2
tp2381
(lp2382
I2
aI11
aI4
as(S'dead'
p2383
g2
tp2384
(lp2385
I1
aI1
aI3
as(S'honest'
p2386
g2
tp2387
(lp2388
I1
aI2
aI1
as(S'hugely'
p2389
g9
tp2390
(lp2391
I1
aI1
aI2
as(S'cutthroat'
p2392
g2
tp2393
(lp2394
I1
aI2
aI1
as(S'Never'
p2395
g9
tp2396
(lp2397
I1
aI3
aI2
as(S'hours'
p2398
g95
tp2399
(lp2400
I1
aI3
aI3
as(S'realistic'
p2401
g2
tp2402
(lp2403
I1
aI1
aI2
as(S'eduactional'
p2404
g2
tp2405
(lp2406
I1
aI2
aI1
as(S'Flexible'
p2407
g2
tp2408
(lp2409
I2
aI14
aI1
as(S'Total'
p2410
g2
tp2411
(lp2412
I1
aI2
aI1
as(S'recognition'
p2413
g28
tp2414
(lp2415
I1
aI1
aI2
as(S'service'
p2416
g28
tp2417
(lp2418
I2
aI1
aI1
as(S'autonomous'
p2419
g2
tp2420
(lp2421
I1
aI2
aI1
as(S'anonymity'
p2422
g28
tp2423
(lp2424
I1
aI1
aI3
as(S'experience'
p2425
g28
tp2426
(lp2427
I15
aI1
aI2
as(S'offshoring'
p2428
g28
tp2429
(lp2430
I1
aI1
aI2
as(S'skills'
p2431
g95
tp2432
(lp2433
I2
aI1
aI1
as(S'appear'
p2434
g2
tp2435
(lp2436
I1
aI1
aI2
as(S'High'
p2437
g2
tp2438
(lp2439
I1
aI5
aI4
as(S'-Much'
p2440
g2
tp2441
(lp2442
I1
aI2
aI1
as(S'junior'
p2443
g2
tp2444
(lp2445
I1
aI1
aI2
as(S'compartmentalized'
p2446
g2
tp2447
(lp2448
I1
aI1
aI2
as(S'cool'
p2449
g2
tp2450
(lp2451
I1
aI3
aI1
as(S'families/children/other'
p2452
g2
tp2453
(lp2454
I1
aI1
aI2
as(S'Personal'
p2455
g2
tp2456
(lp2457
I4
aI1
aI2
as(S'analytical'
p2458
g2
tp2459
(lp2460
I1
aI1
aI2
as(S'inititative'
p2461
g2
tp2462
(lp2463
I1
aI1
aI2
as(S'Nothing'
p2464
g28
tp2465
(lp2466
I1
aI2
aI1
as(S'Horrible'
p2467
g2
tp2468
(lp2469
I1
aI1
aI2
as(S'trivial'
p2470
g2
tp2471
(lp2472
I1
aI1
aI2
as(S'locomotive'
p2473
g2
tp2474
(lp2475
I1
aI2
aI1
as(S'financial'
p2476
g2
tp2477
(lp2478
I1
aI9
aI9
as(S'highly'
p2479
g9
tp2480
(lp2481
I1
aI5
aI8
as(S'-Ignorant/impatient/rude'
p2482
g2
tp2483
(lp2484
I1
aI1
aI2
as(S'necessarily'
p2485
g9
tp2486
(lp2487
I1
aI2
aI5
as(S'non-essential'
p2488
g2
tp2489
(lp2490
I1
aI1
aI2
as(S'there'
p2491
g9
tp2492
(lp2493
I1
aI2
aI2
as(S'wor'
p2494
g28
tp2495
(lp2496
I2
aI1
aI1
as(S'yields'
p2497
g95
tp2498
(lp2499
I1
aI1
aI2
as(S'exciting'
p2500
g2
tp2501
(lp2502
I1
aI2
aI1
as(S'VP/Director/MD'
p2503
g2
tp2504
(lp2505
I1
aI2
aI1
as(S'accessible'
p2506
g2
tp2507
(lp2508
I1
aI2
aI1
as(S'management'
p2509
g28
tp2510
(lp2511
I8
aI2
aI3
as(S'matrix'
p2512
g28
tp2513
(lp2514
I2
aI1
aI1
as(S'Mechanical'
p2515
g2
tp2516
(lp2517
I2
aI1
aI1
as(S'Great'
p2518
g2
tp2519
(lp2520
I1
aI2
aI1
as(S'inclusive'
p2521
g2
tp2522
(lp2523
I1
aI1
aI2
as(S'Japanese'
p2524
g2
tp2525
(lp2526
I1
aI2
aI6
as(S'consrvatorship'
p2527
g28
tp2528
(lp2529
I2
aI1
aI1
as(S'severely'
p2530
g9
tp2531
(lp2532
I1
aI1
aI2
as(S'rather'
p2533
g9
tp2534
(lp2535
I1
aI2
aI1
as(S'privacy'
p2536
g28
tp2537
(lp2538
I1
aI1
aI2
as(S'similar'
p2539
g2
tp2540
(lp2541
I1
aI2
aI7
as(S'numerical'
p2542
g2
tp2543
(lp2544
I1
aI1
aI2
as(S'-Conforming'
p2545
g2
tp2546
(lp2547
I1
aI1
aI2
as(S'great'
p2548
g2
tp2549
(lp2550
I55
aI101
aI14
as(S'strict'
p2551
g2
tp2552
(lp2553
I1
aI1
aI2
as(S'Georgaphical'
p2554
g2
tp2555
(lp2556
I1
aI2
aI1
as(S'career'
p2557
g28
tp2558
(lp2559
I2
aI1
aI2
as(S'lean'
p2560
g2
tp2561
(lp2562
I1
aI3
aI1
as(S'moderate'
p2563
g2
tp2564
(lp2565
I1
aI2
aI1
as(S'day'
p2566
g28
tp2567
(lp2568
I1
aI1
aI2
as(S'history'
p2569
g28
tp2570
(lp2571
I1
aI1
aI2
as(S'okay'
p2572
g28
tp2573
(lp2574
I2
aI1
aI1
as(S'easy'
p2575
g2
tp2576
(lp2577
I1
aI3
aI1
as(S'performance'
p2578
g28
tp2579
(lp2580
I2
aI1
aI2
as(S'globally'
p2581
g9
tp2582
(lp2583
I1
aI2
aI1
as(S'consistently'
p2584
g9
tp2585
(lp2586
I2
aI1
aI1
as(S'interim'
p2587
g2
tp2588
(lp2589
I1
aI2
aI1
as(S'huge'
p2590
g2
tp2591
(lp2592
I1
aI3
aI11
as(S'-Being'
p2593
g2
tp2594
(lp2595
I1
aI2
aI1
as(S'greatly'
p2596
g9
tp2597
(lp2598
I1
aI1
aI2
as(S'wonderfull'
p2599
g2
tp2600
(lp2601
I2
aI1
aI1
as(S'-Great'
p2602
g2
tp2603
(lp2604
I1
aI4
aI1
as(S'convenient'
p2605
g2
tp2606
(lp2607
I1
aI1
aI2
as(S'numerous'
p2608
g2
tp2609
(lp2610
I1
aI2
aI2
as(S'crises'
p2611
g95
tp2612
(lp2613
I1
aI1
aI2
as(S'-challenging'
p2614
g2
tp2615
(lp2616
I1
aI2
aI1
as(S'profits'
p2617
g95
tp2618
(lp2619
I2
aI1
aI1
as(S'ar'
p2620
g9
tp2621
(lp2622
I2
aI1
aI1
as(S'fat'
p2623
g2
tp2624
(lp2625
I1
aI1
aI2
as(S'cultural'
p2626
g2
tp2627
(lp2628
I1
aI2
aI1
as(S'Corporate'
p2629
g2
tp2630
(lp2631
I1
aI5
aI2
as(S'o.t'
p2632
g2
tp2633
(lp2634
I1
aI2
aI2
as(S'likely'
p2635
g9
tp2636
(lp2637
I1
aI2
aI1
as(S'aggressively'
p2638
g9
tp2639
(lp2640
I1
aI2
aI2
as(S'optimal'
p2641
g2
tp2642
(lp2643
I1
aI1
aI2
as(S'workers'
p2644
g95
tp2645
(lp2646
I2
aI1
aI1
as(S'Fire-fight'
p2647
g2
tp2648
(lp2649
I1
aI1
aI2
as(S'are'
p2650
g2
tp2651
(lp2652
I1
aI2
aI1
as(S'informally'
p2653
g9
tp2654
(lp2655
I1
aI2
aI1
as(S'times'
p2656
g95
tp2657
(lp2658
I3
aI1
aI1
as(S'sales'
p2659
g95
tp2660
(lp2661
I1
aI1
aI3
as(S'cons'
p2662
g95
tp2663
(lp2664
I4
aI1
aI1
as(S'Financial'
p2665
g2
tp2666
(lp2667
I2
aI1
aI1
as(S'allowing'
p2668
g28
tp2669
(lp2670
I1
aI1
aI2
as(S'skill'
p2671
g28
tp2672
(lp2673
I1
aI1
aI2
as(S'main'
p2674
g2
tp2675
(lp2676
I1
aI2
aI4
as(S'circumstances'
p2677
g95
tp2678
(lp2679
I2
aI1
aI1
as(S'classes'
p2680
g95
tp2681
(lp2682
I1
aI2
aI1
as(S'diverse'
p2683
g2
tp2684
(lp2685
I1
aI8
aI1
as(S'ever-changing'
p2686
g2
tp2687
(lp2688
I2
aI1
aI1
as(S'large'
p2689
g2
tp2690
(lp2691
I5
aI10
aI17
as(S'automation'
p2692
g28
tp2693
(lp2694
I2
aI1
aI1
as(S'much'
p2695
g9
tp2696
(lp2697
I1
aI2
aI9
as(S'fresh'
p2698
g2
tp2699
(lp2700
I1
aI4
aI2
as(S'employment'
p2701
g28
tp2702
(lp2703
I2
aI1
aI1
as(S'geologists'
p2704
g95
tp2705
(lp2706
I2
aI1
aI1
as(S'crap'
p2707
g28
tp2708
(lp2709
I1
aI1
aI2
as(S'hectic'
p2710
g2
tp2711
(lp2712
I1
aI1
aI2
as(S'Relatively'
p2713
g9
tp2714
(lp2715
I1
aI2
aI1
as(S'different'
p2716
g2
tp2717
(lp2718
I1
aI28
aI13
as(S'follow'
p2719
g2
tp2720
(lp2721
I1
aI1
aI2
as(S'grown-up'
p2722
g2
tp2723
(lp2724
I3
aI1
aI1
as(S'close'
p2725
g2
tp2726
(lp2727
I1
aI1
aI2
as(S'certain'
p2728
g2
tp2729
(lp2730
I1
aI2
aI12
as(S'public'
p2731
g2
tp2732
(lp2733
I1
aI2
aI5
as(S'development/training'
p2734
g2
tp2735
(lp2736
I1
aI1
aI2
as(S'regular'
p2737
g2
tp2738
(lp2739
I1
aI2
aI2
as(S'additional'
p2740
g2
tp2741
(lp2742
I1
aI3
aI4
as(S'engineers'
p2743
g95
tp2744
(lp2745
I2
aI1
aI1
as(S'conservative'
p2746
g2
tp2747
(lp2748
I1
aI3
aI2
as(S'industrial'
p2749
g2
tp2750
(lp2751
I1
aI1
aI2
as(S'pleasant'
p2752
g2
tp2753
(lp2754
I2
aI1
aI1
as(S'feels'
p2755
g95
tp2756
(lp2757
I1
aI2
aI1
as(S'non-business'
p2758
g2
tp2759
(lp2760
I1
aI1
aI2
as(S'poor'
p2761
g2
tp2762
(lp2763
I4
aI1
aI13
as(S'busy'
p2764
g2
tp2765
(lp2766
I1
aI1
aI3
as(S'roles'
p2767
g95
tp2768
(lp2769
I1
aI1
aI2
as(S'on-site'
p2770
g2
tp2771
(lp2772
I1
aI4
aI1
as(S'Positive'
p2773
g2
tp2774
(lp2775
I4
aI1
aI1
as(S'sexual'
p2776
g2
tp2777
(lp2778
I1
aI2
aI1
as(S'totally'
p2779
g9
tp2780
(lp2781
I1
aI1
aI3
as(S'holidays'
p2782
g95
tp2783
(lp2784
I1
aI1
aI2
as(S'really'
p2785
g9
tp2786
(lp2787
I1
aI8
aI16
as(S'also'
p2788
g9
tp2789
(lp2790
I1
aI5
aI9
as(S'useful'
p2791
g2
tp2792
(lp2793
I1
aI2
aI2
as(S'bonus'
p2794
g28
tp2795
(lp2796
I1
aI2
aI1
as(S'security'
p2797
g28
tp2798
(lp2799
I2
aI1
aI1
as(S'Long'
p2800
g2
tp2801
(lp2802
I2
aI1
aI6
as(S'toooooooo'
p2803
g9
tp2804
(lp2805
I1
aI1
aI2
as(S'vastly'
p2806
g9
tp2807
(lp2808
I1
aI2
aI1
as(S'enjoyable'
p2809
g2
tp2810
(lp2811
I1
aI2
aI1
as(S'willing'
p2812
g2
tp2813
(lp2814
I2
aI1
aI1
as(S'stressful'
p2815
g2
tp2816
(lp2817
I2
aI2
aI1
as(S'Highly'
p2818
g9
tp2819
(lp2820
I1
aI3
aI1
as(S'visual'
p2821
g2
tp2822
(lp2823
I1
aI2
aI1
as(S'utterly'
p2824
g9
tp2825
(lp2826
I1
aI1
aI2
as(S'Finally'
p2827
g9
tp2828
(lp2829
I1
aI1
aI2
as(S'ages'
p2830
g95
tp2831
(lp2832
I2
aI1
aI1
as(S'international'
p2833
g2
tp2834
(lp2835
I3
aI11
aI5
as(S'dynamic'
p2836
g2
tp2837
(lp2838
I1
aI2
aI1
as(S'fast'
p2839
g9
tp2840
(lp2841
I2
aI1
aI1
as(S'profitable'
p2842
g2
tp2843
(lp2844
I1
aI2
aI1
as(S'plant'
p2845
g28
tp2846
(lp2847
I1
aI1
aI2
as(S'corporate'
p2848
g2
tp2849
(lp2850
I6
aI9
aI14
as(S'game'
p2851
g28
tp2852
(lp2853
I1
aI1
aI3
as(S'originally'
p2854
g9
tp2855
(lp2856
I1
aI1
aI2
as(S'political'
p2857
g2
tp2858
(lp2859
I2
aI1
aI6
as(S'areas'
p2860
g95
tp2861
(lp2862
I2
aI1
aI2
as(S'reputable'
p2863
g2
tp2864
(lp2865
I2
aI2
aI1
as(S'environment'
p2866
g28
tp2867
(lp2868
I6
aI2
aI2
as(S'togather'
p2869
g28
tp2870
(lp2871
I1
aI1
aI2
as(S'sweet'
p2872
g2
tp2873
(lp2874
I1
aI1
aI2
as(S'macroscopic'
p2875
g2
tp2876
(lp2877
I1
aI1
aI2
as(S'training'
p2878
g28
tp2879
(lp2880
I2
aI2
aI2
as(S'individual'
p2881
g2
tp2882
(lp2883
I1
aI7
aI11
as(S'meritocracy'
p2884
g28
tp2885
(lp2886
I1
aI1
aI2
as(S'unique'
p2887
g2
tp2888
(lp2889
I1
aI2
aI1
as(S'soon'
p2890
g9
tp2891
(lp2892
I1
aI1
aI2
as(S'banking'
p2893
g28
tp2894
(lp2895
I2
aI1
aI1
as(S'initiatives'
p2896
g95
tp2897
(lp2898
I1
aI1
aI2
as(S'business'
p2899
g28
tp2900
(lp2901
I1
aI1
aI2
as(S'diminshed'
p2902
g2
tp2903
(lp2904
I1
aI2
aI1
as(S'basic'
p2905
g2
tp2906
(lp2907
I2
aI2
aI2
as(S'research'
p2908
g28
tp2909
(lp2910
I1
aI2
aI1
as(S'charitable'
p2911
g2
tp2912
(lp2913
I1
aI2
aI1
as(S'innovation'
p2914
g28
tp2915
(lp2916
I1
aI1
aI2
as(S'excellent'
p2917
g2
tp2918
(lp2919
I2
aI3
aI1
as(S'monetary'
p2920
g2
tp2921
(lp2922
I1
aI1
aI3
as(S'very'
p2923
g9
tp2924
(lp2925
I16
aI58
aI74
as(S'.but'
p2926
g2
tp2927
(lp2928
I1
aI2
aI1
as(S'outsourcing'
p2929
g28
tp2930
(lp2931
I1
aI1
aI2
as(S'silo'
p2932
g9
tp2933
(lp2934
I1
aI1
aI2
as(S'More'
p2935
g204
tp2936
(lp2937
I1
aI2
aI1
as(S'competitors'
p2938
g95
tp2939
(lp2940
I1
aI1
aI2
as(S'active'
p2941
g2
tp2942
(lp2943
I1
aI1
aI2
as(S'moderately'
p2944
g9
tp2945
(lp2946
I1
aI2
aI1
as(S'unreasonable'
p2947
g2
tp2948
(lp2949
I1
aI1
aI2
as(S'else'
p2950
g9
tp2951
(lp2952
I1
aI1
aI4
as(S'electrical'
p2953
g2
tp2954
(lp2955
I1
aI1
aI2
as(S'homeless'
p2956
g2
tp2957
(lp2958
I1
aI1
aI2
as(S'drastic'
p2959
g2
tp2960
(lp2961
I1
aI1
aI2
as(S'toyota'
p2962
g28
tp2963
(lp2964
I2
aI1
aI1
as(S'sour-tasting'
p2965
g2
tp2966
(lp2967
I1
aI1
aI2
as(S'Fantastic'
p2968
g2
tp2969
(lp2970
I2
aI1
aI1
as(S'talents'
p2971
g95
tp2972
(lp2973
I1
aI2
aI1
as(S'acceptable'
p2974
g2
tp2975
(lp2976
I1
aI2
aI1
as(S'superior'
p2977
g2
tp2978
(lp2979
I2
aI1
aI2
as(S'tremendous'
p2980
g2
tp2981
(lp2982
I1
aI2
aI2
as(S'first'
p2983
g2
tp2984
(lp2985
I4
aI4
aI4
as(S'process'
p2986
g28
tp2987
(lp2988
I1
aI1
aI3
as(S'separate'
p2989
g2
tp2990
(lp2991
I1
aI1
aI2
as(S'not-so-great'
p2992
g2
tp2993
(lp2994
I2
aI1
aI1
as(S'commonly'
p2995
g9
tp2996
(lp2997
I1
aI1
aI2
as(S'stores'
p2998
g95
tp2999
(lp3000
I1
aI2
aI1
as(S'again'
p3001
g9
tp3002
(lp3003
I2
aI1
aI1
as(S'progress'
p3004
g28
tp3005
(lp3006
I1
aI1
aI2
as(S'fair'
p3007
g2
tp3008
(lp3009
I2
aI3
aI2
as(S'-Long'
p3010
g2
tp3011
(lp3012
I1
aI1
aI2
as(S'entire'
p3013
g2
tp3014
(lp3015
I1
aI4
aI3
as(S'-On'
p3016
g2
tp3017
(lp3018
I1
aI2
aI1
as(S'Looks'
p3019
g95
tp3020
(lp3021
I1
aI2
aI1
as(S'prestigious'
p3022
g2
tp3023
(lp3024
I1
aI2
aI1
as(S'non-core'
p3025
g2
tp3026
(lp3027
I1
aI1
aI2
as(S'delays'
p3028
g95
tp3029
(lp3030
I1
aI1
aI2
as(S'vision'
p3031
g28
tp3032
(lp3033
I1
aI1
aI2
as(S'staff'
p3034
g28
tp3035
(lp3036
I1
aI1
aI2
as(S'ethical'
p3037
g2
tp3038
(lp3039
I1
aI3
aI1
as(S'Tremendous'
p3040
g2
tp3041
(lp3042
I1
aI2
aI1
as(S'company'
p3043
g28
tp3044
(lp3045
I22
aI3
aI9
as(S'positions'
p3046
g95
tp3047
(lp3048
I2
aI1
aI1
as(S'supporting/developing'
p3049
g2
tp3050
(lp3051
I1
aI1
aI2
as(S'future'
p3052
g2
tp3053
(lp3054
I3
aI3
aI3
as(S'grow'
p3055
g28
tp3056
(lp3057
I3
aI1
aI1
as(S'controls'
p3058
g95
tp3059
(lp3060
I1
aI1
aI2
as(S'Under-appreciated'
p3061
g2
tp3062
(lp3063
I2
aI1
aI1
as(S'Added'
p3064
g2
tp3065
(lp3066
I1
aI1
aI2
as(S'name'
p3067
g28
tp3068
(lp3069
I2
aI1
aI1
as(S'arrogant'
p3070
g2
tp3071
(lp3072
I1
aI1
aI2
as(S'sometime'
p3073
g2
tp3074
(lp3075
I1
aI2
aI1
as(S'referrals,'
p3076
g2
tp3077
(lp3078
I1
aI1
aI2
as(S'often'
p3079
g9
tp3080
(lp3081
I1
aI1
aI10
as(S'needs'
p3082
g95
tp3083
(lp3084
I2
aI1
aI1
as(S'bad/poor'
p3085
g2
tp3086
(lp3087
I1
aI1
aI2
as(S'instant'
p3088
g2
tp3089
(lp3090
I1
aI3
aI1
as(S'technologies'
p3091
g95
tp3092
(lp3093
I2
aI1
aI1
as(S'Benefits'
p3094
g95
tp3095
(lp3096
I1
aI2
aI1
as(S'Family'
p3097
g9
tp3098
(lp3099
I1
aI2
aI1
as(S'leaders'
p3100
g95
tp3101
(lp3102
I1
aI1
aI2
as(S'in-house'
p3103
g2
tp3104
(lp3105
I1
aI2
aI1
as(S'rarely'
p3106
g9
tp3107
(lp3108
I1
aI2
aI1
as(S'general'
p3109
g2
tp3110
(lp3111
I1
aI3
aI5
as(S'only'
p3112
g9
tp3113
(lp3114
I3
aI3
aI11
as(S'particular'
p3115
g2
tp3116
(lp3117
I1
aI2
aI1
as(S'industry'
p3118
g28
tp3119
(lp3120
I2
aI2
aI3
as(S'true'
p3121
g2
tp3122
(lp3123
I1
aI2
aI5
as(S'integrated'
p3124
g2
tp3125
(lp3126
I1
aI1
aI2
as(S'commission'
p3127
g28
tp3128
(lp3129
I1
aI2
aI1
as(S'('
p3130
g28
tp3131
(lp3132
I1
aI1
aI2
as(S'supportive'
p3133
g2
tp3134
(lp3135
I2
aI3
aI1
as(S'flex-work/remote'
p3136
g2
tp3137
(lp3138
I1
aI2
aI1
as(S'as'
p3139
g9
tp3140
(lp3141
I2
aI2
aI3
as(S'limited'
p3142
g2
tp3143
(lp3144
I1
aI1
aI2
as(S'full'
p3145
g2
tp3146
(lp3147
I3
aI8
aI2
as(S'human'
p3148
g2
tp3149
(lp3150
I1
aI1
aI2
as(S'friendly'
p3151
g9
tp3152
(lp3153
I1
aI2
aI1
as(S'job'
p3154
g28
tp3155
(lp3156
I4
aI1
aI3
as(S'non-retail'
p3157
g2
tp3158
(lp3159
I1
aI2
aI1
as(S'probably'
p3160
g9
tp3161
(lp3162
I1
aI1
aI2
as(S'able'
p3163
g2
tp3164
(lp3165
I1
aI2
aI1
as.