(dp0
(S'sensible'
p1
S'JJ'
p2
tp3
(lp4
I1
aI1
aI2
as(S'rapid'
p5
g2
tp6
(lp7
I2
aI4
aI2
as(S'Stable'
p8
g2
tp9
(lp10
I4
aI1
aI1
as(S'siginificant'
p11
g2
tp12
(lp13
I2
aI1
aI1
as(S'fumbly'
p14
S'RB'
p15
tp16
(lp17
I2
aI1
aI1
as(S'ously'
p18
g15
tp19
(lp20
I1
aI2
aI1
as(S'Vestigial'
p21
g2
tp22
(lp23
I1
aI1
aI3
as(S'usual'
p24
g2
tp25
(lp26
I1
aI3
aI4
as(S'internally'
p27
g15
tp28
(lp29
I2
aI1
aI3
as(S'-Good'
p30
g2
tp31
(lp32
I1
aI2
aI1
as(S'weak'
p33
g2
tp34
(lp35
I1
aI1
aI6
as(S'young'
p36
g2
tp37
(lp38
I5
aI8
aI10
as(S'level'
p39
S'NN'
p40
tp41
(lp42
I3
aI1
aI10
as(S'merit'
p43
g40
tp44
(lp45
I3
aI1
aI1
as(S'challeng'
p46
g2
tp47
(lp48
I2
aI1
aI1
as(S'typically'
p49
g15
tp50
(lp51
I1
aI3
aI3
as(S'arduous'
p52
g2
tp53
(lp54
I1
aI1
aI2
as(S'wide'
p55
g2
tp56
(lp57
I4
aI19
aI2
as(S'already'
p58
g15
tp59
(lp60
I1
aI1
aI2
as(S'wind/water/power'
p61
g2
tp62
(lp63
I1
aI2
aI1
as(S'unnecessary'
p64
g2
tp65
(lp66
I1
aI1
aI3
as(S'after-work'
p67
g2
tp68
(lp69
I1
aI3
aI1
as(S'role'
p70
g40
tp71
(lp72
I3
aI1
aI2
as(S'respects'
p73
S'NNS'
p74
tp75
(lp76
I2
aI1
aI1
as(S'-Work/Life'
p77
g2
tp78
(lp79
I1
aI2
aI1
as(S'Promotions'
p80
g74
tp81
(lp82
I1
aI1
aI2
as(S'Individualized'
p83
g2
tp84
(lp85
I1
aI2
aI1
as(S'likely'
p86
g2
tp87
(lp88
I1
aI2
aI3
as(S'clerical'
p89
g2
tp90
(lp91
I1
aI1
aI2
as(S'target'
p92
g40
tp93
(lp94
I1
aI1
aI2
as(S'extra'
p95
g40
tp96
(lp97
I1
aI1
aI2
as(S'expensive'
p98
g2
tp99
(lp100
I1
aI1
aI4
as(S'documentations'
p101
g74
tp102
(lp103
I1
aI1
aI2
as(S'poorly'
p104
g15
tp105
(lp106
I1
aI1
aI6
as(S'economic'
p107
g2
tp108
(lp109
I1
aI8
aI6
as(S'military'
p110
g2
tp111
(lp112
I1
aI1
aI2
as(S'volume'
p113
g40
tp114
(lp115
I2
aI1
aI1
as(S'packaged'
p116
g2
tp117
(lp118
I1
aI2
aI1
as(S'physcially'
p119
g15
tp120
(lp121
I1
aI1
aI2
as(S'solidly'
p122
g15
tp123
(lp124
I1
aI2
aI1
as(S'academic'
p125
g2
tp126
(lp127
I1
aI2
aI2
as(S'Ridiculous'
p128
g2
tp129
(lp130
I1
aI1
aI2
as(S'apps'
p131
g74
tp132
(lp133
I1
aI1
aI2
as(S'certainly'
p134
g15
tp135
(lp136
I1
aI2
aI2
as(S'forward'
p137
g15
tp138
(lp139
I4
aI3
aI1
as(S'outstanding'
p140
g2
tp141
(lp142
I1
aI5
aI2
as(S'preferred'
p143
g2
tp144
(lp145
I1
aI2
aI1
as(S'tedious'
p146
g2
tp147
(lp148
I1
aI1
aI4
as(S'suburbs'
p149
g74
tp150
(lp151
I1
aI1
aI2
as(S'institutional'
p152
g2
tp153
(lp154
I1
aI1
aI2
as(S'intense'
p155
g2
tp156
(lp157
I2
aI1
aI3
as(S'technologically'
p158
g15
tp159
(lp160
I2
aI3
aI1
as(S'more'
p161
S'RBR'
p162
tp163
(lp164
I1
aI14
aI30
as(S'natural'
p165
g2
tp166
(lp167
I1
aI1
aI3
as(S'Fabulous'
p168
g2
tp169
(lp170
I2
aI1
aI1
as(S'Passive/Agressive'
p171
g2
tp172
(lp173
I2
aI1
aI1
as(S'non-exempt'
p174
g2
tp175
(lp176
I1
aI1
aI2
as(S'project'
p177
g40
tp178
(lp179
I1
aI1
aI2
as(S'inflexible'
p180
g2
tp181
(lp182
I1
aI1
aI2
as(S'practitioner'
p183
g40
tp184
(lp185
I1
aI1
aI2
as(S'policy'
p186
g40
tp187
(lp188
I1
aI1
aI2
as(S'vacation/year'
p189
g2
tp190
(lp191
I1
aI2
aI1
as(S'kids'
p192
g74
tp193
(lp194
I1
aI1
aI5
as(S'red'
p195
g2
tp196
(lp197
I1
aI2
aI2
as(S'so'
p198
g15
tp199
(lp200
I6
aI20
aI37
as(S'transformation'
p201
g40
tp202
(lp203
I2
aI1
aI1
as(S'Super-flexible'
p204
g2
tp205
(lp206
I1
aI2
aI1
as(S'%'
p207
g40
tp208
(lp209
I1
aI1
aI4
as(S'favorable'
p210
g2
tp211
(lp212
I1
aI2
aI1
as(S'life/work'
p213
g2
tp214
(lp215
I1
aI1
aI3
as(S'department'
p216
g40
tp217
(lp218
I3
aI1
aI2
as(S'mental'
p219
g2
tp220
(lp221
I1
aI1
aI2
as(S'seasonal'
p222
g2
tp223
(lp224
I1
aI1
aI2
as(S'ecery'
p225
g15
tp226
(lp227
I1
aI2
aI1
as(S'Sabbatical'
p228
g2
tp229
(lp230
I1
aI2
aI1
as(S'common'
p231
g2
tp232
(lp233
I1
aI2
aI10
as(S'solid'
p234
g2
tp235
(lp236
I5
aI13
aI6
as(S'committments'
p237
g74
tp238
(lp239
I1
aI1
aI2
as(S'experiences'
p240
g74
tp241
(lp242
I4
aI1
aI2
as(S'middle'
p243
g2
tp244
(lp245
I2
aI4
aI3
as(S'~6'
p246
g2
tp247
(lp248
I1
aI2
aI1
as(S'cross-office'
p249
g2
tp250
(lp251
I1
aI1
aI2
as(S'department-centric'
p252
g2
tp253
(lp254
I1
aI1
aI2
as(S'racial'
p255
g2
tp256
(lp257
I1
aI1
aI2
as(S'quire'
p258
g15
tp259
(lp260
I1
aI2
aI1
as(S'curve'
p261
g40
tp262
(lp263
I3
aI1
aI1
as(S'barely'
p264
g15
tp265
(lp266
I1
aI1
aI2
as(S'mission'
p267
g40
tp268
(lp269
I2
aI1
aI1
as(S'-Lower'
p270
g2
tp271
(lp272
I1
aI1
aI2
as(S'Exceptional'
p273
g2
tp274
(lp275
I1
aI2
aI1
as(S'reasonably'
p276
g15
tp277
(lp278
I2
aI2
aI2
as(S'type'
p279
g40
tp280
(lp281
I2
aI1
aI1
as(S'structure'
p282
g40
tp283
(lp284
I4
aI2
aI5
as(S'effectivly'
p285
g15
tp286
(lp287
I1
aI2
aI1
as(S'merciful'
p288
g2
tp289
(lp290
I1
aI1
aI2
as(S'open'
p291
g2
tp292
(lp293
I1
aI13
aI6
as(S'overworked'
p294
g2
tp295
(lp296
I1
aI1
aI2
as(S'minimum'
p297
g2
tp298
(lp299
I1
aI1
aI7
as(S'third'
p300
g2
tp301
(lp302
I1
aI1
aI4
as(S'enthusiastic'
p303
g2
tp304
(lp305
I1
aI4
aI2
as(S'Overly'
p306
g15
tp307
(lp308
I1
aI1
aI3
as(S'cutting-edge'
p309
g2
tp310
(lp311
I1
aI5
aI1
as(S'local'
p312
g2
tp313
(lp314
I3
aI9
aI14
as(S'hard'
p315
g2
tp316
(lp317
I3
aI9
aI7
as(S'minor'
p318
g2
tp319
(lp320
I2
aI1
aI2
as(S'past'
p321
g2
tp322
(lp323
I1
aI5
aI4
as(S'educational'
p324
g2
tp325
(lp326
I4
aI5
aI2
as(S'sensitive'
p327
g2
tp328
(lp329
I1
aI1
aI3
as(S')'
p330
g40
tp331
(lp332
I1
aI5
aI8
as(S'work'
p333
g40
tp334
(lp335
I6
aI7
aI15
as(S'quick-turnaround'
p336
g2
tp337
(lp338
I1
aI2
aI1
as(S'-Amazing'
p339
g2
tp340
(lp341
I1
aI2
aI1
as(S'value'
p342
g40
tp343
(lp344
I2
aI1
aI1
as(S'visible'
p345
g2
tp346
(lp347
I1
aI1
aI4
as(S'Ineffective'
p348
g2
tp349
(lp350
I1
aI1
aI2
as(S'transparency'
p351
g40
tp352
(lp353
I2
aI1
aI2
as(S'Increased'
p354
g2
tp355
(lp356
I1
aI1
aI2
as(S'equal'
p357
g2
tp358
(lp359
I1
aI4
aI3
as(S'own'
p360
g2
tp361
(lp362
I5
aI30
aI34
as(S'services'
p363
g74
tp364
(lp365
I3
aI3
aI2
as(S'replaceable'
p366
g2
tp367
(lp368
I1
aI1
aI2
as(S'scale'
p369
g40
tp370
(lp371
I2
aI1
aI1
as(S'incredible'
p372
g2
tp373
(lp374
I4
aI7
aI1
as(S'skill-set'
p375
g2
tp376
(lp377
I2
aI1
aI1
as(S'try'
p378
g40
tp379
(lp380
I1
aI2
aI1
as(S'Truly'
p381
g15
tp382
(lp383
I4
aI1
aI1
as(S'reviews'
p384
g40
tp385
(lp386
I2
aI1
aI1
as(S'informal'
p387
g2
tp388
(lp389
I1
aI4
aI1
as(S'Friendly'
p390
g15
tp391
(lp392
I1
aI2
aI1
as(S'issues'
p393
g74
tp394
(lp395
I4
aI3
aI4
as(S'TIght/small'
p396
g2
tp397
(lp398
I1
aI1
aI3
as(S'teams'
p399
g74
tp400
(lp401
I1
aI1
aI4
as(S'relationship'
p402
g40
tp403
(lp404
I1
aI1
aI2
as(S'phenomenal'
p405
g2
tp406
(lp407
I2
aI1
aI1
as(S'company-wide'
p408
g2
tp409
(lp410
I1
aI2
aI1
as(S'unusual'
p411
g2
tp412
(lp413
I1
aI1
aI2
as(S'Dynamic'
p414
g2
tp415
(lp416
I1
aI3
aI1
as(S'hollow'
p417
g2
tp418
(lp419
I1
aI1
aI2
as(S'book'
p420
g40
tp421
(lp422
I2
aI1
aI1
as(S'historical'
p423
g2
tp424
(lp425
I1
aI1
aI2
as(S'schedules'
p426
g74
tp427
(lp428
I2
aI1
aI1
as(S'all-too'
p429
g2
tp430
(lp431
I1
aI1
aI3
as(S'wold'
p432
g40
tp433
(lp434
I2
aI1
aI1
as(S'known'
p435
g2
tp436
(lp437
I1
aI2
aI1
as(S'guilt-free'
p438
g2
tp439
(lp440
I1
aI1
aI2
as(S'Self-imposed'
p441
g2
tp442
(lp443
I1
aI1
aI2
as(S'unambitious'
p444
g2
tp445
(lp446
I1
aI1
aI2
as(S'advanced-tech'
p447
g2
tp448
(lp449
I1
aI1
aI2
as(S'former'
p450
g2
tp451
(lp452
I1
aI2
aI4
as(S'glamorous'
p453
g2
tp454
(lp455
I1
aI1
aI2
as(S'overwhelming/frustrating'
p456
g2
tp457
(lp458
I1
aI1
aI2
as(S'goods'
p459
g74
tp460
(lp461
I1
aI1
aI2
as(S'Invaluable'
p462
g2
tp463
(lp464
I1
aI2
aI1
as(S'Overall'
p465
g2
tp466
(lp467
I8
aI9
aI2
as(S'kaizen'
p468
g40
tp469
(lp470
I2
aI1
aI1
as(S'rigid'
p471
g2
tp472
(lp473
I2
aI1
aI1
as(S'reputation'
p474
g40
tp475
(lp476
I1
aI2
aI2
as(S'deeply'
p477
g15
tp478
(lp479
I1
aI1
aI3
as(S'solely'
p480
g15
tp481
(lp482
I1
aI1
aI2
as(S'risky'
p483
g2
tp484
(lp485
I1
aI1
aI2
as(S'Partner/MD'
p486
g2
tp487
(lp488
I1
aI4
aI1
as(S'Career'
p489
g40
tp490
(lp491
I2
aI1
aI1
as(S'exceptional'
p492
g2
tp493
(lp494
I3
aI5
aI1
as(S'professionally'
p495
g15
tp496
(lp497
I2
aI3
aI1
as(S'sides'
p498
g74
tp499
(lp500
I1
aI1
aI2
as(S'group'
p501
g40
tp502
(lp503
I4
aI2
aI4
as(S'Short'
p504
g2
tp505
(lp506
I1
aI2
aI2
as(S'unqualified'
p507
g2
tp508
(lp509
I1
aI1
aI2
as(S'Typically'
p510
g15
tp511
(lp512
I1
aI2
aI1
as(S'silo-ed'
p513
g2
tp514
(lp515
I1
aI1
aI2
as(S'genuinely'
p516
g15
tp517
(lp518
I1
aI6
aI1
as(S'financially'
p519
g15
tp520
(lp521
I1
aI2
aI1
as(S'budgetary'
p522
g2
tp523
(lp524
I1
aI1
aI2
as(S'-Very'
p525
g2
tp526
(lp527
I1
aI2
aI3
as(S'here'
p528
g15
tp529
(lp530
I9
aI1
aI2
as(S'fiscal'
p531
g2
tp532
(lp533
I1
aI1
aI2
as(S'undesirable'
p534
g2
tp535
(lp536
I1
aI1
aI2
as(S'optic'
p537
g2
tp538
(lp539
I1
aI2
aI1
as(S'weeks'
p540
g74
tp541
(lp542
I1
aI1
aI2
as(S'officer'
p543
g40
tp544
(lp545
I2
aI1
aI1
as(S'sub-par'
p546
g2
tp547
(lp548
I1
aI1
aI2
as(S'Direct'
p549
g2
tp550
(lp551
I1
aI2
aI1
as(S'namely'
p552
g15
tp553
(lp554
I1
aI2
aI1
as(S'basis'
p555
g40
tp556
(lp557
I1
aI1
aI2
as(S'Rigorous'
p558
g2
tp559
(lp560
I1
aI4
aI1
as(S'bottom'
p561
g2
tp562
(lp563
I1
aI1
aI3
as(S'Professional'
p564
g2
tp565
(lp566
I3
aI2
aI1
as(S'horrible'
p567
g2
tp568
(lp569
I4
aI1
aI3
as(S'logistics'
p570
g74
tp571
(lp572
I2
aI1
aI1
as(S'practices'
p573
g74
tp574
(lp575
I2
aI1
aI3
as(S'-Ignorant/impatient/rude'
p576
g2
tp577
(lp578
I1
aI1
aI3
as(S'rich'
p579
g2
tp580
(lp581
I1
aI2
aI1
as(S'almost'
p582
g15
tp583
(lp584
I1
aI1
aI3
as(S'c-suite'
p585
g2
tp586
(lp587
I1
aI4
aI1
as(S'overall'
p588
g40
tp589
(lp590
I2
aI1
aI1
as(S'second'
p591
g2
tp592
(lp593
I3
aI2
aI4
as(S'uncapped'
p594
g2
tp595
(lp596
I1
aI1
aI2
as(S'impressive'
p597
g2
tp598
(lp599
I1
aI1
aI2
as(S'opposite'
p600
g2
tp601
(lp602
I1
aI1
aI2
as(S'qualitative'
p603
g2
tp604
(lp605
I1
aI1
aI2
as(S'chal'
p606
g2
tp607
(lp608
I2
aI1
aI1
as(S'due'
p609
g2
tp610
(lp611
I1
aI1
aI2
as(S'chiefs'
p612
g74
tp613
(lp614
I2
aI1
aI1
as(S'Kids'
p615
g74
tp616
(lp617
I2
aI1
aI1
as(S'fiercely'
p618
g15
tp619
(lp620
I1
aI1
aI2
as(S'Incomparable'
p621
g2
tp622
(lp623
I1
aI2
aI1
as(S'Variable'
p624
g2
tp625
(lp626
I1
aI2
aI1
as(S'innovative'
p627
g2
tp628
(lp629
I2
aI13
aI7
as(S'possible'
p630
g2
tp631
(lp632
I1
aI3
aI3
as(S'permanents'
p633
g74
tp634
(lp635
I1
aI1
aI2
as(S'resume'
p636
g40
tp637
(lp638
I3
aI1
aI1
as(S'bio-tech'
p639
g2
tp640
(lp641
I1
aI2
aI1
as(S'sales/profit'
p642
g2
tp643
(lp644
I1
aI1
aI2
as(S'brands'
p645
g74
tp646
(lp647
I2
aI1
aI2
as(S'motivational'
p648
g2
tp649
(lp650
I1
aI2
aI1
as(S"'re"
p651
g2
tp652
(lp653
I1
aI2
aI1
as(S'blood'
p654
g40
tp655
(lp656
I1
aI1
aI2
as(S'carefully'
p657
g15
tp658
(lp659
I1
aI2
aI2
as(S'paltry'
p660
g40
tp661
(lp662
I2
aI1
aI1
as(S'friends'
p663
g74
tp664
(lp665
I2
aI1
aI2
as(S'undergraduate'
p666
g2
tp667
(lp668
I1
aI2
aI1
as(S'week'
p669
g40
tp670
(lp671
I1
aI2
aI4
as(S'lasting'
p672
g2
tp673
(lp674
I1
aI1
aI2
as(S'Little'
p675
g2
tp676
(lp677
I1
aI1
aI2
as(S'desk'
p678
g40
tp679
(lp680
I1
aI1
aI2
as(S'careful'
p681
g2
tp682
(lp683
I2
aI1
aI1
as(S'competitiveness'
p684
g40
tp685
(lp686
I1
aI1
aI3
as(S'added'
p687
g2
tp688
(lp689
I1
aI2
aI1
as(S'Reasonable'
p690
g2
tp691
(lp692
I2
aI4
aI1
as(S'bland'
p693
g40
tp694
(lp695
I1
aI1
aI2
as(S'stable'
p696
g2
tp697
(lp698
I5
aI9
aI2
as(S'decent'
p699
g2
tp700
(lp701
I2
aI2
aI2
as(S'administrative'
p702
g2
tp703
(lp704
I2
aI1
aI7
as(S'things'
p705
g74
tp706
(lp707
I1
aI3
aI1
as(S'reputational'
p708
g2
tp709
(lp710
I2
aI1
aI1
as(S'reality'
p711
g40
tp712
(lp713
I1
aI2
aI1
as(S'Little'
p714
g15
tp715
(lp716
I1
aI1
aI4
as(S'team-based'
p717
g2
tp718
(lp719
I1
aI2
aI1
as(S'manual'
p720
g2
tp721
(lp722
I1
aI1
aI2
as(S'market'
p723
g40
tp724
(lp725
I4
aI1
aI5
as(S'detailed'
p726
g2
tp727
(lp728
I1
aI2
aI1
as(S'so-called'
p729
g2
tp730
(lp731
I1
aI1
aI2
as(S'delivery'
p732
g40
tp733
(lp734
I1
aI1
aI2
as(S'Many'
p735
g2
tp736
(lp737
I6
aI21
aI17
as(S'-Poor'
p738
g2
tp739
(lp740
I1
aI1
aI3
as(S'Work/Life'
p741
g2
tp742
(lp743
I1
aI2
aI3
as(S"'experienced"
p744
g2
tp745
(lp746
I1
aI1
aI2
as(S'widely'
p747
g15
tp748
(lp749
I1
aI3
aI1
as(S'virtually'
p750
g15
tp751
(lp752
I1
aI1
aI2
as(S'la'
p753
g40
tp754
(lp755
I2
aI1
aI1
as(S'challenges'
p756
g74
tp757
(lp758
I5
aI1
aI1
as(S'high-tech'
p759
g2
tp760
(lp761
I1
aI2
aI1
as(S'cohesive'
p762
g2
tp763
(lp764
I1
aI1
aI2
as(S'recreational'
p765
g2
tp766
(lp767
I1
aI1
aI3
as(S'gas'
p768
g40
tp769
(lp770
I2
aI1
aI2
as(S'typical'
p771
g2
tp772
(lp773
I4
aI1
aI6
as(S'easy-going'
p774
g2
tp775
(lp776
I2
aI1
aI1
as(S'slow'
p777
g2
tp778
(lp779
I2
aI4
aI26
as(S'less'
p780
g162
tp781
(lp782
I1
aI1
aI7
as(S'Hands-on'
p783
g2
tp784
(lp785
I1
aI2
aI1
as(S'global'
p786
g2
tp787
(lp788
I5
aI45
aI17
as(S'minimal'
p789
g2
tp790
(lp791
I2
aI3
aI6
as(S'37.5hr'
p792
g2
tp793
(lp794
I1
aI2
aI1
as(S'philosophy'
p795
g40
tp796
(lp797
I2
aI1
aI1
as(S'*Great'
p798
g2
tp799
(lp800
I1
aI3
aI1
as(S'absolutely'
p801
g15
tp802
(lp803
I3
aI2
aI4
as(S'metric'
p804
g2
tp805
(lp806
I1
aI1
aI2
as(S'work-personal'
p807
g2
tp808
(lp809
I1
aI1
aI2
as(S'workload'
p810
g40
tp811
(lp812
I1
aI1
aI2
as(S'comps'
p813
g74
tp814
(lp815
I2
aI1
aI1
as(S'firms'
p816
g74
tp817
(lp818
I2
aI1
aI7
as(S'mentality'
p819
g40
tp820
(lp821
I1
aI1
aI3
as(S'happy'
p822
g2
tp823
(lp824
I1
aI2
aI1
as(S'-Big'
p825
g2
tp826
(lp827
I1
aI3
aI1
as(S'politically'
p828
g15
tp829
(lp830
I1
aI1
aI2
as(S'Intelectually'
p831
g15
tp832
(lp833
I1
aI2
aI1
as(S'ok'
p834
g40
tp835
(lp836
I3
aI1
aI1
as(S'need-to-know'
p837
g2
tp838
(lp839
I1
aI1
aI2
as(S'Large'
p840
g2
tp841
(lp842
I6
aI18
aI21
as(S'redundant'
p843
g2
tp844
(lp845
I1
aI1
aI2
as(S'intellectually'
p846
g15
tp847
(lp848
I4
aI2
aI1
as(S'day-to-day'
p849
g2
tp850
(lp851
I1
aI1
aI4
as(S'rite'
p852
g2
tp853
(lp854
I1
aI1
aI2
as(S"'core"
p855
g2
tp856
(lp857
I2
aI1
aI1
as(S'self-serving'
p858
g2
tp859
(lp860
I1
aI1
aI2
as(S'unproductive'
p861
g2
tp862
(lp863
I1
aI1
aI3
as(S'problems'
p864
g74
tp865
(lp866
I1
aI2
aI2
as(S'overall'
p867
g2
tp868
(lp869
I8
aI7
aI12
as(S'differe'
p870
g2
tp871
(lp872
I2
aI1
aI1
as(S'work-life'
p873
g2
tp874
(lp875
I3
aI20
aI17
as(S'names'
p876
g74
tp877
(lp878
I2
aI1
aI1
as(S'conditions'
p879
g74
tp880
(lp881
I1
aI2
aI1
as(S'constantly'
p882
g15
tp883
(lp884
I2
aI10
aI17
as(S'e-commerce'
p885
g2
tp886
(lp887
I2
aI1
aI1
as(S'other'
p888
g2
tp889
(lp890
I5
aI98
aI122
as(S'Outstanding'
p891
g2
tp892
(lp893
I3
aI7
aI1
as(S'scary'
p894
g2
tp895
(lp896
I1
aI1
aI2
as(S'basically'
p897
g15
tp898
(lp899
I1
aI1
aI4
as(S'lifelong'
p900
g2
tp901
(lp902
I1
aI2
aI1
as(S'expectations'
p903
g74
tp904
(lp905
I5
aI1
aI2
as(S'quit'
p906
g40
tp907
(lp908
I1
aI1
aI2
as(S'doing'
p909
g40
tp910
(lp911
I2
aI1
aI1
as(S'lateral'
p912
g2
tp913
(lp914
I1
aI6
aI6
as(S'with..rare'
p915
g2
tp916
(lp917
I1
aI2
aI1
as(S'Second'
p918
g2
tp919
(lp920
I3
aI1
aI1
as(S'resource'
p921
g40
tp922
(lp923
I1
aI2
aI2
as(S'correctly'
p924
g15
tp925
(lp926
I1
aI2
aI2
as(S'utilization'
p927
g40
tp928
(lp929
I1
aI1
aI4
as(S'increadible'
p930
g2
tp931
(lp932
I1
aI2
aI1
as(S'fast-track'
p933
g2
tp934
(lp935
I1
aI1
aI2
as(S'complain'
p936
g40
tp937
(lp938
I2
aI1
aI1
as(S'available'
p939
g2
tp940
(lp941
I1
aI5
aI1
as(S'support'
p942
g40
tp943
(lp944
I2
aI1
aI2
as(S'Broad'
p945
g2
tp946
(lp947
I1
aI3
aI1
as(S'Administrative'
p948
g2
tp949
(lp950
I1
aI1
aI2
as(S'emphasis'
p951
g40
tp952
(lp953
I1
aI1
aI2
as(S'vendors'
p954
g74
tp955
(lp956
I1
aI1
aI2
as(S'regulatory'
p957
g2
tp958
(lp959
I1
aI1
aI2
as(S'recommendation'
p960
g40
tp961
(lp962
I1
aI1
aI2
as(S'Actually'
p963
g15
tp964
(lp965
I1
aI1
aI2
as(S'worse'
p966
g40
tp967
(lp968
I2
aI1
aI1
as(S'excel'
p969
g40
tp970
(lp971
I3
aI1
aI1
as(S'perfect'
p972
g40
tp973
(lp974
I2
aI1
aI2
as(S'wonderful'
p975
g2
tp976
(lp977
I6
aI13
aI4
as(S'especially'
p978
g15
tp979
(lp980
I1
aI5
aI10
as(S'mysterious'
p981
g2
tp982
(lp983
I1
aI1
aI2
as(S'national'
p984
g2
tp985
(lp986
I1
aI3
aI2
as(S'Best-performing'
p987
g2
tp988
(lp989
I1
aI1
aI2
as(S'Conservative'
p990
g2
tp991
(lp992
I2
aI1
aI5
as(S'assistance'
p993
g40
tp994
(lp995
I2
aI1
aI1
as(S'appreciation'
p996
g40
tp997
(lp998
I1
aI1
aI3
as(S'tx'
p999
g40
tp1000
(lp1001
I1
aI1
aI2
as(S'share'
p1002
g40
tp1003
(lp1004
I2
aI1
aI1
as(S'delivery,'
p1005
g40
tp1006
(lp1007
I1
aI1
aI2
as(S'late'
p1008
g2
tp1009
(lp1010
I1
aI2
aI8
as(S'uncompetitive'
p1011
g2
tp1012
(lp1013
I1
aI1
aI2
as(S'co-op'
p1014
g40
tp1015
(lp1016
I2
aI1
aI1
as(S'total'
p1017
g2
tp1018
(lp1019
I1
aI2
aI6
as(S'intellegent'
p1020
g2
tp1021
(lp1022
I1
aI2
aI1
as(S'mid-level'
p1023
g2
tp1024
(lp1025
I1
aI1
aI2
as(S'men'
p1026
g74
tp1027
(lp1028
I2
aI1
aI1
as(S'readily'
p1029
g15
tp1030
(lp1031
I1
aI2
aI1
as(S'rates'
p1032
g74
tp1033
(lp1034
I1
aI1
aI2
as(S'Reliable'
p1035
g2
tp1036
(lp1037
I1
aI2
aI1
as(S'door'
p1038
g40
tp1039
(lp1040
I2
aI1
aI1
as(S'just-in-time'
p1041
g2
tp1042
(lp1043
I1
aI2
aI1
as(S'Interesting'
p1044
g2
tp1045
(lp1046
I1
aI4
aI1
as(S'Sometimes'
p1047
g15
tp1048
(lp1049
I1
aI1
aI5
as(S'-Depressing'
p1050
g2
tp1051
(lp1052
I1
aI1
aI2
as(S'days/year'
p1053
g2
tp1054
(lp1055
I1
aI2
aI1
as(S'throat'
p1056
g2
tp1057
(lp1058
I1
aI1
aI2
as(S'suck-up'
p1059
g2
tp1060
(lp1061
I1
aI1
aI2
as(S'incredibly'
p1062
g15
tp1063
(lp1064
I2
aI3
aI2
as(S'stores'
p1065
g74
tp1066
(lp1067
I1
aI3
aI1
as(S'protection'
p1068
g40
tp1069
(lp1070
I2
aI1
aI1
as(S'cases'
p1071
g74
tp1072
(lp1073
I1
aI2
aI1
as(S'competition'
p1074
g40
tp1075
(lp1076
I1
aI1
aI3
as(S'competive'
p1077
g40
tp1078
(lp1079
I1
aI1
aI2
as(S'Globally'
p1080
g15
tp1081
(lp1082
I1
aI2
aI1
as(S'LITTLE'
p1083
g2
tp1084
(lp1085
I1
aI1
aI2
as(S'critical'
p1086
g2
tp1087
(lp1088
I1
aI3
aI7
as(S'ergonomic'
p1089
g2
tp1090
(lp1091
I1
aI1
aI3
as(S'*Better'
p1092
g2
tp1093
(lp1094
I1
aI2
aI1
as(S'update'
p1095
g2
tp1096
(lp1097
I1
aI1
aI3
as(S'the'
p1098
g2
tp1099
(lp1100
I1
aI1
aI2
as(S'automotive'
p1101
g2
tp1102
(lp1103
I2
aI5
aI2
as(S'advanced'
p1104
g2
tp1105
(lp1106
I1
aI2
aI2
as(S'difficult'
p1107
g2
tp1108
(lp1109
I4
aI3
aI11
as(S'Vertical'
p1110
g2
tp1111
(lp1112
I1
aI1
aI3
as(S'simply'
p1113
g15
tp1114
(lp1115
I1
aI1
aI2
as(S'negatively'
p1116
g15
tp1117
(lp1118
I1
aI1
aI2
as(S'Recent'
p1119
g2
tp1120
(lp1121
I1
aI2
aI3
as(S'transistion'
p1122
g40
tp1123
(lp1124
I2
aI1
aI1
as(S'last'
p1125
g2
tp1126
(lp1127
I2
aI4
aI8
as(S'supportive/organized'
p1128
g2
tp1129
(lp1130
I1
aI2
aI1
as(S'ship'
p1131
g40
tp1132
(lp1133
I4
aI1
aI1
as(S'Discounts'
p1134
g74
tp1135
(lp1136
I1
aI2
aI1
as(S'Pretty'
p1137
g15
tp1138
(lp1139
I6
aI2
aI1
as(S'importnat'
p1140
g2
tp1141
(lp1142
I1
aI2
aI1
as(S'business/department'
p1143
g2
tp1144
(lp1145
I1
aI1
aI3
as(S'white'
p1146
g2
tp1147
(lp1148
I1
aI1
aI4
as(S'normally'
p1149
g15
tp1150
(lp1151
I1
aI1
aI2
as(S'deadline'
p1152
g40
tp1153
(lp1154
I1
aI1
aI2
as(S'Northeast'
p1155
g40
tp1156
(lp1157
I1
aI1
aI2
as(S'people'
p1158
g74
tp1159
(lp1160
I33
aI7
aI8
as(S'effo'
p1161
g40
tp1162
(lp1163
I2
aI1
aI1
as(S'only'
p1164
g2
tp1165
(lp1166
I2
aI2
aI7
as(S'new'
p1167
g2
tp1168
(lp1169
I11
aI73
aI81
as(S'periods'
p1170
g74
tp1171
(lp1172
I1
aI1
aI3
as(S'drawbacks'
p1173
g74
tp1174
(lp1175
I2
aI1
aI1
as(S'Prestigious'
p1176
g2
tp1177
(lp1178
I1
aI2
aI1
as(S'Long-tenured'
p1179
g2
tp1180
(lp1181
I1
aI2
aI1
as(S'yearly'
p1182
g2
tp1183
(lp1184
I1
aI2
aI3
as(S'monoxides'
p1185
g74
tp1186
(lp1187
I1
aI1
aI2
as(S'evolution'
p1188
g40
tp1189
(lp1190
I2
aI1
aI1
as(S'firm-wide'
p1191
g2
tp1192
(lp1193
I1
aI3
aI2
as(S'sites'
p1194
g74
tp1195
(lp1196
I1
aI1
aI2
as(S'product'
p1197
g40
tp1198
(lp1199
I1
aI3
aI1
as(S'Maslovian'
p1200
g2
tp1201
(lp1202
I1
aI2
aI1
as(S'staying'
p1203
g40
tp1204
(lp1205
I2
aI1
aI1
as(S'right'
p1206
g2
tp1207
(lp1208
I1
aI2
aI1
as(S'measures'
p1209
g74
tp1210
(lp1211
I1
aI1
aI2
as(S'regional'
p1212
g2
tp1213
(lp1214
I1
aI1
aI2
as(S'popular'
p1215
g2
tp1216
(lp1217
I1
aI2
aI1
as(S'ever-increasing'
p1218
g2
tp1219
(lp1220
I1
aI1
aI2
as(S'Clear'
p1221
g2
tp1222
(lp1223
I1
aI4
aI1
as(S'change'
p1224
g40
tp1225
(lp1226
I2
aI2
aI3
as(S'developmental'
p1227
g2
tp1228
(lp1229
I1
aI2
aI2
as(S'teaches'
p1230
g74
tp1231
(lp1232
I1
aI2
aI1
as(S'joiner'
p1233
g40
tp1234
(lp1235
I2
aI1
aI1
as(S'finally'
p1236
g15
tp1237
(lp1238
I3
aI3
aI1
as(S'sometimes'
p1239
g15
tp1240
(lp1241
I2
aI3
aI45
as(S'dark'
p1242
g2
tp1243
(lp1244
I1
aI1
aI2
as(S'partly'
p1245
g15
tp1246
(lp1247
I1
aI1
aI3
as(S'*Extremely'
p1248
g15
tp1249
(lp1250
I1
aI2
aI1
as(S'Incentive'
p1251
g2
tp1252
(lp1253
I1
aI1
aI3
as(S'impossible'
p1254
g2
tp1255
(lp1256
I1
aI2
aI3
as(S'impersonal'
p1257
g2
tp1258
(lp1259
I1
aI2
aI1
as(S'events'
p1260
g74
tp1261
(lp1262
I1
aI4
aI2
as(S'Managers'
p1263
g74
tp1264
(lp1265
I2
aI1
aI1
as(S'sustainability'
p1266
g40
tp1267
(lp1268
I1
aI2
aI1
as(S'action'
p1269
g40
tp1270
(lp1271
I1
aI1
aI3
as(S'current'
p1272
g2
tp1273
(lp1274
I2
aI7
aI12
as(S'supervisiors'
p1275
g74
tp1276
(lp1277
I2
aI1
aI1
as(S'city'
p1278
g40
tp1279
(lp1280
I1
aI1
aI2
as(S'-Engaged'
p1281
g2
tp1282
(lp1283
I1
aI2
aI1
as(S'no-call'
p1284
g2
tp1285
(lp1286
I1
aI1
aI2
as(S'work/ife'
p1287
g2
tp1288
(lp1289
I1
aI2
aI1
as(S'desirable'
p1290
g2
tp1291
(lp1292
I1
aI2
aI4
as(S'Only'
p1293
g15
tp1294
(lp1295
I1
aI1
aI2
as(S'arrangements'
p1296
g74
tp1297
(lp1298
I1
aI2
aI1
as(S'collaboration'
p1299
g40
tp1300
(lp1301
I2
aI1
aI1
as(S'low-skilled'
p1302
g2
tp1303
(lp1304
I1
aI1
aI2
as(S'egotistical'
p1305
g2
tp1306
(lp1307
I1
aI1
aI2
as(S'comparable'
p1308
g2
tp1309
(lp1310
I1
aI2
aI3
as(S'few'
p1311
g2
tp1312
(lp1313
I6
aI20
aI39
as(S'frequesntly'
p1314
g15
tp1315
(lp1316
I1
aI1
aI2
as(S'pervasive'
p1317
g2
tp1318
(lp1319
I1
aI1
aI2
as(S'sabotage-prone'
p1320
g2
tp1321
(lp1322
I1
aI2
aI1
as(S'slightly'
p1323
g15
tp1324
(lp1325
I2
aI1
aI1
as(S'choice'
p1326
g40
tp1327
(lp1328
I1
aI1
aI2
as(S'skilled'
p1329
g2
tp1330
(lp1331
I1
aI1
aI2
as(S'upper-middle'
p1332
g2
tp1333
(lp1334
I1
aI1
aI2
as(S'individuals'
p1335
g74
tp1336
(lp1337
I2
aI1
aI1
as(S'dilettantes'
p1338
g74
tp1339
(lp1340
I2
aI1
aI1
as(S'negative'
p1341
g2
tp1342
(lp1343
I2
aI1
aI17
as(S'salary'
p1344
g2
tp1345
(lp1346
I1
aI2
aI2
as(S'collegiate'
p1347
g2
tp1348
(lp1349
I1
aI2
aI1
as(S'mundane'
p1350
g2
tp1351
(lp1352
I3
aI1
aI1
as(S'end'
p1353
g40
tp1354
(lp1355
I1
aI1
aI3
as(S'Inconsistencies'
p1356
g74
tp1357
(lp1358
I2
aI1
aI1
as(S'currently'
p1359
g15
tp1360
(lp1361
I2
aI1
aI1
as(S'well-known'
p1362
g2
tp1363
(lp1364
I1
aI2
aI1
as(S'much'
p1365
g2
tp1366
(lp1367
I9
aI11
aI77
as(S'squarely'
p1368
g15
tp1369
(lp1370
I1
aI3
aI1
as(S'favorite'
p1371
g2
tp1372
(lp1373
I1
aI3
aI1
as(S'Supportive'
p1374
g2
tp1375
(lp1376
I2
aI2
aI1
as(S'asap'
p1377
g40
tp1378
(lp1379
I1
aI1
aI2
as(S'challenge'
p1380
g40
tp1381
(lp1382
I3
aI1
aI3
as(S'successfully'
p1383
g15
tp1384
(lp1385
I1
aI1
aI2
as(S'accenture'
p1386
g40
tp1387
(lp1388
I2
aI1
aI1
as(S'harsh'
p1389
g2
tp1390
(lp1391
I1
aI1
aI3
as(S'British'
p1392
g2
tp1393
(lp1394
I1
aI1
aI2
as(S'entrepreneurial'
p1395
g2
tp1396
(lp1397
I1
aI3
aI3
as(S'predictive'
p1398
g2
tp1399
(lp1400
I1
aI2
aI1
as(S'processes'
p1401
g74
tp1402
(lp1403
I2
aI1
aI5
as(S'boa'
p1404
g40
tp1405
(lp1406
I3
aI1
aI1
as(S'festivals'
p1407
g74
tp1408
(lp1409
I1
aI2
aI1
as(S'impactful'
p1410
g2
tp1411
(lp1412
I2
aI1
aI1
as(S'impression'
p1413
g40
tp1414
(lp1415
I3
aI1
aI1
as(S'larg'
p1416
g40
tp1417
(lp1418
I2
aI1
aI1
as(S'strengths'
p1419
g74
tp1420
(lp1421
I1
aI1
aI2
as(S'hopeful'
p1422
g2
tp1423
(lp1424
I2
aI1
aI1
as(S'culture'
p1425
g40
tp1426
(lp1427
I8
aI3
aI6
as(S'new-hire'
p1428
g2
tp1429
(lp1430
I1
aI2
aI1
as(S'review'
p1431
g40
tp1432
(lp1433
I5
aI1
aI1
as(S'movemoent'
p1434
g2
tp1435
(lp1436
I2
aI1
aI1
as(S'Consulting'
p1437
g40
tp1438
(lp1439
I2
aI1
aI1
as(S'questionaire'
p1440
g40
tp1441
(lp1442
I2
aI1
aI1
as(S'intellectual'
p1443
g2
tp1444
(lp1445
I1
aI6
aI4
as(S'pace'
p1446
g40
tp1447
(lp1448
I1
aI2
aI1
as(S'salary'
p1449
g40
tp1450
(lp1451
I5
aI2
aI5
as(S'positive'
p1452
g2
tp1453
(lp1454
I5
aI11
aI10
as(S'soon-to-be-completed'
p1455
g2
tp1456
(lp1457
I1
aI2
aI1
as(S'not'
p1458
g15
tp1459
(lp1460
I30
aI64
aI382
as(S'supervisors'
p1461
g74
tp1462
(lp1463
I1
aI1
aI2
as(S'Part-time'
p1464
g2
tp1465
(lp1466
I1
aI1
aI3
as(S'comment'
p1467
g40
tp1468
(lp1469
I1
aI1
aI2
as(S'insignificant'
p1470
g2
tp1471
(lp1472
I1
aI1
aI2
as(S'procedural-strict'
p1473
g2
tp1474
(lp1475
I1
aI1
aI2
as(S'relationships'
p1476
g74
tp1477
(lp1478
I1
aI1
aI2
as(S'Questionable'
p1479
g2
tp1480
(lp1481
I1
aI1
aI2
as(S'chase'
p1482
g40
tp1483
(lp1484
I2
aI1
aI1
as(S'mile'
p1485
g40
tp1486
(lp1487
I1
aI1
aI2
as(S'-Exciting'
p1488
g2
tp1489
(lp1490
I1
aI2
aI1
as(S'unstoppable'
p1491
g2
tp1492
(lp1493
I2
aI1
aI1
as(S'central'
p1494
g2
tp1495
(lp1496
I1
aI1
aI2
as(S'terribly'
p1497
g15
tp1498
(lp1499
I1
aI1
aI2
as(S'money'
p1500
g40
tp1501
(lp1502
I1
aI2
aI3
as(S'presentation/public'
p1503
g2
tp1504
(lp1505
I1
aI2
aI1
as(S'starter'
p1506
g40
tp1507
(lp1508
I2
aI1
aI1
as(S'stuff'
p1509
g40
tp1510
(lp1511
I2
aI1
aI2
as(S'Billable'
p1512
g2
tp1513
(lp1514
I1
aI2
aI2
as(S'rewarding'
p1515
g40
tp1516
(lp1517
I2
aI1
aI1
as(S'high.a'
p1518
g2
tp1519
(lp1520
I1
aI2
aI1
as(S'mid-career'
p1521
g2
tp1522
(lp1523
I1
aI1
aI2
as(S'atmosphere.Good'
p1524
g2
tp1525
(lp1526
I1
aI2
aI1
as(S'p/week'
p1527
g2
tp1528
(lp1529
I2
aI1
aI1
as(S'related'
p1530
g2
tp1531
(lp1532
I1
aI3
aI1
as(S'newly'
p1533
g15
tp1534
(lp1535
I1
aI1
aI2
as(S'intelligent'
p1536
g2
tp1537
(lp1538
I1
aI2
aI1
as(S'then'
p1539
g15
tp1540
(lp1541
I2
aI2
aI18
as(S'manager'
p1542
g40
tp1543
(lp1544
I4
aI1
aI3
as(S'world-class'
p1545
g40
tp1546
(lp1547
I1
aI2
aI1
as(S'organizations'
p1548
g74
tp1549
(lp1550
I1
aI1
aI3
as(S'strategic'
p1551
g2
tp1552
(lp1553
I4
aI8
aI7
as(S'term'
p1554
g40
tp1555
(lp1556
I2
aI1
aI1
as(S'banks'
p1557
g74
tp1558
(lp1559
I2
aI1
aI2
as(S'sorts'
p1560
g74
tp1561
(lp1562
I2
aI1
aI1
as(S'Small'
p1563
g2
tp1564
(lp1565
I1
aI6
aI3
as(S'operational'
p1566
g2
tp1567
(lp1568
I1
aI4
aI3
as(S'bad'
p1569
g2
tp1570
(lp1571
I19
aI12
aI48
as(S'Unpredictable'
p1572
g2
tp1573
(lp1574
I1
aI1
aI2
as(S'qui'
p1575
g40
tp1576
(lp1577
I2
aI1
aI1
as(S'floor'
p1578
g40
tp1579
(lp1580
I2
aI1
aI1
as(S'mediocre'
p1581
g2
tp1582
(lp1583
I2
aI2
aI2
as(S'secondary'
p1584
g2
tp1585
(lp1586
I2
aI2
aI1
as(S'politics'
p1587
g74
tp1588
(lp1589
I8
aI1
aI8
as(S'-Really'
p1590
g15
tp1591
(lp1592
I1
aI2
aI1
as(S'irrational'
p1593
g2
tp1594
(lp1595
I1
aI2
aI1
as(S'equitable'
p1596
g2
tp1597
(lp1598
I1
aI2
aI1
as(S'Work-life'
p1599
g2
tp1600
(lp1601
I2
aI1
aI2
as(S'balance'
p1602
g40
tp1603
(lp1604
I11
aI3
aI13
as(S'efficient'
p1605
g2
tp1606
(lp1607
I1
aI1
aI2
as(S'religious'
p1608
g2
tp1609
(lp1610
I1
aI3
aI1
as(S'boat'
p1611
g2
tp1612
(lp1613
I1
aI1
aI2
as(S'hostile'
p1614
g2
tp1615
(lp1616
I1
aI1
aI2
as(S'multi-partnered'
p1617
g2
tp1618
(lp1619
I1
aI2
aI1
as(S'technology'
p1620
g40
tp1621
(lp1622
I2
aI2
aI3
as(S'competitive'
p1623
g2
tp1624
(lp1625
I4
aI29
aI14
as(S'balance,'
p1626
g40
tp1627
(lp1628
I1
aI1
aI2
as(S'horizontally'
p1629
g15
tp1630
(lp1631
I1
aI2
aI1
as(S'rose-colored'
p1632
g2
tp1633
(lp1634
I1
aI1
aI2
as(S'significant'
p1635
g2
tp1636
(lp1637
I1
aI11
aI12
as(S'Massive'
p1638
g2
tp1639
(lp1640
I1
aI1
aI2
as(S'generous'
p1641
g2
tp1642
(lp1643
I4
aI7
aI1
as(S'bureaucracy'
p1644
g40
tp1645
(lp1646
I7
aI1
aI1
as(S'dead'
p1647
g2
tp1648
(lp1649
I1
aI1
aI5
as(S'geniuses'
p1650
g74
tp1651
(lp1652
I2
aI1
aI1
as(S'extra-curricular'
p1653
g2
tp1654
(lp1655
I1
aI1
aI2
as(S'forever'
p1656
g40
tp1657
(lp1658
I2
aI1
aI1
as(S'Jan-Mar'
p1659
g2
tp1660
(lp1661
I1
aI1
aI2
as(S'ranks'
p1662
g74
tp1663
(lp1664
I1
aI2
aI2
as(S'buddy'
p1665
g2
tp1666
(lp1667
I1
aI1
aI2
as(S'rigorously'
p1668
g15
tp1669
(lp1670
I1
aI1
aI2
as(S'frequently'
p1671
g15
tp1672
(lp1673
I1
aI1
aI5
as(S'part-time'
p1674
g2
tp1675
(lp1676
I2
aI3
aI3
as(S'Huge'
p1677
g2
tp1678
(lp1679
I1
aI4
aI5
as(S'above'
p1680
g15
tp1681
(lp1682
I1
aI3
aI2
as(S'perhaps'
p1683
g15
tp1684
(lp1685
I1
aI1
aI2
as(S'steep'
p1686
g2
tp1687
(lp1688
I1
aI3
aI2
as(S'tremendously'
p1689
g15
tp1690
(lp1691
I1
aI2
aI1
as(S'Typical'
p1692
g2
tp1693
(lp1694
I2
aI1
aI2
as(S'Dead-end'
p1695
g2
tp1696
(lp1697
I1
aI1
aI3
as(S'Tough'
p1698
g2
tp1699
(lp1700
I1
aI1
aI2
as(S'operations'
p1701
g74
tp1702
(lp1703
I1
aI1
aI4
as(S'B+D'
p1704
g2
tp1705
(lp1706
I1
aI1
aI2
as(S'bright'
p1707
g2
tp1708
(lp1709
I2
aI8
aI1
as(S'reorganizations'
p1710
g74
tp1711
(lp1712
I2
aI1
aI1
as(S'attractive'
p1713
g2
tp1714
(lp1715
I1
aI3
aI2
as(S'relatively'
p1716
g15
tp1717
(lp1718
I2
aI8
aI4
as(S'a/c'
p1719
g2
tp1720
(lp1721
I1
aI1
aI2
as(S'occasionally'
p1722
g15
tp1723
(lp1724
I1
aI1
aI4
as(S'helpful'
p1725
g2
tp1726
(lp1727
I1
aI6
aI1
as(S'beurocratic'
p1728
g2
tp1729
(lp1730
I1
aI1
aI2
as(S'profesional'
p1731
g2
tp1732
(lp1733
I1
aI2
aI1
as(S'flat'
p1734
g2
tp1735
(lp1736
I2
aI3
aI1
as(S'good'
p1737
g2
tp1738
(lp1739
I143
aI405
aI84
as(S'very'
p1740
g2
tp1741
(lp1742
I2
aI3
aI3
as(S'roller-coaster'
p1743
g2
tp1744
(lp1745
I2
aI1
aI1
as(S'Public'
p1746
g2
tp1747
(lp1748
I1
aI2
aI2
as(S'drain'
p1749
g40
tp1750
(lp1751
I1
aI1
aI2
as(S'season'
p1752
g40
tp1753
(lp1754
I1
aI1
aI5
as(S'seriously'
p1755
g15
tp1756
(lp1757
I1
aI2
aI1
as(S'regardless'
p1758
g40
tp1759
(lp1760
I2
aI1
aI1
as(S'knowledge'
p1761
g40
tp1762
(lp1763
I3
aI1
aI2
as(S'computers'
p1764
g74
tp1765
(lp1766
I1
aI1
aI2
as(S'jobs'
p1767
g74
tp1768
(lp1769
I3
aI3
aI1
as(S'engagements'
p1770
g74
tp1771
(lp1772
I1
aI1
aI2
as(S'-Fantastic'
p1773
g2
tp1774
(lp1775
I1
aI2
aI1
as(S'overtime'
p1776
g40
tp1777
(lp1778
I1
aI2
aI2
as(S'monthly'
p1779
g15
tp1780
(lp1781
I1
aI2
aI1
as(S'overseas'
p1782
g15
tp1783
(lp1784
I1
aI1
aI2
as(S'meritorious'
p1785
g2
tp1786
(lp1787
I1
aI1
aI2
as(S'transparent'
p1788
g2
tp1789
(lp1790
I1
aI1
aI2
as(S'vertical'
p1791
g2
tp1792
(lp1793
I1
aI5
aI3
as(S'team'
p1794
g40
tp1795
(lp1796
I4
aI2
aI1
as(S'slimmer'
p1797
g40
tp1798
(lp1799
I2
aI1
aI1
as(S'royal'
p1800
g2
tp1801
(lp1802
I1
aI1
aI2
as(S'big-company'
p1803
g2
tp1804
(lp1805
I1
aI1
aI2
as(S'phase-gated'
p1806
g2
tp1807
(lp1808
I1
aI1
aI2
as(S'site'
p1809
g2
tp1810
(lp1811
I1
aI3
aI1
as(S'even'
p1812
g15
tp1813
(lp1814
I2
aI6
aI13
as(S'diversity'
p1815
g40
tp1816
(lp1817
I1
aI1
aI2
as(S'animal'
p1818
g2
tp1819
(lp1820
I1
aI1
aI2
as(S'calls'
p1821
g74
tp1822
(lp1823
I1
aI1
aI2
as(S'effective'
p1824
g2
tp1825
(lp1826
I2
aI4
aI3
as(S'knowledgeable'
p1827
g2
tp1828
(lp1829
I2
aI3
aI1
as(S'perpetual'
p1830
g2
tp1831
(lp1832
I2
aI1
aI2
as(S'incremental'
p1833
g2
tp1834
(lp1835
I1
aI2
aI2
as(S'organizational'
p1836
g2
tp1837
(lp1838
I1
aI4
aI10
as(S'clear'
p1839
g2
tp1840
(lp1841
I4
aI7
aI12
as(S'shift'
p1842
g40
tp1843
(lp1844
I1
aI1
aI5
as(S'signifcant'
p1845
g2
tp1846
(lp1847
I1
aI2
aI1
as(S'promotion'
p1848
g40
tp1849
(lp1850
I3
aI1
aI4
as(S'matter'
p1851
g40
tp1852
(lp1853
I2
aI1
aI1
as(S'billable'
p1854
g2
tp1855
(lp1856
I1
aI2
aI3
as(S'globe'
p1857
g40
tp1858
(lp1859
I1
aI2
aI1
as(S'extremely'
p1860
g15
tp1861
(lp1862
I4
aI18
aI15
as(S'!'
p1863
g40
tp1864
(lp1865
I11
aI4
aI3
as(S'Technically'
p1866
g15
tp1867
(lp1868
I2
aI2
aI1
as(S'respective'
p1869
g2
tp1870
(lp1871
I1
aI2
aI1
as(S'programs'
p1872
g74
tp1873
(lp1874
I1
aI5
aI2
as(S'bit'
p1875
g40
tp1876
(lp1877
I2
aI1
aI5
as(S'earth'
p1878
g2
tp1879
(lp1880
I1
aI2
aI1
as(S'promotional'
p1881
g2
tp1882
(lp1883
I1
aI2
aI8
as(S'wrong'
p1884
g2
tp1885
(lp1886
I1
aI3
aI8
as(S'ambiguous'
p1887
g2
tp1888
(lp1889
I3
aI1
aI1
as(S'nearly'
p1890
g15
tp1891
(lp1892
I1
aI1
aI2
as(S'technical'
p1893
g2
tp1894
(lp1895
I4
aI23
aI13
as(S'orthodox'
p1896
g40
tp1897
(lp1898
I1
aI1
aI2
as(S'accounting'
p1899
g40
tp1900
(lp1901
I2
aI1
aI2
as(S'outdated'
p1902
g2
tp1903
(lp1904
I1
aI1
aI2
as(S'outside'
p1905
g2
tp1906
(lp1907
I1
aI3
aI3
as(S'prosper'
p1908
g40
tp1909
(lp1910
I2
aI1
aI1
as(S'tenuous'
p1911
g2
tp1912
(lp1913
I1
aI1
aI2
as(S'simple'
p1914
g2
tp1915
(lp1916
I1
aI1
aI5
as(S'expansion'
p1917
g40
tp1918
(lp1919
I1
aI1
aI2
as(S'-Flexible'
p1920
g2
tp1921
(lp1922
I1
aI3
aI1
as(S'tape'
p1923
g40
tp1924
(lp1925
I2
aI1
aI1
as(S'straightforward'
p1926
g2
tp1927
(lp1928
I1
aI1
aI2
as(S'operations/sourcing'
p1929
g2
tp1930
(lp1931
I1
aI1
aI2
as(S'companies'
p1932
g74
tp1933
(lp1934
I4
aI1
aI4
as(S'Adversarial'
p1935
g2
tp1936
(lp1937
I1
aI1
aI2
as(S'standard'
p1938
g2
tp1939
(lp1940
I2
aI3
aI4
as(S'differentiators'
p1941
g74
tp1942
(lp1943
I1
aI1
aI2
as(S'traditional'
p1944
g2
tp1945
(lp1946
I1
aI2
aI3
as(S'-Nice'
p1947
g2
tp1948
(lp1949
I1
aI2
aI1
as(S'receptive'
p1950
g2
tp1951
(lp1952
I1
aI2
aI1
as(S'notable'
p1953
g2
tp1954
(lp1955
I1
aI1
aI2
as(S'crime-filled'
p1956
g2
tp1957
(lp1958
I1
aI1
aI3
as(S'strongly'
p1959
g15
tp1960
(lp1961
I1
aI3
aI1
as(S'managers'
p1962
g74
tp1963
(lp1964
I5
aI1
aI2
as(S'slow-moving'
p1965
g2
tp1966
(lp1967
I1
aI1
aI2
as(S'sears'
p1968
g74
tp1969
(lp1970
I2
aI1
aI1
as(S'broad'
p1971
g2
tp1972
(lp1973
I2
aI5
aI3
as(S'executive'
p1974
g2
tp1975
(lp1976
I1
aI2
aI8
as(S'newly-minted'
p1977
g2
tp1978
(lp1979
I1
aI2
aI1
as(S'intern'
p1980
g40
tp1981
(lp1982
I5
aI1
aI1
as(S'-Fairly'
p1983
g15
tp1984
(lp1985
I1
aI1
aI2
as(S'departments'
p1986
g74
tp1987
(lp1988
I2
aI1
aI3
as(S'finished'
p1989
g2
tp1990
(lp1991
I1
aI2
aI1
as(S'raise'
p1992
g40
tp1993
(lp1994
I1
aI1
aI2
as(S'ful'
p1995
g2
tp1996
(lp1997
I1
aI1
aI3
as(S'diff'
p1998
g40
tp1999
(lp2000
I2
aI1
aI1
as(S'ridiculous'
p2001
g2
tp2002
(lp2003
I1
aI1
aI2
as(S'generally'
p2004
g15
tp2005
(lp2006
I1
aI12
aI9
as(S'perfect'
p2007
g2
tp2008
(lp2009
I2
aI3
aI1
as(S'talent'
p2010
g40
tp2011
(lp2012
I3
aI1
aI4
as(S'Annual'
p2013
g2
tp2014
(lp2015
I1
aI1
aI5
as(S'undertsandable'
p2016
g2
tp2017
(lp2018
I1
aI1
aI2
as(S'number'
p2019
g40
tp2020
(lp2021
I2
aI1
aI2
as(S'Work/life'
p2022
g2
tp2023
(lp2024
I1
aI5
aI8
as(S'daily'
p2025
g2
tp2026
(lp2027
I1
aI4
aI10
as(S'Too'
p2028
g15
tp2029
(lp2030
I4
aI1
aI31
as(S'generic'
p2031
g2
tp2032
(lp2033
I1
aI1
aI2
as(S'booo'
p2034
g15
tp2035
(lp2036
I1
aI1
aI2
as(S'self'
p2037
g40
tp2038
(lp2039
I1
aI2
aI1
as(S'days'
p2040
g74
tp2041
(lp2042
I2
aI1
aI5
as(S'-Much'
p2043
g2
tp2044
(lp2045
I1
aI2
aI1
as(S'-People'
p2046
g2
tp2047
(lp2048
I1
aI2
aI1
as(S'well'
p2049
g15
tp2050
(lp2051
I6
aI40
aI17
as(S'promotions'
p2052
g74
tp2053
(lp2054
I1
aI1
aI2
as(S'Even'
p2055
g15
tp2056
(lp2057
I1
aI1
aI2
as(S'audit/accounting'
p2058
g2
tp2059
(lp2060
I1
aI3
aI1
as(S'compartmentalized'
p2061
g2
tp2062
(lp2063
I1
aI1
aI3
as(S'interesting'
p2064
g2
tp2065
(lp2066
I6
aI47
aI2
as(S'pricewaterhousecoopers'
p2067
g74
tp2068
(lp2069
I2
aI1
aI1
as(S'Firm'
p2070
g40
tp2071
(lp2072
I1
aI1
aI2
as(S'complex'
p2073
g2
tp2074
(lp2075
I1
aI4
aI3
as(S'life-long'
p2076
g2
tp2077
(lp2078
I1
aI2
aI1
as(S'somewhat'
p2079
g15
tp2080
(lp2081
I1
aI2
aI5
as(S'ever'
p2082
g15
tp2083
(lp2084
I13
aI30
aI9
as(S'unavoidable'
p2085
g2
tp2086
(lp2087
I2
aI1
aI1
as(S't'
p2088
g40
tp2089
(lp2090
I3
aI1
aI1
as(S'springboard'
p2091
g40
tp2092
(lp2093
I2
aI1
aI1
as(S'mind'
p2094
g2
tp2095
(lp2096
I1
aI1
aI2
as(S'verbally'
p2097
g15
tp2098
(lp2099
I1
aI1
aI2
as(S'recent'
p2100
g2
tp2101
(lp2102
I2
aI5
aI10
as(S'Reputable'
p2103
g2
tp2104
(lp2105
I1
aI2
aI1
as(S'complete'
p2106
g2
tp2107
(lp2108
I1
aI3
aI4
as(S'Appliances'
p2109
g74
tp2110
(lp2111
I2
aI1
aI1
as(S'Headquarter-centric'
p2112
g2
tp2113
(lp2114
I1
aI1
aI3
as(S'basketball'
p2115
g2
tp2116
(lp2117
I1
aI2
aI1
as(S'distinct'
p2118
g2
tp2119
(lp2120
I1
aI2
aI1
as(S'long'
p2121
g2
tp2122
(lp2123
I7
aI19
aI87
as(S'annual'
p2124
g2
tp2125
(lp2126
I1
aI15
aI22
as(S'Casual'
p2127
g2
tp2128
(lp2129
I1
aI2
aI1
as(S'Past'
p2130
g2
tp2131
(lp2132
I1
aI1
aI2
as(S'company,'
p2133
g40
tp2134
(lp2135
I1
aI1
aI2
as(S'internship'
p2136
g40
tp2137
(lp2138
I4
aI1
aI1
as(S"'ole"
p2139
g2
tp2140
(lp2141
I1
aI1
aI2
as(S'deep'
p2142
g2
tp2143
(lp2144
I1
aI1
aI2
as(S'finance'
p2145
g40
tp2146
(lp2147
I1
aI2
aI1
as(S'fruition'
p2148
g40
tp2149
(lp2150
I1
aI1
aI2
as(S'impact'
p2151
g40
tp2152
(lp2153
I1
aI1
aI3
as(S'improvement'
p2154
g40
tp2155
(lp2156
I6
aI1
aI1
as(S'giant'
p2157
g2
tp2158
(lp2159
I2
aI1
aI1
as(S'Nothing'
p2160
g40
tp2161
(lp2162
I1
aI2
aI2
as(S'retail'
p2163
g2
tp2164
(lp2165
I7
aI11
aI24
as(S'stupifyingly'
p2166
g15
tp2167
(lp2168
I1
aI1
aI2
as(S'super-fast'
p2169
g2
tp2170
(lp2171
I1
aI1
aI2
as(S'Top-notch'
p2172
g2
tp2173
(lp2174
I1
aI2
aI1
as(S'economics'
p2175
g74
tp2176
(lp2177
I1
aI1
aI2
as(S'something'
p2178
g40
tp2179
(lp2180
I1
aI8
aI3
as(S'intensive'
p2181
g2
tp2182
(lp2183
I1
aI2
aI1
as(S'extra'
p2184
g2
tp2185
(lp2186
I1
aI7
aI7
as(S'Politics'
p2187
g74
tp2188
(lp2189
I2
aI1
aI1
as(S'upper'
p2190
g2
tp2191
(lp2192
I3
aI5
aI23
as(S'heaven'
p2193
g15
tp2194
(lp2195
I1
aI1
aI2
as(S'space'
p2196
g40
tp2197
(lp2198
I1
aI1
aI2
as(S'-Little'
p2199
g2
tp2200
(lp2201
I1
aI1
aI2
as(S'staff-aug'
p2202
g2
tp2203
(lp2204
I1
aI1
aI2
as(S'fun'
p2205
g2
tp2206
(lp2207
I2
aI1
aI1
as(S'equitqable'
p2208
g2
tp2209
(lp2210
I3
aI1
aI1
as(S'equivalent'
p2211
g2
tp2212
(lp2213
I1
aI1
aI2
as(S'house'
p2214
g40
tp2215
(lp2216
I1
aI1
aI2
as(S'stonewall'
p2217
g2
tp2218
(lp2219
I1
aI1
aI2
as(S'opportunities'
p2220
g74
tp2221
(lp2222
I14
aI9
aI5
as(S'intangible'
p2223
g2
tp2224
(lp2225
I1
aI2
aI1
as(S'success'
p2226
g40
tp2227
(lp2228
I1
aI2
aI1
as(S'COMPANY'
p2229
g40
tp2230
(lp2231
I2
aI1
aI1
as(S'world'
p2232
g40
tp2233
(lp2234
I4
aI1
aI2
as(S'-Some'
p2235
g2
tp2236
(lp2237
I1
aI1
aI2
as(S'bands'
p2238
g74
tp2239
(lp2240
I1
aI1
aI2
as(S'l'
p2241
g40
tp2242
(lp2243
I2
aI1
aI1
as(S'development'
p2244
g40
tp2245
(lp2246
I7
aI4
aI6
as(S'upward'
p2247
g2
tp2248
(lp2249
I2
aI1
aI7
as(S'satisfactory'
p2250
g2
tp2251
(lp2252
I1
aI2
aI1
as(S'ambitious'
p2253
g2
tp2254
(lp2255
I1
aI3
aI2
as(S'college'
p2256
g40
tp2257
(lp2258
I5
aI2
aI1
as(S'Other'
p2259
g2
tp2260
(lp2261
I1
aI2
aI3
as(S'bur'
p2262
g40
tp2263
(lp2264
I2
aI1
aI1
as(S'sure'
p2265
g2
tp2266
(lp2267
I1
aI1
aI3
as(S'irrationally'
p2268
g15
tp2269
(lp2270
I1
aI2
aI1
as(S'Technical'
p2271
g2
tp2272
(lp2273
I2
aI1
aI2
as(S'marketable'
p2274
g2
tp2275
(lp2276
I1
aI2
aI1
as(S'once'
p2277
g15
tp2278
(lp2279
I1
aI5
aI2
as(S'plus'
p2280
g40
tp2281
(lp2282
I1
aI1
aI2
as(S'learning'
p2283
g40
tp2284
(lp2285
I2
aI1
aI1
as(S'dis-functional'
p2286
g2
tp2287
(lp2288
I1
aI1
aI3
as(S'select'
p2289
g40
tp2290
(lp2291
I1
aI1
aI2
as(S'trim'
p2292
g2
tp2293
(lp2294
I1
aI1
aI2
as(S'ride'
p2295
g40
tp2296
(lp2297
I5
aI1
aI1
as(S'Decentralized'
p2298
g2
tp2299
(lp2300
I2
aI1
aI1
as(S'fundamental'
p2301
g2
tp2302
(lp2303
I1
aI2
aI1
as(S'senior'
p2304
g2
tp2305
(lp2306
I6
aI36
aI48
as(S'elite'
p2307
g2
tp2308
(lp2309
I1
aI2
aI1
as(S'occasional'
p2310
g2
tp2311
(lp2312
I1
aI3
aI2
as(S'Full-time'
p2313
g2
tp2314
(lp2315
I1
aI1
aI2
as(S'-Excellent'
p2316
g2
tp2317
(lp2318
I1
aI2
aI1
as(S'hierarchal'
p2319
g2
tp2320
(lp2321
I1
aI1
aI2
as(S'centers'
p2322
g74
tp2323
(lp2324
I1
aI1
aI2
as(S'necessarily'
p2325
g15
tp2326
(lp2327
I1
aI3
aI10
as(S'aggressive'
p2328
g2
tp2329
(lp2330
I1
aI1
aI4
as(S'double'
p2331
g2
tp2332
(lp2333
I1
aI2
aI2
as(S'-Faire'
p2334
g2
tp2335
(lp2336
I1
aI2
aI1
as(S'Non-revenue'
p2337
g2
tp2338
(lp2339
I1
aI1
aI2
as(S'willi'
p2340
g15
tp2341
(lp2342
I2
aI1
aI1
as(S'organic'
p2343
g2
tp2344
(lp2345
I1
aI1
aI6
as(S'time'
p2346
g40
tp2347
(lp2348
I9
aI2
aI10
as(S'approach'
p2349
g40
tp2350
(lp2351
I1
aI1
aI2
as(S'overly'
p2352
g15
tp2353
(lp2354
I1
aI1
aI5
as(S'certain'
p2355
g2
tp2356
(lp2357
I1
aI3
aI25
as(S'odd'
p2358
g2
tp2359
(lp2360
I1
aI1
aI3
as(S'lifetim'
p2361
g40
tp2362
(lp2363
I2
aI1
aI1
as(S'REALLY'
p2364
g15
tp2365
(lp2366
I1
aI1
aI2
as(S'inertial'
p2367
g2
tp2368
(lp2369
I1
aI1
aI2
as(S'understaffing'
p2370
g40
tp2371
(lp2372
I2
aI1
aI1
as(S'commercial'
p2373
g2
tp2374
(lp2375
I1
aI2
aI1
as(S'strong'
p2376
g2
tp2377
(lp2378
I4
aI37
aI18
as(S'honest'
p2379
g2
tp2380
(lp2381
I1
aI2
aI1
as(S'hugely'
p2382
g15
tp2383
(lp2384
I1
aI1
aI2
as(S'native'
p2385
g2
tp2386
(lp2387
I1
aI1
aI2
as(S'Never'
p2388
g15
tp2389
(lp2390
I1
aI4
aI3
as(S'hours'
p2391
g74
tp2392
(lp2393
I10
aI4
aI21
as(S'realistic'
p2394
g2
tp2395
(lp2396
I1
aI2
aI2
as(S'bike'
p2397
g2
tp2398
(lp2399
I1
aI2
aI1
as(S'places'
p2400
g74
tp2401
(lp2402
I1
aI1
aI2
as(S'eduactional'
p2403
g2
tp2404
(lp2405
I1
aI2
aI1
as(S'non-managerial'
p2406
g2
tp2407
(lp2408
I1
aI2
aI1
as(S'socially'
p2409
g15
tp2410
(lp2411
I4
aI1
aI1
as(S'recognition'
p2412
g40
tp2413
(lp2414
I2
aI1
aI5
as(S'exotic'
p2415
g2
tp2416
(lp2417
I1
aI2
aI1
as(S'archaic'
p2418
g2
tp2419
(lp2420
I1
aI1
aI2
as(S'initiative'
p2421
g2
tp2422
(lp2423
I1
aI2
aI1
as(S'service'
p2424
g40
tp2425
(lp2426
I2
aI1
aI4
as(S'university'
p2427
g40
tp2428
(lp2429
I2
aI1
aI1
as(S'anonymity'
p2430
g40
tp2431
(lp2432
I1
aI1
aI3
as(S'east'
p2433
g40
tp2434
(lp2435
I1
aI1
aI2
as(S'experience'
p2436
g40
tp2437
(lp2438
I49
aI2
aI3
as(S'People'
p2439
g74
tp2440
(lp2441
I1
aI3
aI1
as(S'skills'
p2442
g74
tp2443
(lp2444
I3
aI3
aI3
as(S'appear'
p2445
g2
tp2446
(lp2447
I1
aI1
aI2
as(S'kind/pleasant'
p2448
g2
tp2449
(lp2450
I1
aI2
aI1
as(S'data-oriented'
p2451
g2
tp2452
(lp2453
I1
aI1
aI2
as(S'downside.In'
p2454
g2
tp2455
(lp2456
I1
aI1
aI2
as(S'High'
p2457
g2
tp2458
(lp2459
I3
aI17
aI16
as(S'keeper'
p2460
g40
tp2461
(lp2462
I2
aI1
aI1
as(S'minutes'
p2463
g74
tp2464
(lp2465
I1
aI1
aI2
as(S'junior'
p2466
g2
tp2467
(lp2468
I1
aI2
aI9
as(S'town'
p2469
g40
tp2470
(lp2471
I1
aI1
aI2
as(S'cool'
p2472
g2
tp2473
(lp2474
I2
aI9
aI1
as(S'whenever'
p2475
g40
tp2476
(lp2477
I1
aI1
aI2
as(S'non-competitive'
p2478
g2
tp2479
(lp2480
I1
aI2
aI1
as(S'hospitality'
p2481
g40
tp2482
(lp2483
I2
aI1
aI1
as(S'Horrible'
p2484
g2
tp2485
(lp2486
I1
aI1
aI3
as(S'travel'
p2487
g40
tp2488
(lp2489
I3
aI2
aI5
as(S'trivial'
p2490
g2
tp2491
(lp2492
I1
aI1
aI3
as(S'stingy'
p2493
g2
tp2494
(lp2495
I2
aI1
aI1
as(S'boss'
p2496
g40
tp2497
(lp2498
I2
aI1
aI1
as(S'financial'
p2499
g2
tp2500
(lp2501
I3
aI15
aI17
as(S'investigative'
p2502
g2
tp2503
(lp2504
I2
aI1
aI1
as(S'Front-line'
p2505
g2
tp2506
(lp2507
I1
aI1
aI2
as(S'rigorous'
p2508
g2
tp2509
(lp2510
I1
aI2
aI1
as(S'acquisitions'
p2511
g74
tp2512
(lp2513
I1
aI2
aI1
as(S'highly'
p2514
g15
tp2515
(lp2516
I3
aI14
aI15
as(S'hot'
p2517
g2
tp2518
(lp2519
I1
aI1
aI2
as(S'cooker'
p2520
g40
tp2521
(lp2522
I2
aI1
aI1
as(S'morning'
p2523
g40
tp2524
(lp2525
I1
aI1
aI2
as(S'there'
p2526
g15
tp2527
(lp2528
I3
aI3
aI5
as(S'offices'
p2529
g74
tp2530
(lp2531
I1
aI2
aI3
as(S"'ll"
p2532
g2
tp2533
(lp2534
I1
aI1
aI2
as(S'inorganic'
p2535
g2
tp2536
(lp2537
I1
aI1
aI2
as(S'Mechanical'
p2538
g2
tp2539
(lp2540
I2
aI1
aI1
as(S'Incredibly'
p2541
g15
tp2542
(lp2543
I1
aI2
aI2
as(S'matrix'
p2544
g40
tp2545
(lp2546
I2
aI1
aI1
as(S'relax'
p2547
g40
tp2548
(lp2549
I1
aI2
aI1
as(S'exposure'
p2550
g40
tp2551
(lp2552
I2
aI1
aI2
as(S'lear'
p2553
g2
tp2554
(lp2555
I2
aI1
aI1
as(S'Japanese'
p2556
g2
tp2557
(lp2558
I1
aI2
aI6
as(S'affiliates'
p2559
g74
tp2560
(lp2561
I1
aI1
aI2
as(S'consrvatorship'
p2562
g40
tp2563
(lp2564
I2
aI1
aI1
as(S'severely'
p2565
g15
tp2566
(lp2567
I1
aI1
aI2
as(S'privacy'
p2568
g40
tp2569
(lp2570
I2
aI1
aI2
as(S'tangible'
p2571
g2
tp2572
(lp2573
I1
aI2
aI1
as(S'similar'
p2574
g2
tp2575
(lp2576
I1
aI5
aI11
as(S'numerical'
p2577
g2
tp2578
(lp2579
I1
aI1
aI2
as(S'inevitable'
p2580
g2
tp2581
(lp2582
I1
aI1
aI2
as(S'-Conforming'
p2583
g2
tp2584
(lp2585
I1
aI1
aI2
as(S'strict'
p2586
g2
tp2587
(lp2588
I2
aI2
aI2
as(S'ton'
p2589
g40
tp2590
(lp2591
I1
aI2
aI1
as(S'career'
p2592
g40
tp2593
(lp2594
I43
aI1
aI4
as(S'deliberate'
p2595
g2
tp2596
(lp2597
I1
aI2
aI1
as(S'moderate'
p2598
g2
tp2599
(lp2600
I1
aI2
aI1
as(S'day'
p2601
g40
tp2602
(lp2603
I1
aI2
aI3
as(S'affordable'
p2604
g2
tp2605
(lp2606
I1
aI2
aI1
as(S'top-tier'
p2607
g2
tp2608
(lp2609
I1
aI2
aI1
as(S'occupied'
p2610
g2
tp2611
(lp2612
I1
aI1
aI2
as(S'exactly'
p2613
g15
tp2614
(lp2615
I1
aI1
aI2
as(S'consistently'
p2616
g15
tp2617
(lp2618
I2
aI3
aI2
as(S'interim'
p2619
g2
tp2620
(lp2621
I1
aI3
aI1
as(S'lacks'
p2622
g74
tp2623
(lp2624
I1
aI1
aI2
as(S'-Being'
p2625
g2
tp2626
(lp2627
I1
aI2
aI1
as(S'levels'
p2628
g74
tp2629
(lp2630
I1
aI1
aI4
as(S'wonderfull'
p2631
g2
tp2632
(lp2633
I3
aI1
aI1
as(S'-Great'
p2634
g2
tp2635
(lp2636
I1
aI14
aI1
as(S'convenient'
p2637
g2
tp2638
(lp2639
I1
aI2
aI3
as(S'business/management'
p2640
g2
tp2641
(lp2642
I1
aI2
aI1
as(S'crises'
p2643
g74
tp2644
(lp2645
I1
aI1
aI2
as(S'employer'
p2646
g40
tp2647
(lp2648
I3
aI1
aI1
as(S'ar'
p2649
g15
tp2650
(lp2651
I2
aI1
aI1
as(S'leg'
p2652
g40
tp2653
(lp2654
I1
aI1
aI2
as(S'-great'
p2655
g2
tp2656
(lp2657
I1
aI3
aI1
as(S'Corporate'
p2658
g2
tp2659
(lp2660
I2
aI9
aI5
as(S'incompetent'
p2661
g2
tp2662
(lp2663
I1
aI1
aI2
as(S'associates'
p2664
g74
tp2665
(lp2666
I1
aI1
aI3
as(S'C-Staff'
p2667
g2
tp2668
(lp2669
I2
aI1
aI1
as(S'remote'
p2670
g40
tp2671
(lp2672
I1
aI3
aI2
as(S'Fire-fight'
p2673
g2
tp2674
(lp2675
I1
aI1
aI2
as(S'Knowledgable'
p2676
g2
tp2677
(lp2678
I1
aI2
aI1
as(S'are'
p2679
g2
tp2680
(lp2681
I1
aI2
aI2
as(S'chaotic'
p2682
g2
tp2683
(lp2684
I1
aI1
aI3
as(S'recessions'
p2685
g74
tp2686
(lp2687
I1
aI1
aI2
as(S'allowing'
p2688
g40
tp2689
(lp2690
I1
aI1
aI2
as(S'laid-back'
p2691
g2
tp2692
(lp2693
I2
aI1
aI1
as(S'brutal'
p2694
g2
tp2695
(lp2696
I2
aI1
aI2
as(S'continually'
p2697
g15
tp2698
(lp2699
I1
aI2
aI3
as(S'over-competitive'
p2700
g2
tp2701
(lp2702
I1
aI1
aI2
as(S'systems'
p2703
g74
tp2704
(lp2705
I2
aI1
aI1
as(S'gradual'
p2706
g2
tp2707
(lp2708
I1
aI1
aI2
as(S'MIs-managed'
p2709
g2
tp2710
(lp2711
I1
aI1
aI2
as(S'large'
p2712
g2
tp2713
(lp2714
I13
aI33
aI56
as(S'automation'
p2715
g40
tp2716
(lp2717
I2
aI1
aI1
as(S'school'
p2718
g40
tp2719
(lp2720
I5
aI1
aI1
as(S'Management'
p2721
g40
tp2722
(lp2723
I2
aI1
aI1
as(S'groups'
p2724
g74
tp2725
(lp2726
I1
aI1
aI2
as(S'serious'
p2727
g2
tp2728
(lp2729
I1
aI2
aI2
as(S'flexbility'
p2730
g40
tp2731
(lp2732
I2
aI1
aI1
as(S'geologists'
p2733
g74
tp2734
(lp2735
I3
aI1
aI1
as(S'crap'
p2736
g40
tp2737
(lp2738
I1
aI1
aI2
as(S'tall'
p2739
g2
tp2740
(lp2741
I1
aI1
aI2
as(S'lifer'
p2742
g40
tp2743
(lp2744
I2
aI1
aI1
as(S'Relatively'
p2745
g15
tp2746
(lp2747
I1
aI2
aI1
as(S'different'
p2748
g2
tp2749
(lp2750
I5
aI102
aI35
as(S'upstairs'
p2751
g74
tp2752
(lp2753
I1
aI1
aI2
as(S'follow'
p2754
g2
tp2755
(lp2756
I1
aI1
aI3
as(S'salary/bonus'
p2757
g2
tp2758
(lp2759
I1
aI1
aI2
as(S'*Confidentiality'
p2760
g2
tp2761
(lp2762
I1
aI1
aI2
as(S'public'
p2763
g2
tp2764
(lp2765
I4
aI7
aI15
as(S'dissatisfaction'
p2766
g40
tp2767
(lp2768
I1
aI1
aI3
as(S'development/training'
p2769
g2
tp2770
(lp2771
I1
aI1
aI2
as(S'industries'
p2772
g74
tp2773
(lp2774
I2
aI3
aI3
as(S'conservative'
p2775
g2
tp2776
(lp2777
I1
aI4
aI7
as(S'industrial'
p2778
g2
tp2779
(lp2780
I1
aI2
aI2
as(S'non-partners'
p2781
g74
tp2782
(lp2783
I1
aI1
aI2
as(S'proactive'
p2784
g2
tp2785
(lp2786
I1
aI2
aI2
as(S'pleasant'
p2787
g2
tp2788
(lp2789
I2
aI5
aI1
as(S'-Everyone'
p2790
g2
tp2791
(lp2792
I1
aI2
aI1
as(S'Flexable'
p2793
g2
tp2794
(lp2795
I2
aI1
aI1
as(S'feels'
p2796
g74
tp2797
(lp2798
I1
aI2
aI1
as(S'Individual'
p2799
g2
tp2800
(lp2801
I1
aI2
aI5
as(S'non-business'
p2802
g2
tp2803
(lp2804
I1
aI1
aI2
as(S'Intellectual'
p2805
g2
tp2806
(lp2807
I2
aI1
aI1
as(S'transparent'
p2808
g40
tp2809
(lp2810
I1
aI2
aI2
as(S'self-driven'
p2811
g2
tp2812
(lp2813
I2
aI3
aI1
as(S'busy'
p2814
g2
tp2815
(lp2816
I3
aI2
aI29
as(S'roles'
p2817
g74
tp2818
(lp2819
I2
aI1
aI3
as(S'hard-time'
p2820
g2
tp2821
(lp2822
I1
aI1
aI2
as(S'hyper'
p2823
g40
tp2824
(lp2825
I1
aI1
aI2
as(S'IT/Web'
p2826
g2
tp2827
(lp2828
I1
aI2
aI1
as(S'balanced'
p2829
g2
tp2830
(lp2831
I1
aI2
aI1
as(S'security'
p2832
g40
tp2833
(lp2834
I3
aI1
aI2
as(S'Long'
p2835
g2
tp2836
(lp2837
I7
aI1
aI72
as(S'toooooooo'
p2838
g15
tp2839
(lp2840
I1
aI1
aI2
as(S'-Entrepreneurial'
p2841
g2
tp2842
(lp2843
I1
aI2
aI1
as(S'enjoyable'
p2844
g2
tp2845
(lp2846
I2
aI6
aI1
as(S'strategy'
p2847
g40
tp2848
(lp2849
I3
aI2
aI1
as(S'moments'
p2850
g74
tp2851
(lp2852
I1
aI1
aI2
as(S'quarterly'
p2853
g2
tp2854
(lp2855
I1
aI2
aI2
as(S'place'
p2856
g40
tp2857
(lp2858
I5
aI2
aI5
as(S'however'
p2859
g15
tp2860
(lp2861
I1
aI3
aI3
as(S'Highly'
p2862
g15
tp2863
(lp2864
I2
aI11
aI1
as(S'utterly'
p2865
g15
tp2866
(lp2867
I1
aI1
aI3
as(S'focal'
p2868
g2
tp2869
(lp2870
I1
aI1
aI2
as(S'Finally'
p2871
g15
tp2872
(lp2873
I1
aI1
aI2
as(S'..very'
p2874
g2
tp2875
(lp2876
I1
aI1
aI2
as(S'workplace'
p2877
g40
tp2878
(lp2879
I3
aI1
aI1
as(S'furnished'
p2880
g2
tp2881
(lp2882
I1
aI2
aI1
as(S'ages'
p2883
g74
tp2884
(lp2885
I3
aI1
aI1
as(S'fast'
p2886
g15
tp2887
(lp2888
I4
aI6
aI1
as(S'discipline'
p2889
g2
tp2890
(lp2891
I1
aI1
aI2
as(S'plant'
p2892
g40
tp2893
(lp2894
I1
aI1
aI3
as(S'game'
p2895
g40
tp2896
(lp2897
I1
aI1
aI3
as(S'who-you-know'
p2898
g2
tp2899
(lp2900
I1
aI1
aI2
as(S'energetic'
p2901
g2
tp2902
(lp2903
I1
aI3
aI1
as(S'modules'
p2904
g74
tp2905
(lp2906
I2
aI1
aI1
as(S'thus'
p2907
g15
tp2908
(lp2909
I1
aI2
aI2
as(S'areas'
p2910
g74
tp2911
(lp2912
I2
aI2
aI4
as(S'revenue'
p2913
g40
tp2914
(lp2915
I1
aI1
aI2
as(S'togather'
p2916
g40
tp2917
(lp2918
I1
aI1
aI2
as(S'sweet'
p2919
g2
tp2920
(lp2921
I1
aI1
aI3
as(S'project'
p2922
g2
tp2923
(lp2924
I1
aI1
aI2
as(S'individual'
p2925
g2
tp2926
(lp2927
I1
aI13
aI17
as(S'irregular'
p2928
g2
tp2929
(lp2930
I1
aI1
aI3
as(S'soon'
p2931
g15
tp2932
(lp2933
I1
aI1
aI2
as(S'ATK'
p2934
g40
tp2935
(lp2936
I2
aI1
aI1
as(S'Salary/bonus'
p2937
g2
tp2938
(lp2939
I1
aI2
aI1
as(S'bag'
p2940
g40
tp2941
(lp2942
I5
aI1
aI1
as(S'initiatives'
p2943
g74
tp2944
(lp2945
I1
aI1
aI2
as(S'agile'
p2946
g2
tp2947
(lp2948
I1
aI1
aI2
as(S'congressional'
p2949
g2
tp2950
(lp2951
I1
aI1
aI2
as(S'research'
p2952
g40
tp2953
(lp2954
I1
aI2
aI1
as(S'dead-end'
p2955
g2
tp2956
(lp2957
I1
aI2
aI1
as(S'acheive'
p2958
g2
tp2959
(lp2960
I1
aI1
aI2
as(S'anyone'
p2961
g40
tp2962
(lp2963
I2
aI1
aI2
as(S'meritocracy'
p2964
g40
tp2965
(lp2966
I1
aI1
aI2
as(S'clients'
p2967
g74
tp2968
(lp2969
I1
aI2
aI2
as(S'unethical'
p2970
g2
tp2971
(lp2972
I1
aI1
aI2
as(S'supplemental'
p2973
g2
tp2974
(lp2975
I1
aI2
aI3
as(S'silo'
p2976
g15
tp2977
(lp2978
I1
aI1
aI2
as(S'unbelievable'
p2979
g2
tp2980
(lp2981
I2
aI1
aI1
as(S'level-appropriate'
p2982
g2
tp2983
(lp2984
I1
aI2
aI1
as(S'compa'
p2985
g40
tp2986
(lp2987
I2
aI1
aI1
as(S'active'
p2988
g2
tp2989
(lp2990
I1
aI3
aI2
as(S'moderately'
p2991
g15
tp2992
(lp2993
I1
aI2
aI1
as(S'unreasonable'
p2994
g2
tp2995
(lp2996
I1
aI1
aI4
as(S'else'
p2997
g15
tp2998
(lp2999
I3
aI1
aI5
as(S'management..what'
p3000
g2
tp3001
(lp3002
I1
aI1
aI2
as(S'homeless'
p3003
g2
tp3004
(lp3005
I1
aI1
aI2
as(S'feedback'
p3006
g40
tp3007
(lp3008
I1
aI1
aI3
as(S'mid~career'
p3009
g40
tp3010
(lp3011
I2
aI1
aI1
as(S'toyota'
p3012
g40
tp3013
(lp3014
I2
aI1
aI1
as(S'enormous'
p3015
g2
tp3016
(lp3017
I1
aI2
aI2
as(S'talents'
p3018
g74
tp3019
(lp3020
I1
aI2
aI1
as(S'acceptable'
p3021
g2
tp3022
(lp3023
I1
aI3
aI1
as(S'intra-preneurial'
p3024
g2
tp3025
(lp3026
I1
aI1
aI2
as(S'separate'
p3027
g2
tp3028
(lp3029
I1
aI2
aI3
as(S'inwardly'
p3030
g15
tp3031
(lp3032
I2
aI1
aI1
as(S'again'
p3033
g15
tp3034
(lp3035
I3
aI2
aI1
as(S'profits'
p3036
g74
tp3037
(lp3038
I2
aI1
aI1
as(S'whenever'
p3039
g15
tp3040
(lp3041
I1
aI2
aI1
as(S'administration'
p3042
g40
tp3043
(lp3044
I2
aI1
aI1
as(S'fair'
p3045
g2
tp3046
(lp3047
I2
aI10
aI3
as(S'countries'
p3048
g74
tp3049
(lp3050
I1
aI1
aI3
as(S'Continuously'
p3051
g15
tp3052
(lp3053
I1
aI3
aI1
as(S'curious'
p3054
g2
tp3055
(lp3056
I2
aI1
aI1
as(S'-Long'
p3057
g2
tp3058
(lp3059
I1
aI1
aI3
as(S'entire'
p3060
g2
tp3061
(lp3062
I1
aI5
aI5
as(S'marginal'
p3063
g2
tp3064
(lp3065
I1
aI2
aI1
as(S'Looks'
p3066
g74
tp3067
(lp3068
I1
aI2
aI1
as(S'Non-hierarchical'
p3069
g2
tp3070
(lp3071
I1
aI2
aI1
as(S'Tight'
p3072
g2
tp3073
(lp3074
I1
aI1
aI3
as(S'maintain'
p3075
g15
tp3076
(lp3077
I1
aI1
aI2
as(S'Especially'
p3078
g15
tp3079
(lp3080
I1
aI3
aI1
as(S'large-scale'
p3081
g2
tp3082
(lp3083
I1
aI2
aI1
as(S'Overwhelmingly'
p3084
g15
tp3085
(lp3086
I1
aI2
aI1
as(S'-Competitive'
p3087
g2
tp3088
(lp3089
I1
aI2
aI1
as(S'staff'
p3090
g40
tp3091
(lp3092
I2
aI1
aI4
as(S'unclear'
p3093
g2
tp3094
(lp3095
I2
aI1
aI2
as(S'-Strong'
p3096
g2
tp3097
(lp3098
I1
aI2
aI1
as(S'continuous'
p3099
g2
tp3100
(lp3101
I1
aI5
aI1
as(S'supporting/developing'
p3102
g2
tp3103
(lp3104
I1
aI1
aI2
as(S'passion'
p3105
g40
tp3106
(lp3107
I2
aI1
aI1
as(S'non-busy'
p3108
g2
tp3109
(lp3110
I1
aI2
aI2
as(S'controls'
p3111
g74
tp3112
(lp3113
I1
aI1
aI2
as(S'appasial'
p3114
g2
tp3115
(lp3116
I1
aI1
aI2
as(S'diverse'
p3117
g2
tp3118
(lp3119
I2
aI20
aI3
as(S'referrals,'
p3120
g2
tp3121
(lp3122
I1
aI1
aI2
as(S'needs'
p3123
g74
tp3124
(lp3125
I3
aI1
aI3
as(S'mentorship/training'
p3126
g2
tp3127
(lp3128
I1
aI1
aI2
as(S'looks'
p3129
g74
tp3130
(lp3131
I1
aI1
aI2
as(S'technologies'
p3132
g74
tp3133
(lp3134
I2
aI2
aI3
as(S'repetitive'
p3135
g2
tp3136
(lp3137
I1
aI1
aI2
as(S'autonomous'
p3138
g2
tp3139
(lp3140
I1
aI2
aI1
as(S'leaders'
p3141
g74
tp3142
(lp3143
I1
aI1
aI2
as(S'micromanage'
p3144
g40
tp3145
(lp3146
I1
aI1
aI2
as(S'actual'
p3147
g2
tp3148
(lp3149
I2
aI2
aI13
as(S'general'
p3150
g2
tp3151
(lp3152
I2
aI3
aI9
as(S'program'
p3153
g40
tp3154
(lp3155
I2
aI1
aI1
as(S'know'
p3156
g15
tp3157
(lp3158
I2
aI1
aI1
as(S'excellent'
p3159
g2
tp3160
(lp3161
I2
aI4
aI1
as(S'Newly'
p3162
g15
tp3163
(lp3164
I1
aI3
aI1
as(S'vast'
p3165
g2
tp3166
(lp3167
I1
aI2
aI2
as(S'perks'
p3168
g74
tp3169
(lp3170
I2
aI1
aI1
as(S'under-represented'
p3171
g2
tp3172
(lp3173
I1
aI2
aI1
as(S'commission'
p3174
g40
tp3175
(lp3176
I1
aI3
aI1
as(S'immature'
p3177
g40
tp3178
(lp3179
I1
aI1
aI2
as(S'('
p3180
g40
tp3181
(lp3182
I1
aI4
aI3
as(S'disconnect'
p3183
g40
tp3184
(lp3185
I1
aI1
aI2
as(S'cafeteria,'
p3186
g40
tp3187
(lp3188
I1
aI1
aI2
as(S'hires'
p3189
g74
tp3190
(lp3191
I4
aI1
aI4
as(S'limited'
p3192
g2
tp3193
(lp3194
I2
aI1
aI3
as(S'full'
p3195
g2
tp3196
(lp3197
I6
aI17
aI8
as(S'dangerous'
p3198
g2
tp3199
(lp3200
I1
aI1
aI2
as(S'C*D'
p3201
g2
tp3202
(lp3203
I1
aI1
aI2
as(S'probably'
p3204
g15
tp3205
(lp3206
I1
aI2
aI5
as(S'able'
p3207
g2
tp3208
(lp3209
I1
aI4
aI1
as(S'functional'
p3210
g2
tp3211
(lp3212
I1
aI14
aI4
as(S'profile'
p3213
g2
tp3214
(lp3215
I1
aI1
aI2
as(S'actually'
p3216
g15
tp3217
(lp3218
I1
aI5
aI16
as(S'sponsored'
p3219
g2
tp3220
(lp3221
I1
aI2
aI1
as(S'Bi-weekly'
p3222
g2
tp3223
(lp3224
I1
aI2
aI1
as(S'Physical'
p3225
g2
tp3226
(lp3227
I1
aI1
aI3
as(S'reliable'
p3228
g2
tp3229
(lp3230
I2
aI1
aI1
as(S'together'
p3231
g15
tp3232
(lp3233
I2
aI2
aI1
as(S"'really"
p3234
g15
tp3235
(lp3236
I1
aI1
aI2
as(S'co-op'
p3237
g2
tp3238
(lp3239
I1
aI1
aI2
as(S'Absolutely'
p3240
g15
tp3241
(lp3242
I2
aI1
aI1
as(S'everybody'
p3243
g40
tp3244
(lp3245
I1
aI1
aI3
as(S'previous'
p3246
g2
tp3247
(lp3248
I2
aI5
aI8
as(S'sight'
p3249
g40
tp3250
(lp3251
I1
aI1
aI2
as(S'moral'
p3252
g2
tp3253
(lp3254
I1
aI2
aI3
as(S'mechanic'
p3255
g2
tp3256
(lp3257
I2
aI1
aI1
as(S'A*B'
p3258
g2
tp3259
(lp3260
I1
aI1
aI2
as(S'back-office'
p3261
g2
tp3262
(lp3263
I2
aI1
aI1
as(S'collegial'
p3264
g2
tp3265
(lp3266
I2
aI6
aI1
as(S'Mentor/Counseling'
p3267
g2
tp3268
(lp3269
I1
aI3
aI1
as(S'broadly'
p3270
g15
tp3271
(lp3272
I1
aI1
aI2
as(S'congenial'
p3273
g2
tp3274
(lp3275
I1
aI2
aI1
as(S'vary'
p3276
g2
tp3277
(lp3278
I1
aI2
aI1
as(S'overhead'
p3279
g2
tp3280
(lp3281
I1
aI1
aI2
as(S'self-study'
p3282
g2
tp3283
(lp3284
I1
aI2
aI1
as(S'Bright'
p3285
g2
tp3286
(lp3287
I1
aI3
aI1
as(S'world-wide'
p3288
g2
tp3289
(lp3290
I1
aI3
aI1
as(S'-Middle'
p3291
g2
tp3292
(lp3293
I1
aI1
aI2
as(S'education'
p3294
g40
tp3295
(lp3296
I1
aI3
aI1
as(S'atmosphere'
p3297
g15
tp3298
(lp3299
I2
aI2
aI1
as(S'internationally'
p3300
g15
tp3301
(lp3302
I2
aI3
aI1
as(S'york'
p3303
g40
tp3304
(lp3305
I1
aI1
aI4
as(S'small'
p3306
g2
tp3307
(lp3308
I3
aI12
aI24
as(S'Generally'
p3309
g15
tp3310
(lp3311
I3
aI1
aI1
as(S'deadlines'
p3312
g74
tp3313
(lp3314
I1
aI1
aI2
as(S'established'
p3315
g2
tp3316
(lp3317
I1
aI4
aI1
as(S'client'
p3318
g40
tp3319
(lp3320
I2
aI1
aI2
as(S'economical'
p3321
g2
tp3322
(lp3323
I1
aI2
aI1
as(S'necesarily'
p3324
g15
tp3325
(lp3326
I1
aI1
aI2
as(S'his/her'
p3327
g2
tp3328
(lp3329
I1
aI1
aI3
as(S'bureaucratic'
p3330
g2
tp3331
(lp3332
I2
aI1
aI9
as(S'pretty'
p3333
g40
tp3334
(lp3335
I1
aI2
aI1
as(S'valuable'
p3336
g2
tp3337
(lp3338
I4
aI11
aI4
as(S'independent'
p3339
g2
tp3340
(lp3341
I1
aI1
aI2
as(S'world-class'
p3342
g2
tp3343
(lp3344
I1
aI2
aI1
as(S'busy/crunch'
p3345
g2
tp3346
(lp3347
I1
aI1
aI2
as(S'.top'
p3348
g2
tp3349
(lp3350
I1
aI2
aI1
as(S'mentally'
p3351
g15
tp3352
(lp3353
I1
aI2
aI1
as(S'casual'
p3354
g2
tp3355
(lp3356
I2
aI8
aI3
as(S'massive'
p3357
g2
tp3358
(lp3359
I3
aI3
aI4
as(S'internal'
p3360
g2
tp3361
(lp3362
I4
aI16
aI35
as(S'aspect'
p3363
g40
tp3364
(lp3365
I2
aI1
aI1
as(S'underqualified'
p3366
g2
tp3367
(lp3368
I2
aI1
aI1
as(S'Financial'
p3369
g2
tp3370
(lp3371
I3
aI2
aI1
as(S'hours/more'
p3372
g2
tp3373
(lp3374
I1
aI1
aI2
as(S'Various'
p3375
g2
tp3376
(lp3377
I2
aI3
aI3
as(S'onsite'
p3378
g2
tp3379
(lp3380
I1
aI3
aI1
as(S'factory'
p3381
g40
tp3382
(lp3383
I2
aI1
aI1
as(S'-Health'
p3384
g2
tp3385
(lp3386
I1
aI1
aI2
as(S'Still'
p3387
g15
tp3388
(lp3389
I1
aI1
aI6
as(S'direction'
p3390
g40
tp3391
(lp3392
I4
aI1
aI2
as(S'low-end'
p3393
g2
tp3394
(lp3395
I1
aI1
aI2
as(S'thick'
p3396
g2
tp3397
(lp3398
I1
aI1
aI2
as(S'demanding'
p3399
g40
tp3400
(lp3401
I2
aI1
aI1
as(S'full-time'
p3402
g2
tp3403
(lp3404
I1
aI4
aI1
as(S'Banker'
p3405
g40
tp3406
(lp3407
I4
aI1
aI1
as(S'push'
p3408
g2
tp3409
(lp3410
I1
aI3
aI1
as(S'communication'
p3411
g40
tp3412
(lp3413
I1
aI1
aI2
as(S'now'
p3414
g15
tp3415
(lp3416
I1
aI2
aI7
as(S'unfair'
p3417
g2
tp3418
(lp3419
I1
aI1
aI4
as(S'Severely'
p3420
g15
tp3421
(lp3422
I1
aI1
aI2
as(S'adequate'
p3423
g2
tp3424
(lp3425
I1
aI2
aI1
as(S'path'
p3426
g40
tp3427
(lp3428
I1
aI1
aI2
as(S'fantastic'
p3429
g2
tp3430
(lp3431
I3
aI10
aI2
as(S'Cons'
p3432
g74
tp3433
(lp3434
I2
aI1
aI1
as(S'classes'
p3435
g74
tp3436
(lp3437
I1
aI2
aI1
as(S'less-clear'
p3438
g2
tp3439
(lp3440
I1
aI1
aI2
as(S'solicitation'
p3441
g40
tp3442
(lp3443
I1
aI2
aI1
as(S'downturns'
p3444
g74
tp3445
(lp3446
I1
aI2
aI1
as(S'community'
p3447
g40
tp3448
(lp3449
I1
aI2
aI2
as(S'improper'
p3450
g2
tp3451
(lp3452
I1
aI1
aI2
as(S'flexibility'
p3453
g40
tp3454
(lp3455
I1
aI2
aI1
as(S'consistent'
p3456
g2
tp3457
(lp3458
I1
aI1
aI2
as(S'legal'
p3459
g2
tp3460
(lp3461
I1
aI3
aI2
as(S'fluid'
p3462
g2
tp3463
(lp3464
I1
aI2
aI1
as(S'Bad'
p3465
g2
tp3466
(lp3467
I2
aI1
aI6
as(S'actively'
p3468
g15
tp3469
(lp3470
I1
aI1
aI2
as(S'process-oriented'
p3471
g2
tp3472
(lp3473
I2
aI2
aI1
as(S'analysis'
p3474
g40
tp3475
(lp3476
I1
aI2
aI1
as(S'time-off'
p3477
g2
tp3478
(lp3479
I1
aI2
aI1
as(S'Accounting/Finance'
p3480
g2
tp3481
(lp3482
I1
aI1
aI2
as(S'organisational'
p3483
g2
tp3484
(lp3485
I1
aI3
aI1
as(S'seasoned'
p3486
g2
tp3487
(lp3488
I1
aI2
aI1
as(S'street'
p3489
g40
tp3490
(lp3491
I1
aI1
aI3
as(S'pretty'
p3492
g15
tp3493
(lp3494
I4
aI19
aI23
as(S'perspective'
p3495
g2
tp3496
(lp3497
I2
aI1
aI2
as(S'social'
p3498
g2
tp3499
(lp3500
I1
aI20
aI16
as(S'Experience'
p3501
g40
tp3502
(lp3503
I4
aI1
aI1
as(S'recordable'
p3504
g2
tp3505
(lp3506
I1
aI1
aI3
as(S'particularly'
p3507
g15
tp3508
(lp3509
I1
aI3
aI5
as(S'plan'
p3510
g40
tp3511
(lp3512
I3
aI1
aI4
as(S'Competitive'
p3513
g2
tp3514
(lp3515
I1
aI14
aI3
as(S'legally'
p3516
g15
tp3517
(lp3518
I1
aI1
aI2
as(S'year-round'
p3519
g2
tp3520
(lp3521
I1
aI2
aI1
as(S'changes'
p3522
g74
tp3523
(lp3524
I1
aI1
aI5
as(S'A.T.Kearney'
p3525
g40
tp3526
(lp3527
I2
aI1
aI1
as(S'buildings'
p3528
g74
tp3529
(lp3530
I1
aI2
aI1
as(S'*The'
p3531
g2
tp3532
(lp3533
I1
aI2
aI1
as(S'dull'
p3534
g2
tp3535
(lp3536
I1
aI2
aI2
as(S'fifth'
p3537
g2
tp3538
(lp3539
I1
aI1
aI3
as(S'Generous'
p3540
g2
tp3541
(lp3542
I1
aI5
aI1
as(S'everyone'
p3543
g40
tp3544
(lp3545
I3
aI1
aI1
as(S'usually'
p3546
g15
tp3547
(lp3548
I2
aI7
aI6
as(S'average'
p3549
g2
tp3550
(lp3551
I3
aI16
aI11
as(S'enough'
p3552
g2
tp3553
(lp3554
I1
aI2
aI7
as(S'-Old'
p3555
g2
tp3556
(lp3557
I1
aI1
aI2
as(S'nauseum'
p3558
g40
tp3559
(lp3560
I1
aI1
aI3
as(S'median'
p3561
g2
tp3562
(lp3563
I2
aI1
aI1
as(S'lifetime'
p3564
g40
tp3565
(lp3566
I2
aI1
aI1
as(S'important'
p3567
g2
tp3568
(lp3569
I1
aI10
aI8
as(S'Spectacular'
p3570
g2
tp3571
(lp3572
I1
aI3
aI1
as(S'infinite'
p3573
g2
tp3574
(lp3575
I1
aI1
aI2
as(S'practically'
p3576
g15
tp3577
(lp3578
I1
aI2
aI1
as(S'tablets/smartphones'
p3579
g74
tp3580
(lp3581
I1
aI1
aI2
as(S'quiet'
p3582
g2
tp3583
(lp3584
I1
aI1
aI2
as(S'slogan'
p3585
g40
tp3586
(lp3587
I3
aI1
aI1
as(S'Extensive'
p3588
g2
tp3589
(lp3590
I1
aI2
aI5
as(S'stellar'
p3591
g2
tp3592
(lp3593
I1
aI2
aI1
as(S'appropriate'
p3594
g2
tp3595
(lp3596
I1
aI4
aI3
as(S'neck'
p3597
g40
tp3598
(lp3599
I2
aI1
aI1
as(S'non-structured'
p3600
g2
tp3601
(lp3602
I1
aI1
aI2
as(S'reorgs'
p3603
g74
tp3604
(lp3605
I1
aI1
aI2
as(S'cut-throat'
p3606
g2
tp3607
(lp3608
I1
aI2
aI3
as(S'tough'
p3609
g2
tp3610
(lp3611
I3
aI3
aI12
as(S'antiquated'
p3612
g2
tp3613
(lp3614
I1
aI1
aI2
as(S'C-level'
p3615
g2
tp3616
(lp3617
I1
aI2
aI2
as(S'-Slow'
p3618
g2
tp3619
(lp3620
I1
aI1
aI2
as(S'hourly'
p3621
g15
tp3622
(lp3623
I1
aI3
aI3
as(S"'white"
p3624
g2
tp3625
(lp3626
I1
aI1
aI2
as(S'enable'
p3627
g2
tp3628
(lp3629
I1
aI2
aI2
as(S'nebulous'
p3630
g2
tp3631
(lp3632
I1
aI1
aI2
as(S'agressive'
p3633
g2
tp3634
(lp3635
I1
aI1
aI3
as(S'Passive'
p3636
g2
tp3637
(lp3638
I2
aI1
aI1
as(S'products'
p3639
g74
tp3640
(lp3641
I5
aI2
aI2
as(S'rewards'
p3642
g74
tp3643
(lp3644
I2
aI1
aI1
as(S'result'
p3645
g40
tp3646
(lp3647
I1
aI1
aI2
as(S'environme'
p3648
g40
tp3649
(lp3650
I2
aI1
aI1
as(S'Entrepreneurial'
p3651
g2
tp3652
(lp3653
I1
aI5
aI1
as(S'dirty'
p3654
g2
tp3655
(lp3656
I1
aI1
aI2
as(S'initially'
p3657
g15
tp3658
(lp3659
I1
aI2
aI1
as(S'worth'
p3660
g2
tp3661
(lp3662
I2
aI3
aI1
as(S'projects'
p3663
g74
tp3664
(lp3665
I3
aI2
aI5
as(S'continual'
p3666
g2
tp3667
(lp3668
I1
aI2
aI2
as(S'wasteful'
p3669
g2
tp3670
(lp3671
I1
aI1
aI2
as(S'Political'
p3672
g2
tp3673
(lp3674
I1
aI1
aI3
as(S'free'
p3675
g2
tp3676
(lp3677
I2
aI22
aI11
as(S'.and'
p3678
g2
tp3679
(lp3680
I1
aI1
aI2
as(S'morale'
p3681
g40
tp3682
(lp3683
I3
aI1
aI2
as(S'black'
p3684
g2
tp3685
(lp3686
I1
aI1
aI3
as(S'carrot'
p3687
g40
tp3688
(lp3689
I2
aI1
aI1
as(S'file'
p3690
g2
tp3691
(lp3692
I1
aI2
aI1
as(S'and/plus'
p3693
g2
tp3694
(lp3695
I1
aI2
aI1
as(S'.just'
p3696
g2
tp3697
(lp3698
I1
aI2
aI1
as(S'major'
p3699
g2
tp3700
(lp3701
I4
aI7
aI19
as(S'collaborative'
p3702
g2
tp3703
(lp3704
I3
aI10
aI1
as(S'gains'
p3705
g74
tp3706
(lp3707
I1
aI1
aI2
as(S'Family-like'
p3708
g2
tp3709
(lp3710
I1
aI2
aI1
as(S'Private'
p3711
g2
tp3712
(lp3713
I1
aI2
aI1
as(S'downsides'
p3714
g74
tp3715
(lp3716
I1
aI1
aI4
as(S'macroeconomic'
p3717
g2
tp3718
(lp3719
I1
aI1
aI2
as(S'Non-monetary'
p3720
g2
tp3721
(lp3722
I1
aI1
aI2
as(S'talented'
p3723
g2
tp3724
(lp3725
I2
aI2
aI2
as(S'club'
p3726
g40
tp3727
(lp3728
I1
aI1
aI2
as(S'normal'
p3729
g2
tp3730
(lp3731
I1
aI4
aI3
as(S'timely'
p3732
g2
tp3733
(lp3734
I1
aI1
aI4
as(S'Wide'
p3735
g2
tp3736
(lp3737
I1
aI3
aI1
as(S'sour-tasting'
p3738
g2
tp3739
(lp3740
I1
aI1
aI2
as(S'endless'
p3741
g2
tp3742
(lp3743
I2
aI2
aI2
as(S'Current'
p3744
g2
tp3745
(lp3746
I1
aI4
aI2
as(S'Regular'
p3747
g2
tp3748
(lp3749
I1
aI2
aI1
as(S'Social'
p3750
g2
tp3751
(lp3752
I1
aI1
aI2
as(S'rules'
p3753
g74
tp3754
(lp3755
I1
aI1
aI2
as(S'exact'
p3756
g2
tp3757
(lp3758
I1
aI1
aI3
as(S'present'
p3759
g2
tp3760
(lp3761
I1
aI1
aI2
as(S'commitments'
p3762
g74
tp3763
(lp3764
I1
aI1
aI2
as(S'non-petrotech'
p3765
g2
tp3766
(lp3767
I1
aI1
aI2
as(S'knowlegeable'
p3768
g2
tp3769
(lp3770
I1
aI2
aI1
as(S'lines/practices'
p3771
g74
tp3772
(lp3773
I1
aI2
aI1
as(S'agility'
p3774
g40
tp3775
(lp3776
I2
aI1
aI1
as(S'department,'
p3777
g40
tp3778
(lp3779
I1
aI1
aI2
as(S'press'
p3780
g40
tp3781
(lp3782
I1
aI1
aI2
as(S'entirely'
p3783
g15
tp3784
(lp3785
I1
aI1
aI4
as(S'instantly'
p3786
g15
tp3787
(lp3788
I1
aI1
aI2
as(S'virus'
p3789
g40
tp3790
(lp3791
I1
aI1
aI2
as(S'students'
p3792
g74
tp3793
(lp3794
I4
aI1
aI1
as(S'consultants'
p3795
g74
tp3796
(lp3797
I2
aI1
aI2
as(S'dysfunctional'
p3798
g2
tp3799
(lp3800
I1
aI1
aI2
as(S'extensive'
p3801
g2
tp3802
(lp3803
I1
aI5
aI4
as(S'catastrophic'
p3804
g2
tp3805
(lp3806
I1
aI1
aI2
as(S'Inter-group'
p3807
g2
tp3808
(lp3809
I1
aI2
aI1
as(S'-Senior'
p3810
g2
tp3811
(lp3812
I1
aI1
aI2
as(S'respectful'
p3813
g2
tp3814
(lp3815
I2
aI5
aI1
as(S'responsive'
p3816
g2
tp3817
(lp3818
I1
aI2
aI1
as(S'invaluable'
p3819
g2
tp3820
(lp3821
I3
aI1
aI1
as(S'satisfactory'
p3822
g40
tp3823
(lp3824
I2
aI1
aI1
as(S'green'
p3825
g2
tp3826
(lp3827
I1
aI2
aI2
as(S'-Demanding'
p3828
g2
tp3829
(lp3830
I1
aI1
aI3
as(S'forth'
p3831
g2
tp3832
(lp3833
I1
aI1
aI2
as(S'ear'
p3834
g40
tp3835
(lp3836
I2
aI1
aI1
as(S'frugal'
p3837
g2
tp3838
(lp3839
I1
aI2
aI1
as(S'cross-continental'
p3840
g2
tp3841
(lp3842
I1
aI1
aI2
as(S'bad/poor'
p3843
g2
tp3844
(lp3845
I1
aI1
aI3
as(S'spontaneously'
p3846
g15
tp3847
(lp3848
I1
aI2
aI1
as(S'reasonable'
p3849
g2
tp3850
(lp3851
I3
aI7
aI5
as(S'advanc'
p3852
g40
tp3853
(lp3854
I2
aI1
aI1
as(S'always'
p3855
g15
tp3856
(lp3857
I5
aI40
aI47
as(S'hard'
p3858
g15
tp3859
(lp3860
I5
aI12
aI2
as(S'departmentalize'
p3861
g40
tp3862
(lp3863
I1
aI1
aI2
as(S'years'
p3864
g74
tp3865
(lp3866
I7
aI3
aI4
as(S'awful'
p3867
g2
tp3868
(lp3869
I1
aI2
aI4
as(S'under-controlled'
p3870
g2
tp3871
(lp3872
I1
aI1
aI3
as(S'pyramid'
p3873
g2
tp3874
(lp3875
I1
aI1
aI2
as(S'term'
p3876
g2
tp3877
(lp3878
I1
aI5
aI5
as(S'non-performing'
p3879
g2
tp3880
(lp3881
I1
aI1
aI2
as(S'real'
p3882
g2
tp3883
(lp3884
I5
aI21
aI19
as(S'-Exceptional'
p3885
g2
tp3886
(lp3887
I1
aI3
aI1
as(S'secretive'
p3888
g2
tp3889
(lp3890
I1
aI1
aI3
as(S'Intellectually'
p3891
g15
tp3892
(lp3893
I1
aI2
aI1
as(S'Numerous'
p3894
g2
tp3895
(lp3896
I1
aI2
aI1
as(S'low-level'
p3897
g2
tp3898
(lp3899
I1
aI1
aI2
as(S'bonuses'
p3900
g74
tp3901
(lp3902
I1
aI1
aI4
as(S'substantial'
p3903
g2
tp3904
(lp3905
I1
aI1
aI6
as(S'significantly'
p3906
g15
tp3907
(lp3908
I1
aI1
aI4
as(S'climb'
p3909
g40
tp3910
(lp3911
I1
aI1
aI2
as(S'island'
p3912
g40
tp3913
(lp3914
I1
aI1
aI2
as(S'an-equated'
p3915
g2
tp3916
(lp3917
I1
aI1
aI2
as(S'key'
p3918
g2
tp3919
(lp3920
I3
aI5
aI3
as(S'Less'
p3921
g162
tp3922
(lp3923
I1
aI1
aI2
as(S'incentives'
p3924
g74
tp3925
(lp3926
I1
aI1
aI2
as(S'multicultural'
p3927
g2
tp3928
(lp3929
I1
aI3
aI1
as(S'passionate'
p3930
g2
tp3931
(lp3932
I1
aI5
aI2
as(S'French'
p3933
g2
tp3934
(lp3935
I1
aI1
aI9
as(S'little'
p3936
g2
tp3937
(lp3938
I7
aI8
aI36
as(S'comfortable'
p3939
g2
tp3940
(lp3941
I1
aI5
aI1
as(S'slowly'
p3942
g15
tp3943
(lp3944
I1
aI1
aI4
as(S'others'
p3945
g74
tp3946
(lp3947
I2
aI1
aI3
as(S'fully'
p3948
g15
tp3949
(lp3950
I1
aI5
aI2
as(S'on-boarding'
p3951
g2
tp3952
(lp3953
I1
aI3
aI1
as(S'tools'
p3954
g74
tp3955
(lp3956
I1
aI1
aI2
as(S'partner'
p3957
g40
tp3958
(lp3959
I2
aI1
aI2
as(S'unrealistic'
p3960
g2
tp3961
(lp3962
I2
aI1
aI5
as(S'expenses'
p3963
g74
tp3964
(lp3965
I1
aI1
aI3
as(S'variable'
p3966
g2
tp3967
(lp3968
I1
aI2
aI2
as(S'top'
p3969
g2
tp3970
(lp3971
I7
aI43
aI32
as(S'advancement'
p3972
g40
tp3973
(lp3974
I3
aI3
aI5
as(S'promotion/raise/bonus'
p3975
g2
tp3976
(lp3977
I1
aI1
aI2
as(S'arbitrary'
p3978
g2
tp3979
(lp3980
I1
aI1
aI2
as(S'standards'
p3981
g74
tp3982
(lp3983
I2
aI1
aI4
as(S'reactive'
p3984
g2
tp3985
(lp3986
I1
aI1
aI3
as(S'Mostly'
p3987
g15
tp3988
(lp3989
I2
aI1
aI1
as(S'Organizational'
p3990
g2
tp3991
(lp3992
I1
aI1
aI2
as(S'requirements'
p3993
g74
tp3994
(lp3995
I1
aI1
aI3
as(S'extremes'
p3996
g74
tp3997
(lp3998
I2
aI1
aI1
as(S'longer'
p3999
g40
tp4000
(lp4001
I1
aI1
aI2
as(S'Company'
p4002
g40
tp4003
(lp4004
I3
aI1
aI1
as(S'worker'
p4005
g40
tp4006
(lp4007
I2
aI1
aI1
as(S'Executive'
p4008
g2
tp4009
(lp4010
I1
aI1
aI3
as(S'clearly'
p4011
g15
tp4012
(lp4013
I2
aI1
aI3
as(S'firm'
p4014
g40
tp4015
(lp4016
I8
aI5
aI10
as(S'patient'
p4017
g40
tp4018
(lp4019
I2
aI1
aI1
as(S'opportunitiies'
p4020
g74
tp4021
(lp4022
I2
aI1
aI1
as(S'non-chargeable'
p4023
g2
tp4024
(lp4025
I1
aI1
aI3
as(S'digital'
p4026
g2
tp4027
(lp4028
I1
aI2
aI2
as(S'Slightly'
p4029
g15
tp4030
(lp4031
I1
aI1
aI2
as(S'managment'
p4032
g40
tp4033
(lp4034
I1
aI1
aI2
as(S'pr'
p4035
g40
tp4036
(lp4037
I2
aI1
aI1
as(S'tech'
p4038
g40
tp4039
(lp4040
I1
aI2
aI1
as(S'lunch'
p4041
g40
tp4042
(lp4043
I1
aI1
aI3
as(S'Important'
p4044
g2
tp4045
(lp4046
I1
aI1
aI2
as(S'tatlented'
p4047
g2
tp4048
(lp4049
I1
aI2
aI1
as(S'Positive'
p4050
g2
tp4051
(lp4052
I10
aI1
aI1
as(S'someone'
p4053
g40
tp4054
(lp4055
I1
aI1
aI3
as(S'employee-blocks/LOBs/internal'
p4056
g2
tp4057
(lp4058
I1
aI1
aI2
as(S'leveraged'
p4059
g2
tp4060
(lp4061
I1
aI2
aI1
as(S'immediately'
p4062
g15
tp4063
(lp4064
I1
aI3
aI2
as(S'heavily'
p4065
g15
tp4066
(lp4067
I1
aI1
aI5
as(S'semiannual'
p4068
g2
tp4069
(lp4070
I1
aI2
aI1
as(S'operationally-sound'
p4071
g2
tp4072
(lp4073
I1
aI1
aI2
as(S'growth'
p4074
g40
tp4075
(lp4076
I14
aI1
aI7
as(S'organization'
p4077
g40
tp4078
(lp4079
I3
aI2
aI1
as(S'customer'
p4080
g40
tp4081
(lp4082
I2
aI2
aI1
as(S'all'
p4083
g15
tp4084
(lp4085
I1
aI3
aI1
as(S'legitimately'
p4086
g15
tp4087
(lp4088
I1
aI1
aI2
as(S'Commercial'
p4089
g2
tp4090
(lp4091
I1
aI1
aI2
as(S'turnover'
p4092
g40
tp4093
(lp4094
I1
aI1
aI3
as(S'primarily'
p4095
g15
tp4096
(lp4097
I1
aI1
aI2
as(S'proper'
p4098
g2
tp4099
(lp4100
I1
aI2
aI3
as(S'literally'
p4101
g15
tp4102
(lp4103
I1
aI2
aI1
as(S'ass'
p4104
g40
tp4105
(lp4106
I1
aI1
aI2
as(S'wholistically'
p4107
g15
tp4108
(lp4109
I1
aI2
aI1
as(S'crazy'
p4110
g2
tp4111
(lp4112
I1
aI1
aI3
as(S'bonus'
p4113
g40
tp4114
(lp4115
I1
aI2
aI2
as(S'boys'
p4116
g74
tp4117
(lp4118
I1
aI1
aI2
as(S'individualized'
p4119
g2
tp4120
(lp4121
I1
aI3
aI1
as(S'awesome'
p4122
g40
tp4123
(lp4124
I5
aI1
aI1
as(S'Apple-focused'
p4125
g2
tp4126
(lp4127
I1
aI1
aI2
as(S'over-worked'
p4128
g2
tp4129
(lp4130
I1
aI1
aI2
as(S'Marvelous'
p4131
g2
tp4132
(lp4133
I1
aI2
aI1
as(S'male'
p4134
g2
tp4135
(lp4136
I1
aI1
aI2
as(S'fast'
p4137
g2
tp4138
(lp4139
I2
aI4
aI5
as(S'network'
p4140
g40
tp4141
(lp4142
I2
aI2
aI1
as(S'home'
p4143
g40
tp4144
(lp4145
I4
aI1
aI1
as(S'Continuous'
p4146
g2
tp4147
(lp4148
I1
aI3
aI1
as(S'integration'
p4149
g40
tp4150
(lp4151
I1
aI1
aI2
as(S'year'
p4152
g40
tp4153
(lp4154
I1
aI2
aI13
as(S'opportunity'
p4155
g40
tp4156
(lp4157
I15
aI4
aI2
as(S'cross-functional'
p4158
g2
tp4159
(lp4160
I1
aI2
aI1
as(S'nonflexible'
p4161
g2
tp4162
(lp4163
I1
aI1
aI2
as(S'Ever-changing'
p4164
g2
tp4165
(lp4166
I2
aI1
aI1
as(S'back'
p4167
g40
tp4168
(lp4169
I1
aI1
aI3
as(S'cyclical'
p4170
g2
tp4171
(lp4172
I1
aI1
aI3
as(S'empire'
p4173
g40
tp4174
(lp4175
I2
aI1
aI1
as(S'bank'
p4176
g40
tp4177
(lp4178
I2
aI1
aI1
as(S'salaries'
p4179
g74
tp4180
(lp4181
I2
aI1
aI2
as(S'paramount'
p4182
g40
tp4183
(lp4184
I1
aI1
aI2
as(S'notch'
p4185
g40
tp4186
(lp4187
I1
aI1
aI3
as(S'totally'
p4188
g15
tp4189
(lp4190
I1
aI3
aI3
as(S'excessive'
p4191
g2
tp4192
(lp4193
I3
aI1
aI4
as(S'meeting'
p4194
g40
tp4195
(lp4196
I1
aI1
aI2
as(S'wo'
p4197
g40
tp4198
(lp4199
I2
aI1
aI1
as(S'traction'
p4200
g40
tp4201
(lp4202
I2
aI1
aI1
as(S'thoughtfully'
p4203
g15
tp4204
(lp4205
I1
aI2
aI1
as(S'employees'
p4206
g74
tp4207
(lp4208
I9
aI4
aI17
as(S'Opportunities'
p4209
g74
tp4210
(lp4211
I3
aI1
aI1
as(S'inform'
p4212
g40
tp4213
(lp4214
I1
aI1
aI2
as(S'and/or'
p4215
g2
tp4216
(lp4217
I1
aI2
aI3
as(S'clients/industries'
p4218
g74
tp4219
(lp4220
I2
aI1
aI1
as(S'multi-focus'
p4221
g2
tp4222
(lp4223
I1
aI2
aI1
as(S'Unbelievable'
p4224
g2
tp4225
(lp4226
I1
aI2
aI1
as(S'ever-shrinking'
p4227
g2
tp4228
(lp4229
I1
aI1
aI2
as(S'*Highly'
p4230
g2
tp4231
(lp4232
I1
aI2
aI1
as(S'miserable'
p4233
g2
tp4234
(lp4235
I1
aI1
aI3
as(S'benefits'
p4236
g74
tp4237
(lp4238
I14
aI7
aI7
as(S'promises'
p4239
g74
tp4240
(lp4241
I2
aI1
aI1
as(S'meaningful'
p4242
g2
tp4243
(lp4244
I1
aI3
aI4
as(S'life'
p4245
g40
tp4246
(lp4247
I7
aI1
aI2
as(S'definitely'
p4248
g15
tp4249
(lp4250
I3
aI6
aI11
as(S'pension'
p4251
g40
tp4252
(lp4253
I1
aI1
aI2
as(S'gladly'
p4254
g15
tp4255
(lp4256
I1
aI4
aI1
as(S'-Expansive'
p4257
g2
tp4258
(lp4259
I1
aI2
aI1
as(S'Years'
p4260
g74
tp4261
(lp4262
I2
aI1
aI1
as(S'subjective'
p4263
g2
tp4264
(lp4265
I1
aI1
aI2
as(S'possibly'
p4266
g15
tp4267
(lp4268
I1
aI1
aI3
as(S'exhorbitantly-paid'
p4269
g2
tp4270
(lp4271
I1
aI1
aI2
as(S'DORM'
p4272
g40
tp4273
(lp4274
I2
aI1
aI1
as(S'drama'
p4275
g40
tp4276
(lp4277
I1
aI1
aI3
as(S'single'
p4278
g2
tp4279
(lp4280
I1
aI3
aI8
as(S'honestly'
p4281
g15
tp4282
(lp4283
I1
aI2
aI1
as(S'geographical'
p4284
g2
tp4285
(lp4286
I1
aI2
aI1
as(S'lay-offs'
p4287
g74
tp4288
(lp4289
I1
aI1
aI2
as(S'leave'
p4290
g2
tp4291
(lp4292
I1
aI1
aI2
as(S'technically'
p4293
g15
tp4294
(lp4295
I1
aI2
aI1
as(S'chargeable'
p4296
g2
tp4297
(lp4298
I1
aI1
aI2
as(S'uniformity'
p4299
g40
tp4300
(lp4301
I1
aI1
aI2
as(S'Assistant'
p4302
g2
tp4303
(lp4304
I1
aI2
aI1
as(S'results'
p4305
g74
tp4306
(lp4307
I2
aI1
aI1
as(S'debt'
p4308
g40
tp4309
(lp4310
I2
aI1
aI1
as(S'deployments'
p4311
g74
tp4312
(lp4313
I2
aI1
aI1
as(S'relative'
p4314
g2
tp4315
(lp4316
I1
aI2
aI1
as(S'Often'
p4317
g15
tp4318
(lp4319
I1
aI1
aI3
as(S'conceptual'
p4320
g2
tp4321
(lp4322
I2
aI1
aI1
as(S'Benifits'
p4323
g74
tp4324
(lp4325
I2
aI1
aI1
as(S'steadily'
p4326
g15
tp4327
(lp4328
I1
aI1
aI3
as(S'unidimensional'
p4329
g2
tp4330
(lp4331
I1
aI1
aI2
as(S'little'
p4332
g15
tp4333
(lp4334
I3
aI1
aI18
as(S'perception'
p4335
g40
tp4336
(lp4337
I1
aI2
aI3
as(S'flexible'
p4338
g2
tp4339
(lp4340
I6
aI73
aI12
as(S'immediate'
p4341
g2
tp4342
(lp4343
I1
aI3
aI9
as(S'wing'
p4344
g40
tp4345
(lp4346
I1
aI2
aI1
as(S'creative'
p4347
g2
tp4348
(lp4349
I1
aI5
aI6
as(S'sucks'
p4350
g74
tp4351
(lp4352
I1
aI1
aI3
as(S'various'
p4353
g2
tp4354
(lp4355
I3
aI24
aI11
as(S'co-operative'
p4356
g2
tp4357
(lp4358
I1
aI2
aI1
as(S'personal/work'
p4359
g2
tp4360
(lp4361
I1
aI2
aI1
as(S'Innovative'
p4362
g2
tp4363
(lp4364
I2
aI5
aI1
as(S'soft'
p4365
g2
tp4366
(lp4367
I1
aI2
aI2
as(S'environmentally'
p4368
g15
tp4369
(lp4370
I1
aI2
aI1
as(S'trully'
p4371
g15
tp4372
(lp4373
I1
aI1
aI2
as(S'achiev'
p4374
g40
tp4375
(lp4376
I2
aI1
aI1
as(S"'firm"
p4377
g2
tp4378
(lp4379
I1
aI1
aI2
as(S'in-person'
p4380
g2
tp4381
(lp4382
I1
aI1
aI3
as(S'holistic'
p4383
g2
tp4384
(lp4385
I1
aI1
aI2
as(S'multinational'
p4386
g2
tp4387
(lp4388
I2
aI1
aI1
as(S'personal'
p4389
g2
tp4390
(lp4391
I8
aI37
aI26
as(S'shops'
p4392
g74
tp4393
(lp4394
I2
aI1
aI1
as(S'sage/mentor'
p4395
g40
tp4396
(lp4397
I1
aI1
aI2
as(S'environmental'
p4398
g2
tp4399
(lp4400
I1
aI3
aI1
as(S'manifestly'
p4401
g15
tp4402
(lp4403
I1
aI1
aI3
as(S'juniors'
p4404
g74
tp4405
(lp4406
I1
aI1
aI2
as(S'painful'
p4407
g2
tp4408
(lp4409
I1
aI1
aI2
as(S'lucrative'
p4410
g2
tp4411
(lp4412
I1
aI1
aI2
as(S'time-consuming'
p4413
g2
tp4414
(lp4415
I2
aI1
aI2
as(S'god'
p4416
g2
tp4417
(lp4418
I2
aI1
aI2
as(S'Non-petrotechnical'
p4419
g2
tp4420
(lp4421
I1
aI1
aI2
as(S'mid-size'
p4422
g2
tp4423
(lp4424
I1
aI1
aI2
as(S"n't"
p4425
g15
tp4426
(lp4427
I15
aI49
aI246
as(S'European'
p4428
g2
tp4429
(lp4430
I1
aI2
aI1
as(S'quick-changing'
p4431
g2
tp4432
(lp4433
I1
aI1
aI2
as(S'engineering/design'
p4434
g2
tp4435
(lp4436
I1
aI2
aI1
as(S'professionals'
p4437
g74
tp4438
(lp4439
I3
aI1
aI2
as(S'long'
p4440
g15
tp4441
(lp4442
I4
aI2
aI5
as(S'believable'
p4443
g2
tp4444
(lp4445
I1
aI1
aI2
as(S'same'
p4446
g2
tp4447
(lp4448
I4
aI19
aI40
as(S'American'
p4449
g2
tp4450
(lp4451
I1
aI3
aI2
as(S'profitable'
p4452
g2
tp4453
(lp4454
I1
aI3
aI2
as(S'initial'
p4455
g2
tp4456
(lp4457
I1
aI1
aI3
as(S'vacation'
p4458
g40
tp4459
(lp4460
I1
aI1
aI3
as(S'hierarchical'
p4461
g2
tp4462
(lp4463
I1
aI1
aI3
as(S'families'
p4464
g74
tp4465
(lp4466
I2
aI1
aI1
as(S'randomly'
p4467
g15
tp4468
(lp4469
I1
aI1
aI2
as(S'too'
p4470
g15
tp4471
(lp4472
I14
aI10
aI62
as(S'much/any'
p4473
g2
tp4474
(lp4475
I1
aI1
aI2
as(S'managers/senior'
p4476
g2
tp4477
(lp4478
I1
aI4
aI1
as(S'educative'
p4479
g2
tp4480
(lp4481
I1
aI2
aI1
as(S'resources'
p4482
g74
tp4483
(lp4484
I1
aI1
aI3
as(S'magic'
p4485
g2
tp4486
(lp4487
I1
aI2
aI1
as(S'most'
p4488
S'RBS'
p4489
tp4490
(lp4491
I2
aI17
aI9
as(S'on-campus'
p4492
g2
tp4493
(lp4494
I1
aI2
aI1
as(S'Medical'
p4495
g2
tp4496
(lp4497
I1
aI2
aI2
as(S'Corporation'
p4498
g40
tp4499
(lp4500
I2
aI1
aI1
as(S'obsolete'
p4501
g2
tp4502
(lp4503
I1
aI1
aI2
as(S'blatantly'
p4504
g15
tp4505
(lp4506
I1
aI1
aI2
as(S'intern'
p4507
g2
tp4508
(lp4509
I1
aI1
aI2
as(S'eventually'
p4510
g15
tp4511
(lp4512
I1
aI1
aI5
as(S'work/life'
p4513
g2
tp4514
(lp4515
I1
aI16
aI19
as(S'-Workable'
p4516
g2
tp4517
(lp4518
I1
aI2
aI1
as(S'ideal'
p4519
g2
tp4520
(lp4521
I1
aI2
aI1
as(S'unstable'
p4522
g2
tp4523
(lp4524
I1
aI1
aI4
as(S'raises'
p4525
g74
tp4526
(lp4527
I1
aI1
aI3
as(S'allow'
p4528
g2
tp4529
(lp4530
I1
aI2
aI1
as(S'downsides-'
p4531
g2
tp4532
(lp4533
I1
aI1
aI2
as(S'otherwise'
p4534
g15
tp4535
(lp4536
I2
aI1
aI1
as(S'suffering'
p4537
g40
tp4538
(lp4539
I2
aI1
aI1
as(S'assignment'
p4540
g40
tp4541
(lp4542
I1
aI1
aI2
as(S'still'
p4543
g15
tp4544
(lp4545
I6
aI17
aI29
as(S'uncomfortable'
p4546
g2
tp4547
(lp4548
I1
aI1
aI2
as(S'short'
p4549
g2
tp4550
(lp4551
I4
aI12
aI12
as(S'contractors'
p4552
g74
tp4553
(lp4554
I2
aI1
aI2
as(S'offer'
p4555
g40
tp4556
(lp4557
I1
aI4
aI1
as(S'considerate'
p4558
g2
tp4559
(lp4560
I1
aI2
aI1
as(S'Extremely'
p4561
g15
tp4562
(lp4563
I1
aI4
aI3
as(S'down-to'
p4564
g2
tp4565
(lp4566
I1
aI2
aI1
as(S'sector'
p4567
g40
tp4568
(lp4569
I1
aI1
aI2
as(S'better'
p4570
g162
tp4571
(lp4572
I5
aI2
aI4
as(S'likely'
p4573
g15
tp4574
(lp4575
I1
aI3
aI3
as(S'team-oriented'
p4576
g2
tp4577
(lp4578
I1
aI2
aI1
as(S'limits.Great'
p4579
g2
tp4580
(lp4581
I1
aI2
aI1
as(S'price'
p4582
g40
tp4583
(lp4584
I3
aI1
aI1
as(S'Traditional'
p4585
g2
tp4586
(lp4587
I2
aI1
aI1
as(S'partners'
p4588
g74
tp4589
(lp4590
I1
aI3
aI1
as(S'-Low'
p4591
g2
tp4592
(lp4593
I1
aI1
aI2
as(S'people-oriented'
p4594
g2
tp4595
(lp4596
I1
aI2
aI1
as(S'managerial'
p4597
g2
tp4598
(lp4599
I1
aI1
aI5
as(S'fairly'
p4600
g15
tp4601
(lp4602
I1
aI5
aI7
as(S'Extended'
p4603
g2
tp4604
(lp4605
I1
aI1
aI2
as(S'wildly'
p4606
g15
tp4607
(lp4608
I1
aI1
aI2
as(S'loads'
p4609
g74
tp4610
(lp4611
I1
aI1
aI2
as(S'Repetitive'
p4612
g2
tp4613
(lp4614
I1
aI1
aI3
as(S'Safety'
p4615
g40
tp4616
(lp4617
I1
aI2
aI1
as(S'systemic'
p4618
g2
tp4619
(lp4620
I1
aI1
aI2
as(S'-White'
p4621
g2
tp4622
(lp4623
I1
aI2
aI1
as(S'customers/members'
p4624
g74
tp4625
(lp4626
I2
aI1
aI1
as(S'Sucks'
p4627
g74
tp4628
(lp4629
I2
aI1
aI1
as(S'norm'
p4630
g40
tp4631
(lp4632
I1
aI1
aI2
as(S'court'
p4633
g40
tp4634
(lp4635
I1
aI2
aI1
as(S'downturn'
p4636
g40
tp4637
(lp4638
I1
aI1
aI2
as(S'recently'
p4639
g15
tp4640
(lp4641
I1
aI4
aI4
as(S'pragmatic'
p4642
g2
tp4643
(lp4644
I2
aI1
aI1
as(S'check'
p4645
g40
tp4646
(lp4647
I2
aI1
aI1
as(S'movement'
p4648
g40
tp4649
(lp4650
I1
aI2
aI1
as(S'enough'
p4651
g15
tp4652
(lp4653
I2
aI1
aI19
as(S'schedule'
p4654
g40
tp4655
(lp4656
I2
aI1
aI3
as(S'alternate'
p4657
g2
tp4658
(lp4659
I1
aI1
aI3
as(S'macroscopic'
p4660
g2
tp4661
(lp4662
I1
aI1
aI2
as(S'merger'
p4663
g40
tp4664
(lp4665
I1
aI1
aI2
as(S'Drastic'
p4666
g2
tp4667
(lp4668
I1
aI2
aI1
as(S'hard-to-beat'
p4669
g2
tp4670
(lp4671
I1
aI2
aI1
as(S'stability'
p4672
g40
tp4673
(lp4674
I1
aI1
aI2
as(S'Already'
p4675
g15
tp4676
(lp4677
I1
aI1
aI2
as(S'whole'
p4678
g2
tp4679
(lp4680
I1
aI6
aI4
as(S'diversified'
p4681
g2
tp4682
(lp4683
I1
aI2
aI2
as(S'inflation-based'
p4684
g2
tp4685
(lp4686
I1
aI1
aI2
as(S'Strong'
p4687
g2
tp4688
(lp4689
I3
aI26
aI2
as(S'huge'
p4690
g2
tp4691
(lp4692
I2
aI18
aI24
as(S'equivalents'
p4693
g74
tp4694
(lp4695
I1
aI1
aI2
as(S'knowledgable'
p4696
g2
tp4697
(lp4698
I1
aI4
aI1
as(S'never'
p4699
g15
tp4700
(lp4701
I2
aI13
aI26
as(S'profile'
p4702
g40
tp4703
(lp4704
I2
aI1
aI1
as(S'constant'
p4705
g2
tp4706
(lp4707
I2
aI13
aI17
as(S'way'
p4708
g40
tp4709
(lp4710
I4
aI1
aI1
as(S'Monotonous'
p4711
g2
tp4712
(lp4713
I1
aI1
aI2
as(S'quantifiable'
p4714
g2
tp4715
(lp4716
I1
aI1
aI2
as(S'Retail'
p4717
g2
tp4718
(lp4719
I3
aI2
aI10
as(S'-Career'
p4720
g2
tp4721
(lp4722
I1
aI2
aI1
as(S'leadership'
p4723
g40
tp4724
(lp4725
I2
aI4
aI2
as(S'wear'
p4726
g2
tp4727
(lp4728
I1
aI1
aI2
as(S'attendant'
p4729
g2
tp4730
(lp4731
I1
aI1
aI2
as(S'launchpad'
p4732
g40
tp4733
(lp4734
I2
aI1
aI1
as(S'mutual'
p4735
g2
tp4736
(lp4737
I1
aI3
aI1
as(S'stressful'
p4738
g2
tp4739
(lp4740
I8
aI3
aI4
as(S'indian'
p4741
g2
tp4742
(lp4743
I1
aI1
aI2
as(S'environment'
p4744
g40
tp4745
(lp4746
I18
aI9
aI4
as(S'checks'
p4747
g74
tp4748
(lp4749
I1
aI1
aI2
as(S'pressure'
p4750
g40
tp4751
(lp4752
I2
aI1
aI3
as(S'inspirational'
p4753
g2
tp4754
(lp4755
I1
aI2
aI1
as(S'non-intuitive'
p4756
g2
tp4757
(lp4758
I1
aI1
aI2
as(S'terrific'
p4759
g2
tp4760
(lp4761
I2
aI2
aI1
as(S'nice'
p4762
g2
tp4763
(lp4764
I10
aI29
aI4
as(S'compensation'
p4765
g40
tp4766
(lp4767
I4
aI1
aI4
as(S'Few'
p4768
g2
tp4769
(lp4770
I1
aI1
aI3
as(S'rapidly'
p4771
g15
tp4772
(lp4773
I1
aI3
aI2
as(S'senior-most'
p4774
g2
tp4775
(lp4776
I1
aI2
aI1
as(S'dynamic'
p4777
g2
tp4778
(lp4779
I3
aI5
aI2
as(S'terrible'
p4780
g2
tp4781
(lp4782
I3
aI1
aI6
as(S'power'
p4783
g40
tp4784
(lp4785
I1
aI1
aI3
as(S'IBM-paid'
p4786
g2
tp4787
(lp4788
I1
aI2
aI1
as(S'lifestyle'
p4789
g2
tp4790
(lp4791
I2
aI1
aI1
as(S'properly'
p4792
g15
tp4793
(lp4794
I1
aI2
aI2
as(S'ample'
p4795
g2
tp4796
(lp4797
I2
aI6
aI1
as(S'long-term'
p4798
g2
tp4799
(lp4800
I5
aI2
aI2
as(S'backgrounds'
p4801
g74
tp4802
(lp4803
I1
aI2
aI1
as(S'worth'
p4804
g40
tp4805
(lp4806
I1
aI2
aI1
as(S'unhappy'
p4807
g2
tp4808
(lp4809
I1
aI1
aI2
as(S'low'
p4810
g2
tp4811
(lp4812
I7
aI9
aI44
as(S'later'
p4813
g2
tp4814
(lp4815
I1
aI2
aI4
as(S'Wok/life'
p4816
g2
tp4817
(lp4818
I1
aI2
aI1
as(S'Relative'
p4819
g2
tp4820
(lp4821
I1
aI1
aI2
as(S'just'
p4822
g15
tp4823
(lp4824
I4
aI8
aI25
as(S'non-management'
p4825
g2
tp4826
(lp4827
I1
aI1
aI3
as(S'track'
p4828
g40
tp4829
(lp4830
I2
aI1
aI1
as(S'workweek'
p4831
g40
tp4832
(lp4833
I2
aI1
aI1
as(S'bosses'
p4834
g74
tp4835
(lp4836
I2
aI1
aI1
as(S'revolutionary'
p4837
g2
tp4838
(lp4839
I1
aI2
aI1
as(S'decently'
p4840
g15
tp4841
(lp4842
I1
aI1
aI2
as(S'etc'
p4843
g40
tp4844
(lp4845
I1
aI1
aI3
as(S'minded'
p4846
g2
tp4847
(lp4848
I1
aI2
aI1
as(S'successful'
p4849
g2
tp4850
(lp4851
I1
aI3
aI2
as(S'difference'
p4852
g40
tp4853
(lp4854
I3
aI1
aI2
as(S'Junior-level'
p4855
g2
tp4856
(lp4857
I1
aI1
aI3
as(S'Also'
p4858
g15
tp4859
(lp4860
I1
aI2
aI2
as(S'ahead'
p4861
g15
tp4862
(lp4863
I2
aI1
aI1
as(S'sharp'
p4864
g2
tp4865
(lp4866
I1
aI6
aI1
as(S'geographic'
p4867
g2
tp4868
(lp4869
I1
aI4
aI2
as(S'virtual'
p4870
g2
tp4871
(lp4872
I1
aI1
aI3
as(S'economy'
p4873
g40
tp4874
(lp4875
I2
aI1
aI2
as(S'entitlement'
p4876
g40
tp4877
(lp4878
I2
aI1
aI1
as(S'highly-qualified'
p4879
g2
tp4880
(lp4881
I1
aI1
aI2
as(S'attrition'
p4882
g40
tp4883
(lp4884
I2
aI1
aI1
as(S'system'
p4885
g40
tp4886
(lp4887
I2
aI1
aI3
as(S'future'
p4888
g40
tp4889
(lp4890
I2
aI1
aI1
as(S'Confortable'
p4891
g2
tp4892
(lp4893
I2
aI1
aI1
as(S'Incredible'
p4894
g2
tp4895
(lp4896
I3
aI3
aI1
as(S'corporation'
p4897
g40
tp4898
(lp4899
I2
aI1
aI2
as(S'company/inflexible'
p4900
g2
tp4901
(lp4902
I1
aI1
aI2
as(S'unexpectly'
p4903
g15
tp4904
(lp4905
I1
aI1
aI2
as(S'prices'
p4906
g74
tp4907
(lp4908
I1
aI1
aI2
as(S'Basically'
p4909
g15
tp4910
(lp4911
I1
aI2
aI1
as(S'not-that-critical'
p4912
g2
tp4913
(lp4914
I1
aI1
aI2
as(S'safe'
p4915
g2
tp4916
(lp4917
I2
aI1
aI1
as(S'uniuque'
p4918
g2
tp4919
(lp4920
I1
aI1
aI2
as(S'-Diverse'
p4921
g2
tp4922
(lp4923
I1
aI2
aI1
as(S'tight'
p4924
g2
tp4925
(lp4926
I1
aI2
aI8
as(S'nothing'
p4927
g40
tp4928
(lp4929
I1
aI2
aI5
as(S'quick'
p4930
g2
tp4931
(lp4932
I2
aI1
aI2
as(S'unpolished'
p4933
g2
tp4934
(lp4935
I1
aI1
aI2
as(S'restrictedly'
p4936
g15
tp4937
(lp4938
I1
aI1
aI2
as(S'hit'
p4939
g40
tp4940
(lp4941
I2
aI1
aI1
as(S'directly'
p4942
g15
tp4943
(lp4944
I1
aI2
aI1
as(S'mobility'
p4945
g40
tp4946
(lp4947
I2
aI1
aI1
as(S'hate'
p4948
g2
tp4949
(lp4950
I1
aI1
aI2
as(S'nimble'
p4951
g2
tp4952
(lp4953
I1
aI1
aI2
as(S'old'
p4954
g2
tp4955
(lp4956
I3
aI1
aI30
as(S'america'
p4957
g40
tp4958
(lp4959
I3
aI1
aI1
as(S'high'
p4960
g2
tp4961
(lp4962
I12
aI56
aI63
as(S'first'
p4963
g15
tp4964
(lp4965
I3
aI2
aI4
as(S'Explosive'
p4966
g2
tp4967
(lp4968
I1
aI1
aI2
as(S'potential'
p4969
g2
tp4970
(lp4971
I2
aI4
aI4
as(S'Just'
p4972
g15
tp4973
(lp4974
I2
aI2
aI1
as(S'routine'
p4975
g40
tp4976
(lp4977
I1
aI1
aI2
as(S'dual-case'
p4978
g2
tp4979
(lp4980
I1
aI1
aI2
as(S'growth.Good'
p4981
g2
tp4982
(lp4983
I1
aI2
aI1
as(S'heavy'
p4984
g2
tp4985
(lp4986
I3
aI4
aI12
as(S'cincy'
p4987
g40
tp4988
(lp4989
I2
aI1
aI1
as(S'-Promised'
p4990
g2
tp4991
(lp4992
I1
aI1
aI2
as(S'mouth'
p4993
g40
tp4994
(lp4995
I2
aI1
aI1
as(S'activities'
p4996
g74
tp4997
(lp4998
I1
aI1
aI3
as(S'demands'
p4999
g74
tp5000
(lp5001
I1
aI1
aI2
as(S'Esential'
p5002
g2
tp5003
(lp5004
I2
aI1
aI1
as(S'trajectory'
p5005
g40
tp5006
(lp5007
I2
aI1
aI1
as(S'Several'
p5008
g2
tp5009
(lp5010
I1
aI1
aI4
as(S'everywhere'
p5011
g15
tp5012
(lp5013
I1
aI2
aI1
as(S'Unsupportive'
p5014
g2
tp5015
(lp5016
I1
aI1
aI2
as(S'Oddly'
p5017
g15
tp5018
(lp5019
I2
aI1
aI1
as(S'activites'
p5020
g74
tp5021
(lp5022
I1
aI2
aI1
as(S'gr'
p5023
g40
tp5024
(lp5025
I2
aI1
aI1
as(S'area'
p5026
g40
tp5027
(lp5028
I1
aI1
aI5
as(S'satisfaction'
p5029
g40
tp5030
(lp5031
I1
aI1
aI3
as(S'Excessive'
p5032
g2
tp5033
(lp5034
I1
aI1
aI4
as(S'redundancy'
p5035
g40
tp5036
(lp5037
I1
aI1
aI2
as(S'beach'
p5038
g40
tp5039
(lp5040
I1
aI1
aI3
as(S'collegian'
p5041
g2
tp5042
(lp5043
I1
aI2
aI1
as(S'quickly'
p5044
g15
tp5045
(lp5046
I1
aI5
aI2
as(S'defintely'
p5047
g15
tp5048
(lp5049
I1
aI2
aI1
as(S'customers'
p5050
g74
tp5051
(lp5052
I1
aI1
aI2
as(S'Hectic'
p5053
g2
tp5054
(lp5055
I1
aI1
aI3
as(S'-customer'
p5056
g2
tp5057
(lp5058
I1
aI2
aI1
as(S'Late'
p5059
g15
tp5060
(lp5061
I1
aI1
aI2
as(S'famous'
p5062
g2
tp5063
(lp5064
I1
aI3
aI1
as(S'Truely'
p5065
g15
tp5066
(lp5067
I2
aI1
aI1
as(S'uncompetence'
p5068
g40
tp5069
(lp5070
I1
aI1
aI2
as(S'messy'
p5071
g2
tp5072
(lp5073
I1
aI1
aI2
as(S'Analyst'
p5074
g40
tp5075
(lp5076
I2
aI1
aI1
as(S'yesterday'
p5077
g40
tp5078
(lp5079
I1
aI1
aI2
as(S'yo'
p5080
g40
tp5081
(lp5082
I2
aI1
aI1
as(S'discipline'
p5083
g40
tp5084
(lp5085
I2
aI1
aI1
as(S'store..excellent'
p5086
g2
tp5087
(lp5088
I2
aI1
aI1
as(S'follower'
p5089
g40
tp5090
(lp5091
I1
aI1
aI2
as(S'be'
p5092
g40
tp5093
(lp5094
I2
aI1
aI1
as(S'Internship'
p5095
g40
tp5096
(lp5097
I2
aI1
aI1
as(S'further'
p5098
g2
tp5099
(lp5100
I2
aI2
aI3
as(S'guilty'
p5101
g2
tp5102
(lp5103
I2
aI1
aI1
as(S'lucky'
p5104
g2
tp5105
(lp5106
I2
aI2
aI4
as(S'throughbe'
p5107
g40
tp5108
(lp5109
I1
aI1
aI2
as(S'dogs'
p5110
g74
tp5111
(lp5112
I1
aI1
aI3
as(S'inititative'
p5113
g2
tp5114
(lp5115
I1
aI1
aI2
as(S'mostly'
p5116
g15
tp5117
(lp5118
I3
aI6
aI4
as(S'NY-based'
p5119
g2
tp5120
(lp5121
I1
aI2
aI1
as(S'habitual'
p5122
g2
tp5123
(lp5124
I1
aI2
aI1
as(S'quite'
p5125
g15
tp5126
(lp5127
I2
aI6
aI19
as(S'Entreprenuerial'
p5128
g2
tp5129
(lp5130
I1
aI2
aI1
as(S'sales/service'
p5131
g2
tp5132
(lp5133
I1
aI1
aI2
as(S'masters'
p5134
g74
tp5135
(lp5136
I2
aI1
aI1
as(S'cost'
p5137
g40
tp5138
(lp5139
I1
aI2
aI1
as(S'personally'
p5140
g15
tp5141
(lp5142
I1
aI2
aI2
as(S'office'
p5143
g40
tp5144
(lp5145
I1
aI2
aI4
as(S'Uncompetitive'
p5146
g2
tp5147
(lp5148
I1
aI1
aI3
as(S'approachable'
p5149
g2
tp5150
(lp5151
I1
aI7
aI1
as(S'Impressive'
p5152
g2
tp5153
(lp5154
I2
aI1
aI1
as(S'meetings'
p5155
g74
tp5156
(lp5157
I1
aI2
aI2
as(S'highway,'
p5158
g2
tp5159
(lp5160
I1
aI1
aI2
as(S'Significant'
p5161
g2
tp5162
(lp5163
I2
aI4
aI3
as(S'unemployment'
p5164
g40
tp5165
(lp5166
I2
aI1
aI1
as(S'NOT'
p5167
g15
tp5168
(lp5169
I1
aI1
aI3
as(S'mouthed'
p5170
g2
tp5171
(lp5172
I1
aI1
aI2
as(S'specifically'
p5173
g15
tp5174
(lp5175
I1
aI2
aI1
as(S'medical'
p5176
g2
tp5177
(lp5178
I1
aI8
aI2
as(S'private'
p5179
g2
tp5180
(lp5181
I1
aI5
aI4
as(S'spills'
p5182
g74
tp5183
(lp5184
I1
aI1
aI2
as(S'professional'
p5185
g2
tp5186
(lp5187
I15
aI44
aI14
as(S'technological'
p5188
g2
tp5189
(lp5190
I1
aI3
aI1
as(S'idiot-proofing'
p5191
g2
tp5192
(lp5193
I1
aI1
aI2
as(S'values'
p5194
g74
tp5195
(lp5196
I2
aI1
aI1
as(S'judicious'
p5197
g2
tp5198
(lp5199
I1
aI1
aI2
as(S'fast-growing'
p5200
g2
tp5201
(lp5202
I2
aI1
aI1
as(S'-Flat'
p5203
g2
tp5204
(lp5205
I1
aI2
aI1
as(S'healthy'
p5206
g2
tp5207
(lp5208
I1
aI3
aI3
as(S'warts'
p5209
g74
tp5210
(lp5211
I2
aI1
aI1
as(S'break-through'
p5212
g2
tp5213
(lp5214
I1
aI1
aI2
as(S'work-related'
p5215
g2
tp5216
(lp5217
I1
aI1
aI2
as(S'manger/owner'
p5218
g2
tp5219
(lp5220
I1
aI1
aI2
as(S'ridiculously'
p5221
g15
tp5222
(lp5223
I1
aI2
aI2
as(S'Authorative'
p5224
g2
tp5225
(lp5226
I1
aI1
aI2
as(S'livable'
p5227
g2
tp5228
(lp5229
I1
aI2
aI1
as(S'*Senior'
p5230
g2
tp5231
(lp5232
I1
aI1
aI2
as(S'family'
p5233
g40
tp5234
(lp5235
I3
aI1
aI2
as(S'cold'
p5236
g2
tp5237
(lp5238
I1
aI1
aI3
as(S'Always'
p5239
g15
tp5240
(lp5241
I1
aI3
aI4
as(S'Bureaucratic'
p5242
g2
tp5243
(lp5244
I1
aI1
aI2
as(S'topics'
p5245
g74
tp5246
(lp5247
I2
aI1
aI1
as(S'several'
p5248
g2
tp5249
(lp5250
I1
aI10
aI9
as(S'analyst'
p5251
g40
tp5252
(lp5253
I4
aI1
aI1
as(S'Tremendous'
p5254
g2
tp5255
(lp5256
I1
aI2
aI1
as(S'persuasive'
p5257
g2
tp5258
(lp5259
I1
aI1
aI2
as(S'feel'
p5260
g40
tp5261
(lp5262
I1
aI2
aI1
as(S'back'
p5263
g15
tp5264
(lp5265
I1
aI4
aI3
as(S'thing'
p5266
g40
tp5267
(lp5268
I2
aI2
aI1
as(S'communications'
p5269
g74
tp5270
(lp5271
I1
aI2
aI1
as(S'group-company'
p5272
g2
tp5273
(lp5274
I1
aI2
aI1
as(S'domestic'
p5275
g2
tp5276
(lp5277
I1
aI1
aI2
as(S'teammates'
p5278
g74
tp5279
(lp5280
I1
aI1
aI3
as(S'tremendous'
p5281
g2
tp5282
(lp5283
I2
aI6
aI5
as(S'strictly'
p5284
g15
tp5285
(lp5286
I1
aI2
aI3
as(S'steady'
p5287
g2
tp5288
(lp5289
I1
aI2
aI3
as(S'coaster'
p5290
g40
tp5291
(lp5292
I2
aI1
aI1
as(S'fun'
p5293
g40
tp5294
(lp5295
I3
aI1
aI1
as(S'crafts-people'
p5296
g2
tp5297
(lp5298
I1
aI2
aI1
as(S'friendly'
p5299
g2
tp5300
(lp5301
I3
aI9
aI5
as(S'way-too-big'
p5302
g2
tp5303
(lp5304
I1
aI1
aI3
as(S'3rd'
p5305
g2
tp5306
(lp5307
I1
aI1
aI2
as(S'pay'
p5308
g40
tp5309
(lp5310
I7
aI1
aI6
as(S'high-margin'
p5311
g2
tp5312
(lp5313
I1
aI1
aI2
as(S'lifestyle'
p5314
g40
tp5315
(lp5316
I1
aI3
aI1
as(S'middle-management'
p5317
g2
tp5318
(lp5319
I1
aI1
aI3
as(S'engineer'
p5320
g40
tp5321
(lp5322
I8
aI1
aI1
as(S'many'
p5323
g2
tp5324
(lp5325
I23
aI89
aI153
as(S'formal'
p5326
g2
tp5327
(lp5328
I1
aI5
aI11
as(S'innnovative'
p5329
g2
tp5330
(lp5331
I1
aI1
aI2
as(S'stupid'
p5332
g2
tp5333
(lp5334
I1
aI1
aI4
as(S'Effective'
p5335
g2
tp5336
(lp5337
I1
aI2
aI1
as(S'v'
p5338
g40
tp5339
(lp5340
I1
aI2
aI1
as(S'Average'
p5341
g2
tp5342
(lp5343
I3
aI2
aI5
as(S'such'
p5344
g2
tp5345
(lp5346
I1
aI6
aI8
as(S'risk-averse'
p5347
g2
tp5348
(lp5349
I1
aI2
aI1
as(S'Growth'
p5350
g40
tp5351
(lp5352
I2
aI1
aI1
as(S'ibm'
p5353
g40
tp5354
(lp5355
I2
aI1
aI1
as(S'very'
p5356
g15
tp5357
(lp5358
I44
aI211
aI195
as(S'non-existent'
p5359
g2
tp5360
(lp5361
I1
aI1
aI3
as(S'noticeable'
p5362
g2
tp5363
(lp5364
I1
aI1
aI3
as(S'next-level'
p5365
g2
tp5366
(lp5367
I2
aI1
aI1
as(S'walmart'
p5368
g40
tp5369
(lp5370
I2
aI1
aI1
as(S'face-to-face'
p5371
g2
tp5372
(lp5373
I1
aI1
aI2
as(S'engineering'
p5374
g40
tp5375
(lp5376
I1
aI1
aI2
as(S'formally'
p5377
g15
tp5378
(lp5379
I1
aI1
aI2
as(S'brilliant'
p5380
g2
tp5381
(lp5382
I1
aI3
aI2
as(S'Sterile'
p5383
g2
tp5384
(lp5385
I1
aI1
aI2
as(S'tiny'
p5386
g2
tp5387
(lp5388
I1
aI1
aI3
as(S'obviously'
p5389
g15
tp5390
(lp5391
I1
aI2
aI1
as(S'stress'
p5392
g40
tp5393
(lp5394
I1
aI1
aI5
as(S'mobile'
p5395
g2
tp5396
(lp5397
I2
aI5
aI2
as(S'mindset'
p5398
g40
tp5399
(lp5400
I1
aI2
aI1
as(S'profitability'
p5401
g40
tp5402
(lp5403
I1
aI1
aI2
as(S'benefit'
p5404
g40
tp5405
(lp5406
I1
aI2
aI1
as(S'competent'
p5407
g2
tp5408
(lp5409
I4
aI1
aI2
as(S'null'
p5410
g2
tp5411
(lp5412
I1
aI2
aI1
as(S'comforts'
p5413
g74
tp5414
(lp5415
I1
aI1
aI2
as(S'easily'
p5416
g15
tp5417
(lp5418
I2
aI6
aI10
as(S'OK'
p5419
g40
tp5420
(lp5421
I3
aI1
aI1
as(S'paymaster'
p5422
g40
tp5423
(lp5424
I2
aI1
aI1
as(S'situation'
p5425
g40
tp5426
(lp5427
I2
aI1
aI3
as(S'historically'
p5428
g15
tp5429
(lp5430
I1
aI2
aI1
as(S'kid'
p5431
g2
tp5432
(lp5433
I1
aI2
aI1
as(S'burden'
p5434
g40
tp5435
(lp5436
I1
aI1
aI2
as(S'-Steep'
p5437
g2
tp5438
(lp5439
I1
aI2
aI1
as(S'Half-baked'
p5440
g2
tp5441
(lp5442
I1
aI1
aI2
as(S'industry-lead'
p5443
g2
tp5444
(lp5445
I2
aI1
aI1
as(S'special'
p5446
g2
tp5447
(lp5448
I1
aI1
aI2
as(S'engineering/science'
p5449
g2
tp5450
(lp5451
I1
aI2
aI1
as(S'continuously'
p5452
g15
tp5453
(lp5454
I1
aI2
aI5
as(S'tricky'
p5455
g2
tp5456
(lp5457
I1
aI2
aI1
as(S'entreprenurial'
p5458
g2
tp5459
(lp5460
I1
aI2
aI1
as(S'external'
p5461
g2
tp5462
(lp5463
I1
aI7
aI2
as(S'routine'
p5464
g2
tp5465
(lp5466
I2
aI1
aI1
as(S'Amazingly'
p5467
g15
tp5468
(lp5469
I1
aI2
aI1
as(S'obsessive'
p5470
g2
tp5471
(lp5472
I1
aI2
aI1
as(S'Consistently'
p5473
g15
tp5474
(lp5475
I1
aI2
aI1
as(S'-RD'
p5476
g2
tp5477
(lp5478
I1
aI1
aI2
as(S'Terrible'
p5479
g2
tp5480
(lp5481
I1
aI1
aI4
as(S'radical'
p5482
g2
tp5483
(lp5484
I1
aI2
aI1
as(S'mora'
p5485
g40
tp5486
(lp5487
I2
aI1
aI1
as(S'guest/customer'
p5488
g2
tp5489
(lp5490
I1
aI1
aI2
as(S'blocks'
p5491
g74
tp5492
(lp5493
I1
aI1
aI2
as(S'varied'
p5494
g2
tp5495
(lp5496
I1
aI3
aI1
as(S'evil'
p5497
g2
tp5498
(lp5499
I1
aI1
aI4
as(S'next'
p5500
g2
tp5501
(lp5502
I1
aI7
aI20
as(S'sick/personal'
p5503
g2
tp5504
(lp5505
I1
aI3
aI1
as(S'Siginificant'
p5506
g2
tp5507
(lp5508
I1
aI2
aI1
as(S'making/closing'
p5509
g2
tp5510
(lp5511
I1
aI1
aI3
as(S'menial'
p5512
g2
tp5513
(lp5514
I1
aI1
aI2
as(S'paths'
p5515
g74
tp5516
(lp5517
I2
aI1
aI1
as(S'fundamentals'
p5518
g74
tp5519
(lp5520
I2
aI1
aI1
as(S'unprofessional'
p5521
g2
tp5522
(lp5523
I1
aI1
aI2
as(S'developers'
p5524
g74
tp5525
(lp5526
I2
aI1
aI1
as(S'identity'
p5527
g40
tp5528
(lp5529
I1
aI1
aI2
as(S'th'
p5530
g40
tp5531
(lp5532
I2
aI1
aI1
as(S'Global'
p5533
g2
tp5534
(lp5535
I3
aI12
aI2
as(S'specific'
p5536
g2
tp5537
(lp5538
I1
aI3
aI6
as(S'stay'
p5539
g40
tp5540
(lp5541
I2
aI1
aI1
as(S'functionally'
p5542
g15
tp5543
(lp5544
I1
aI1
aI2
as(S'quantitative'
p5545
g2
tp5546
(lp5547
I1
aI2
aI3
as(S'ongoing'
p5548
g2
tp5549
(lp5550
I1
aI3
aI1
as(S'wha'
p5551
g40
tp5552
(lp5553
I2
aI1
aI1
as(S'package'
p5554
g40
tp5555
(lp5556
I3
aI1
aI1
as(S'engaging'
p5557
g2
tp5558
(lp5559
I1
aI2
aI1
as(S'short-term'
p5560
g2
tp5561
(lp5562
I1
aI2
aI3
as(S'effectively'
p5563
g15
tp5564
(lp5565
I1
aI1
aI3
as(S'on-demand'
p5566
g2
tp5567
(lp5568
I1
aI2
aI1
as(S'hard-hitting'
p5569
g2
tp5570
(lp5571
I1
aI2
aI1
as(S'unit'
p5572
g40
tp5573
(lp5574
I1
aI1
aI2
as(S'flexibility/mobile'
p5575
g2
tp5576
(lp5577
I1
aI2
aI1
as(S'stone'
p5578
g40
tp5579
(lp5580
I3
aI1
aI1
as(S'cisco'
p5581
g40
tp5582
(lp5583
I2
aI1
aI1
as(S'extracurricular'
p5584
g2
tp5585
(lp5586
I1
aI4
aI1
as(S'big'
p5587
g2
tp5588
(lp5589
I11
aI48
aI58
as(S'justifiable'
p5590
g2
tp5591
(lp5592
I1
aI1
aI2
as(S'documents'
p5593
g74
tp5594
(lp5595
I1
aI1
aI2
as(S'bp'
p5596
g40
tp5597
(lp5598
I2
aI1
aI1
as(S'mature'
p5599
g40
tp5600
(lp5601
I1
aI1
aI2
as(S'Not'
p5602
g15
tp5603
(lp5604
I6
aI5
aI32
as(S'stre'
p5605
g40
tp5606
(lp5607
I2
aI1
aI1
as(S'blue'
p5608
g2
tp5609
(lp5610
I1
aI3
aI3
as(S'truly'
p5611
g15
tp5612
(lp5613
I2
aI6
aI5
as(S'seem'
p5614
g40
tp5615
(lp5616
I1
aI1
aI2
as(S'end-user'
p5617
g2
tp5618
(lp5619
I1
aI2
aI1
as(S'burning'
p5620
g40
tp5621
(lp5622
I2
aI1
aI1
as(S'technician'
p5623
g40
tp5624
(lp5625
I2
aI1
aI1
as(S'rough'
p5626
g2
tp5627
(lp5628
I1
aI3
aI1
as(S'Ever'
p5629
g15
tp5630
(lp5631
I3
aI1
aI1
as(S'depts'
p5632
g74
tp5633
(lp5634
I1
aI1
aI2
as(S'prestigious'
p5635
g2
tp5636
(lp5637
I1
aI2
aI1
as(S'gyms'
p5638
g74
tp5639
(lp5640
I1
aI2
aI1
as(S'forcing'
p5641
g2
tp5642
(lp5643
I1
aI1
aI2
as(S'primary'
p5644
g2
tp5645
(lp5646
I1
aI1
aI4
as(S'neccesarily'
p5647
g15
tp5648
(lp5649
I2
aI1
aI1
as(S'inadequate'
p5650
g2
tp5651
(lp5652
I1
aI1
aI3
as(S'design'
p5653
g40
tp5654
(lp5655
I2
aI1
aI2
as(S'early'
p5656
g2
tp5657
(lp5658
I2
aI6
aI3
as(S'pl'
p5659
g40
tp5660
(lp5661
I2
aI1
aI1
as(S'network-driven'
p5662
g2
tp5663
(lp5664
I1
aI1
aI2
as(S'cutthroat'
p5665
g2
tp5666
(lp5667
I1
aI2
aI1
as(S'delays'
p5668
g74
tp5669
(lp5670
I1
aI1
aI2
as(S'unpredictable'
p5671
g2
tp5672
(lp5673
I1
aI1
aI5
as(S'leading-edge'
p5674
g2
tp5675
(lp5676
I1
aI2
aI1
as(S'Flexible'
p5677
g2
tp5678
(lp5679
I2
aI38
aI2
as(S'Total'
p5680
g2
tp5681
(lp5682
I1
aI5
aI2
as(S'incentive'
p5683
g2
tp5684
(lp5685
I1
aI1
aI2
as(S'Aggressive'
p5686
g2
tp5687
(lp5688
I1
aI2
aI1
as(S'super'
p5689
g2
tp5690
(lp5691
I1
aI1
aI2
as(S'Constantly'
p5692
g15
tp5693
(lp5694
I1
aI3
aI2
as(S'offshoring'
p5695
g40
tp5696
(lp5697
I1
aI1
aI2
as(S'Collaborative'
p5698
g2
tp5699
(lp5700
I2
aI2
aI1
as(S'Socially'
p5701
g15
tp5702
(lp5703
I1
aI4
aI2
as(S'tightly'
p5704
g15
tp5705
(lp5706
I1
aI2
aI2
as(S'colleagues'
p5707
g74
tp5708
(lp5709
I3
aI1
aI2
as(S'position'
p5710
g40
tp5711
(lp5712
I1
aI1
aI3
as(S'churn'
p5713
g40
tp5714
(lp5715
I2
aI1
aI1
as(S'client-serving'
p5716
g2
tp5717
(lp5718
I1
aI1
aI2
as(S'families/children/other'
p5719
g2
tp5720
(lp5721
I1
aI1
aI2
as(S'Personal'
p5722
g2
tp5723
(lp5724
I6
aI1
aI2
as(S'analytical'
p5725
g2
tp5726
(lp5727
I1
aI2
aI2
as(S'mid/upper'
p5728
g2
tp5729
(lp5730
I1
aI1
aI2
as(S'non-client'
p5731
g2
tp5732
(lp5733
I1
aI3
aI1
as(S'predictable'
p5734
g2
tp5735
(lp5736
I2
aI1
aI1
as(S'productive'
p5737
g2
tp5738
(lp5739
I1
aI3
aI1
as(S'authoritative'
p5740
g2
tp5741
(lp5742
I1
aI2
aI1
as(S'unlike'
p5743
g2
tp5744
(lp5745
I1
aI1
aI2
as(S'friendly.Great'
p5746
g2
tp5747
(lp5748
I1
aI2
aI1
as(S'locomotive'
p5749
g2
tp5750
(lp5751
I1
aI2
aI1
as(S'proverbial'
p5752
g2
tp5753
(lp5754
I1
aI1
aI2
as(S'consulting'
p5755
g40
tp5756
(lp5757
I3
aI1
aI2
as(S'high-performing'
p5758
g2
tp5759
(lp5760
I1
aI2
aI2
as(S'non-essential'
p5761
g2
tp5762
(lp5763
I1
aI1
aI2
as(S'horizontal'
p5764
g2
tp5765
(lp5766
I1
aI1
aI3
as(S'wor'
p5767
g40
tp5768
(lp5769
I2
aI1
aI1
as(S'yields'
p5770
g74
tp5771
(lp5772
I1
aI1
aI2
as(S'exciting'
p5773
g2
tp5774
(lp5775
I1
aI5
aI1
as(S'committee'
p5776
g40
tp5777
(lp5778
I1
aI1
aI3
as(S'VP/Director/MD'
p5779
g2
tp5780
(lp5781
I1
aI2
aI1
as(S'off-site'
p5782
g2
tp5783
(lp5784
I1
aI2
aI1
as(S'accessible'
p5785
g2
tp5786
(lp5787
I1
aI2
aI1
as(S'future'
p5788
g2
tp5789
(lp5790
I4
aI8
aI5
as(S'concentrated'
p5791
g2
tp5792
(lp5793
I1
aI1
aI2
as(S'budgets'
p5794
g74
tp5795
(lp5796
I1
aI1
aI2
as(S'average'
p5797
g40
tp5798
(lp5799
I1
aI1
aI2
as(S'Great'
p5800
g2
tp5801
(lp5802
I2
aI13
aI1
as(S'decline'
p5803
g40
tp5804
(lp5805
I2
aI1
aI1
as(S'inclusive'
p5806
g2
tp5807
(lp5808
I2
aI2
aI3
as(S'engaged'
p5809
g2
tp5810
(lp5811
I2
aI1
aI1
as(S'aggressively'
p5812
g15
tp5813
(lp5814
I1
aI2
aI2
as(S'rather'
p5815
g15
tp5816
(lp5817
I2
aI3
aI5
as(S'Clients'
p5818
g74
tp5819
(lp5820
I2
aI1
aI1
as(S'constatly'
p5821
g15
tp5822
(lp5823
I1
aI1
aI2
as(S'great'
p5824
g2
tp5825
(lp5826
I199
aI393
aI47
as(S'Georgaphical'
p5827
g2
tp5828
(lp5829
I1
aI2
aI1
as(S'Economic'
p5830
g2
tp5831
(lp5832
I1
aI1
aI3
as(S'lean'
p5833
g2
tp5834
(lp5835
I1
aI3
aI5
as(S'grow'
p5836
g40
tp5837
(lp5838
I5
aI1
aI1
as(S'history'
p5839
g40
tp5840
(lp5841
I1
aI1
aI2
as(S'Unstable'
p5842
g2
tp5843
(lp5844
I3
aI1
aI1
as(S'easy'
p5845
g2
tp5846
(lp5847
I1
aI9
aI4
as(S'performance'
p5848
g40
tp5849
(lp5850
I2
aI1
aI3
as(S'Competetive'
p5851
g2
tp5852
(lp5853
I1
aI2
aI1
as(S'original'
p5854
g2
tp5855
(lp5856
I1
aI1
aI2
as(S'globally'
p5857
g15
tp5858
(lp5859
I1
aI3
aI2
as(S'reputable'
p5860
g2
tp5861
(lp5862
I2
aI3
aI1
as(S'care'
p5863
g40
tp5864
(lp5865
I2
aI1
aI1
as(S'training/learning'
p5866
g2
tp5867
(lp5868
I1
aI2
aI1
as(S'greatly'
p5869
g15
tp5870
(lp5871
I1
aI1
aI2
as(S'numerous'
p5872
g2
tp5873
(lp5874
I1
aI5
aI3
as(S'down-to-earth'
p5875
g2
tp5876
(lp5877
I2
aI2
aI1
as(S'-challenging'
p5878
g2
tp5879
(lp5880
I1
aI2
aI1
as(S'manager/employee'
p5881
g2
tp5882
(lp5883
I1
aI1
aI2
as(S'fat'
p5884
g2
tp5885
(lp5886
I1
aI1
aI2
as(S'merly'
p5887
g15
tp5888
(lp5889
I1
aI2
aI1
as(S'cultural'
p5890
g2
tp5891
(lp5892
I2
aI5
aI2
as(S'o.t'
p5893
g2
tp5894
(lp5895
I1
aI2
aI2
as(S'loyal'
p5896
g2
tp5897
(lp5898
I1
aI2
aI2
as(S'arrogant'
p5899
g2
tp5900
(lp5901
I1
aI1
aI2
as(S'optimal'
p5902
g2
tp5903
(lp5904
I1
aI1
aI2
as(S'workers'
p5905
g74
tp5906
(lp5907
I4
aI1
aI1
as(S'plastic'
p5908
g2
tp5909
(lp5910
I1
aI2
aI1
as(S'informally'
p5911
g15
tp5912
(lp5913
I1
aI2
aI1
as(S'times'
p5914
g74
tp5915
(lp5916
I5
aI1
aI9
as(S'sales'
p5917
g74
tp5918
(lp5919
I2
aI1
aI5
as(S'cons'
p5920
g74
tp5921
(lp5922
I5
aI1
aI4
as(S'philanthropic'
p5923
g2
tp5924
(lp5925
I1
aI2
aI1
as(S'skill'
p5926
g40
tp5927
(lp5928
I1
aI1
aI2
as(S'hats'
p5929
g74
tp5930
(lp5931
I1
aI1
aI2
as(S'main'
p5932
g2
tp5933
(lp5934
I1
aI4
aI4
as(S'circumstances'
p5935
g74
tp5936
(lp5937
I2
aI1
aI1
as(S'considerably'
p5938
g15
tp5939
(lp5940
I1
aI1
aI2
as(S'previously'
p5941
g15
tp5942
(lp5943
I1
aI1
aI2
as(S'decision'
p5944
g40
tp5945
(lp5946
I1
aI1
aI2
as(S'ever-changing'
p5947
g2
tp5948
(lp5949
I2
aI1
aI1
as(S'consultancy'
p5950
g40
tp5951
(lp5952
I1
aI1
aI2
as(S'yet'
p5953
g15
tp5954
(lp5955
I3
aI2
aI1
as(S'-growing'
p5956
g2
tp5957
(lp5958
I1
aI2
aI1
as(S'much'
p5959
g15
tp5960
(lp5961
I1
aI2
aI24
as(S'downtime'
p5962
g40
tp5963
(lp5964
I1
aI1
aI2
as(S'sink-or-swim'
p5965
g2
tp5966
(lp5967
I1
aI1
aI2
as(S'fresh'
p5968
g2
tp5969
(lp5970
I1
aI6
aI5
as(S'employment'
p5971
g40
tp5972
(lp5973
I3
aI1
aI1
as(S'extended'
p5974
g2
tp5975
(lp5976
I1
aI2
aI1
as(S'hectic'
p5977
g2
tp5978
(lp5979
I1
aI1
aI4
as(S'ressource'
p5980
g40
tp5981
(lp5982
I1
aI1
aI2
as(S'empty'
p5983
g2
tp5984
(lp5985
I2
aI1
aI2
as(S'Transformative'
p5986
g2
tp5987
(lp5988
I1
aI2
aI1
as(S'beautiful'
p5989
g2
tp5990
(lp5991
I2
aI4
aI1
as(S'grown-up'
p5992
g2
tp5993
(lp5994
I3
aI1
aI1
as(S'influential'
p5995
g2
tp5996
(lp5997
I1
aI1
aI2
as(S'info'
p5998
g40
tp5999
(lp6000
I1
aI1
aI2
as(S'associate'
p6001
g40
tp6002
(lp6003
I3
aI1
aI1
as(S'non-challenging'
p6004
g2
tp6005
(lp6006
I2
aI1
aI1
as(S'responsible'
p6007
g2
tp6008
(lp6009
I2
aI2
aI1
as(S'airlines'
p6010
g74
tp6011
(lp6012
I1
aI1
aI2
as(S'multiple'
p6013
g2
tp6014
(lp6015
I1
aI5
aI3
as(S'regular'
p6016
g2
tp6017
(lp6018
I1
aI5
aI6
as(S'additional'
p6019
g2
tp6020
(lp6021
I1
aI6
aI9
as(S'alternatives'
p6022
g74
tp6023
(lp6024
I1
aI1
aI2
as(S'engineers'
p6025
g74
tp6026
(lp6027
I3
aI1
aI1
as(S'instant'
p6028
g2
tp6029
(lp6030
I1
aI3
aI1
as(S'poor'
p6031
g2
tp6032
(lp6033
I8
aI1
aI32
as(S'Hires'
p6034
g74
tp6035
(lp6036
I1
aI2
aI1
as(S'-Positive'
p6037
g2
tp6038
(lp6039
I1
aI2
aI1
as(S'run'
p6040
g40
tp6041
(lp6042
I2
aI1
aI1
as(S'center'
p6043
g40
tp6044
(lp6045
I2
aI1
aI1
as(S'on-site'
p6046
g2
tp6047
(lp6048
I1
aI6
aI1
as(S'changing'
p6049
g40
tp6050
(lp6051
I3
aI1
aI1
as(S'sexual'
p6052
g2
tp6053
(lp6054
I1
aI2
aI1
as(S'creativity'
p6055
g40
tp6056
(lp6057
I1
aI1
aI3
as(S'holidays'
p6058
g74
tp6059
(lp6060
I1
aI1
aI2
as(S'really'
p6061
g15
tp6062
(lp6063
I4
aI37
aI46
as(S'also'
p6064
g15
tp6065
(lp6066
I2
aI18
aI16
as(S'useful'
p6067
g2
tp6068
(lp6069
I1
aI4
aI3
as(S'hell'
p6070
g15
tp6071
(lp6072
I1
aI1
aI2
as(S'vastly'
p6073
g15
tp6074
(lp6075
I1
aI2
aI1
as(S'second-level'
p6076
g2
tp6077
(lp6078
I1
aI1
aI2
as(S'willing'
p6079
g2
tp6080
(lp6081
I2
aI1
aI1
as(S'greedy'
p6082
g2
tp6083
(lp6084
I1
aI1
aI2
as(S'load'
p6085
g2
tp6086
(lp6087
I1
aI1
aI2
as(S'visual'
p6088
g2
tp6089
(lp6090
I1
aI2
aI1
as(S'fast-paced'
p6091
g2
tp6092
(lp6093
I1
aI1
aI2
as(S'size'
p6094
g40
tp6095
(lp6096
I1
aI1
aI2
as(S'opportunites'
p6097
g74
tp6098
(lp6099
I2
aI1
aI2
as(S'ultimately'
p6100
g15
tp6101
(lp6102
I1
aI1
aI2
as(S'Long-term'
p6103
g2
tp6104
(lp6105
I1
aI2
aI1
as(S'international'
p6106
g2
tp6107
(lp6108
I3
aI38
aI12
as(S'Lean'
p6109
g2
tp6110
(lp6111
I1
aI1
aI2
as(S'corporate'
p6112
g2
tp6113
(lp6114
I12
aI28
aI43
as(S'..come'
p6115
g2
tp6116
(lp6117
I2
aI1
aI1
as(S'Normal'
p6118
g2
tp6119
(lp6120
I1
aI1
aI2
as(S'originally'
p6121
g15
tp6122
(lp6123
I1
aI1
aI3
as(S'political'
p6124
g2
tp6125
(lp6126
I5
aI2
aI16
as(S'-Significant'
p6127
g2
tp6128
(lp6129
I1
aI3
aI1
as(S'direct'
p6130
g2
tp6131
(lp6132
I1
aI3
aI9
as(S'okay'
p6133
g40
tp6134
(lp6135
I2
aI1
aI1
as(S'instances'
p6136
g74
tp6137
(lp6138
I1
aI1
aI2
as(S'non-profit'
p6139
g2
tp6140
(lp6141
I1
aI2
aI1
as(S'fellow'
p6142
g2
tp6143
(lp6144
I1
aI3
aI2
as(S'only'
p6145
g15
tp6146
(lp6147
I4
aI10
aI26
as(S'location'
p6148
g40
tp6149
(lp6150
I1
aI2
aI1
as(S'unique'
p6151
g2
tp6152
(lp6153
I1
aI2
aI1
as(S'banking'
p6154
g40
tp6155
(lp6156
I2
aI1
aI1
as(S'clueless'
p6157
g40
tp6158
(lp6159
I2
aI1
aI1
as(S'business'
p6160
g40
tp6161
(lp6162
I3
aI1
aI2
as(S'diminshed'
p6163
g2
tp6164
(lp6165
I1
aI2
aI1
as(S'basic'
p6166
g2
tp6167
(lp6168
I3
aI2
aI4
as(S"'open"
p6169
g2
tp6170
(lp6171
I1
aI2
aI1
as(S'lags'
p6172
g74
tp6173
(lp6174
I1
aI1
aI3
as(S'charitable'
p6175
g2
tp6176
(lp6177
I1
aI3
aI1
as(S'innovation'
p6178
g40
tp6179
(lp6180
I1
aI1
aI3
as(S'monetary'
p6181
g2
tp6182
(lp6183
I1
aI2
aI4
as(S'industry'
p6184
g40
tp6185
(lp6186
I7
aI2
aI7
as(S'far'
p6187
g15
tp6188
(lp6189
I3
aI2
aI4
as(S'.but'
p6190
g2
tp6191
(lp6192
I1
aI3
aI1
as(S'cheap'
p6193
g40
tp6194
(lp6195
I1
aI1
aI2
as(S'outsourcing'
p6196
g40
tp6197
(lp6198
I1
aI1
aI2
as(S'More'
p6199
g162
tp6200
(lp6201
I1
aI4
aI1
as(S'ugly'
p6202
g15
tp6203
(lp6204
I2
aI1
aI1
as(S'competitors'
p6205
g74
tp6206
(lp6207
I1
aI2
aI4
as(S'practice'
p6208
g40
tp6209
(lp6210
I2
aI2
aI2
as(S'golden'
p6211
g2
tp6212
(lp6213
I1
aI2
aI1
as(S'electrical'
p6214
g2
tp6215
(lp6216
I1
aI1
aI2
as(S'help'
p6217
g40
tp6218
(lp6219
I1
aI1
aI2
as(S'drastic'
p6220
g2
tp6221
(lp6222
I1
aI1
aI2
as(S'driven'
p6223
g2
tp6224
(lp6225
I1
aI2
aI1
as(S'Fantastic'
p6226
g2
tp6227
(lp6228
I9
aI6
aI1
as(S'instead'
p6229
g15
tp6230
(lp6231
I1
aI1
aI3
as(S'superior'
p6232
g2
tp6233
(lp6234
I2
aI1
aI3
as(S'questionable'
p6235
g2
tp6236
(lp6237
I2
aI1
aI1
as(S'employee'
p6238
g40
tp6239
(lp6240
I3
aI3
aI4
as(S'practical'
p6241
g2
tp6242
(lp6243
I1
aI1
aI2
as(S'first'
p6244
g2
tp6245
(lp6246
I7
aI13
aI13
as(S'-Product-driven'
p6247
g2
tp6248
(lp6249
I1
aI1
aI2
as(S'mile'
p6250
g2
tp6251
(lp6252
I1
aI1
aI2
as(S'not-so-great'
p6253
g2
tp6254
(lp6255
I2
aI1
aI1
as(S'isolation'
p6256
g40
tp6257
(lp6258
I1
aI1
aI2
as(S'hang'
p6259
g2
tp6260
(lp6261
I1
aI1
aI2
as(S'commonly'
p6262
g15
tp6263
(lp6264
I1
aI1
aI2
as(S'extreme'
p6265
g40
tp6266
(lp6267
I1
aI1
aI2
as(S'completely'
p6268
g15
tp6269
(lp6270
I1
aI1
aI10
as(S"'one"
p6271
g2
tp6272
(lp6273
I1
aI2
aI1
as(S'line'
p6274
g2
tp6275
(lp6276
I1
aI1
aI2
as(S'progress'
p6277
g40
tp6278
(lp6279
I1
aI1
aI3
as(S'-Numerous'
p6280
g2
tp6281
(lp6282
I1
aI2
aI1
as(S'office-based'
p6283
g2
tp6284
(lp6285
I1
aI1
aI2
as(S'flex-work/remote'
p6286
g2
tp6287
(lp6288
I1
aI3
aI1
as(S'back-stabbing'
p6289
g2
tp6290
(lp6291
I1
aI2
aI1
as(S'frustratingly'
p6292
g15
tp6293
(lp6294
I1
aI1
aI2
as(S'sometime'
p6295
g15
tp6296
(lp6297
I1
aI2
aI1
as(S'-On'
p6298
g2
tp6299
(lp6300
I1
aI2
aI1
as(S'hands-on'
p6301
g2
tp6302
(lp6303
I2
aI3
aI1
as(S'universally'
p6304
g15
tp6305
(lp6306
I1
aI1
aI2
as(S'non-core'
p6307
g2
tp6308
(lp6309
I1
aI1
aI2
as(S'Acceptable'
p6310
g2
tp6311
(lp6312
I1
aI2
aI1
as(S'weekends'
p6313
g74
tp6314
(lp6315
I1
aI1
aI3
as(S'painless'
p6316
g40
tp6317
(lp6318
I2
aI1
aI1
as(S'vision'
p6319
g40
tp6320
(lp6321
I1
aI1
aI2
as(S'ground'
p6322
g40
tp6323
(lp6324
I2
aI1
aI1
as(S'ethical'
p6325
g2
tp6326
(lp6327
I2
aI5
aI1
as(S'atmospher'
p6328
g40
tp6329
(lp6330
I2
aI1
aI1
as(S'close'
p6331
g2
tp6332
(lp6333
I1
aI4
aI3
as(S'company'
p6334
g40
tp6335
(lp6336
I51
aI8
aI26
as(S'positions'
p6337
g74
tp6338
(lp6339
I2
aI1
aI1
as(S'management'
p6340
g40
tp6341
(lp6342
I11
aI2
aI13
as(S'semi-virtual'
p6343
g2
tp6344
(lp6345
I1
aI1
aI2
as(S'well-developed'
p6346
g2
tp6347
(lp6348
I1
aI1
aI2
as(S'Under-appreciated'
p6349
g2
tp6350
(lp6351
I2
aI1
aI1
as(S'Added'
p6352
g2
tp6353
(lp6354
I1
aI1
aI2
as(S'folks'
p6355
g74
tp6356
(lp6357
I2
aI1
aI1
as(S'name'
p6358
g40
tp6359
(lp6360
I3
aI1
aI2
as(S'Merit-based'
p6361
g2
tp6362
(lp6363
I2
aI2
aI1
as(S'4-day'
p6364
g2
tp6365
(lp6366
I2
aI2
aI1
as(S'headquarters'
p6367
g74
tp6368
(lp6369
I1
aI2
aI1
as(S'accountant'
p6370
g40
tp6371
(lp6372
I2
aI1
aI1
as(S'sometime'
p6373
g2
tp6374
(lp6375
I1
aI2
aI1
as(S'lot'
p6376
g40
tp6377
(lp6378
I4
aI1
aI2
as(S'often'
p6379
g15
tp6380
(lp6381
I1
aI8
aI33
as(S'friendly'
p6382
g15
tp6383
(lp6384
I2
aI10
aI1
as(S'acceleration'
p6385
g40
tp6386
(lp6387
I2
aI1
aI1
as(S'Benefits'
p6388
g74
tp6389
(lp6390
I1
aI3
aI1
as(S'Family'
p6391
g15
tp6392
(lp6393
I1
aI5
aI1
as(S'in-house'
p6394
g2
tp6395
(lp6396
I1
aI2
aI2
as(S'rarely'
p6397
g15
tp6398
(lp6399
I1
aI4
aI6
as(S'training'
p6400
g40
tp6401
(lp6402
I3
aI2
aI5
as(S'Really'
p6403
g15
tp6404
(lp6405
I2
aI5
aI1
as(S'particular'
p6406
g2
tp6407
(lp6408
I1
aI3
aI5
as(S'maybe'
p6409
g15
tp6410
(lp6411
I1
aI1
aI2
as(S'true'
p6412
g2
tp6413
(lp6414
I2
aI3
aI10
as(S'integrated'
p6415
g2
tp6416
(lp6417
I1
aI2
aI3
as(S'load'
p6418
g40
tp6419
(lp6420
I1
aI1
aI2
as(S'process'
p6421
g40
tp6422
(lp6423
I4
aI2
aI3
as(S'supportive'
p6424
g2
tp6425
(lp6426
I3
aI18
aI2
as(S'networks'
p6427
g74
tp6428
(lp6429
I1
aI2
aI1
as(S'as'
p6430
g15
tp6431
(lp6432
I3
aI2
aI9
as(S'human'
p6433
g2
tp6434
(lp6435
I1
aI2
aI2
as(S'dramatically'
p6436
g15
tp6437
(lp6438
I1
aI1
aI2
as(S'littile'
p6439
g2
tp6440
(lp6441
I1
aI1
aI2
as(S'job'
p6442
g40
tp6443
(lp6444
I10
aI2
aI3
as(S'non-retail'
p6445
g2
tp6446
(lp6447
I1
aI3
aI1
as.