(dp0
(S'functional'
p1
S'JJ'
p2
tp3
(lp4
I1
aI2
aI2
as(S'actually'
p5
S'RB'
p6
tp7
(lp8
I1
aI1
aI2
as(S'stuff'
p9
S'NN'
p10
tp11
(lp12
I2
aI1
aI2
as(S'low'
p13
g2
tp14
(lp15
I3
aI2
aI12
as(S'Stable'
p16
g2
tp17
(lp18
I4
aI1
aI1
as(S'fumbly'
p19
g6
tp20
(lp21
I2
aI1
aI1
as(S'usual'
p22
g2
tp23
(lp24
I1
aI2
aI2
as(S'internally'
p25
g6
tp26
(lp27
I2
aI1
aI3
as(S'diverse'
p28
g2
tp29
(lp30
I1
aI3
aI1
as(S'just'
p31
g6
tp32
(lp33
I2
aI2
aI2
as(S'track'
p34
g10
tp35
(lp36
I2
aI1
aI1
as(S'reliable'
p37
g2
tp38
(lp39
I2
aI1
aI1
as(S'weak'
p40
g2
tp41
(lp42
I1
aI1
aI2
as(S'together'
p43
g6
tp44
(lp45
I2
aI1
aI1
as(S'young'
p46
g2
tp47
(lp48
I2
aI3
aI1
as(S'onsite'
p49
g2
tp50
(lp51
I1
aI2
aI1
as(S'level'
p52
g10
tp53
(lp54
I2
aI1
aI3
as(S'red'
p55
g2
tp56
(lp57
I1
aI1
aI2
as(S'previous'
p58
g2
tp59
(lp60
I1
aI1
aI2
as(S'manager'
p61
g10
tp62
(lp63
I2
aI1
aI1
as(S'ahead'
p64
g6
tp65
(lp66
I2
aI1
aI1
as(S'daily'
p67
g2
tp68
(lp69
I1
aI2
aI1
as(S'sharp'
p70
g2
tp71
(lp72
I1
aI2
aI1
as(S'geographic'
p73
g2
tp74
(lp75
I1
aI2
aI2
as(S'organizational'
p76
g2
tp77
(lp78
I1
aI3
aI4
as(S'strategic'
p79
g2
tp80
(lp81
I2
aI2
aI2
as(S'wide'
p82
g2
tp83
(lp84
I2
aI5
aI1
as(S'moral'
p85
g2
tp86
(lp87
I1
aI1
aI2
as(S'mechanic'
p88
g2
tp89
(lp90
I2
aI1
aI1
as(S'inadequate'
p91
g2
tp92
(lp93
I1
aI1
aI2
as(S'gas'
p94
g10
tp95
(lp96
I1
aI1
aI2
as(S'Confortable'
p97
g2
tp98
(lp99
I2
aI1
aI1
as(S'wind/water/power'
p100
g2
tp101
(lp102
I1
aI2
aI1
as(S'Incredible'
p103
g2
tp104
(lp105
I2
aI1
aI1
as(S'corporation'
p106
g10
tp107
(lp108
I1
aI1
aI2
as(S'ever'
p109
g6
tp110
(lp111
I4
aI3
aI2
as(S'bad'
p112
g2
tp113
(lp114
I5
aI1
aI14
as(S'floor'
p115
g10
tp116
(lp117
I2
aI1
aI1
as(S'typical'
p118
g2
tp119
(lp120
I1
aI1
aI2
as(S'education'
p121
g10
tp122
(lp123
I1
aI2
aI1
as(S'endless'
p124
g2
tp125
(lp126
I2
aI2
aI1
as(S'tight'
p127
g2
tp128
(lp129
I1
aI1
aI2
as(S'politics'
p130
S'NNS'
p131
tp132
(lp133
I2
aI1
aI5
as(S'-Work/Life'
p134
g2
tp135
(lp136
I1
aI2
aI1
as(S'small'
p137
g2
tp138
(lp139
I1
aI1
aI3
as(S'here'
p140
g6
tp141
(lp142
I4
aI1
aI1
as(S'equitable'
p143
g2
tp144
(lp145
I1
aI2
aI1
as(S'unpolished'
p146
g2
tp147
(lp148
I1
aI1
aI2
as(S'lifestyle'
p149
g10
tp150
(lp151
I1
aI2
aI1
as(S'Work-life'
p152
g2
tp153
(lp154
I2
aI1
aI1
as(S'second'
p155
g2
tp156
(lp157
I2
aI2
aI1
as(S'client'
p158
g10
tp159
(lp160
I2
aI1
aI1
as(S'innovative'
p161
g2
tp162
(lp163
I1
aI2
aI1
as(S'bureaucratic'
p164
g2
tp165
(lp166
I2
aI1
aI4
as(S'old'
p167
g2
tp168
(lp169
I1
aI1
aI3
as(S'economic'
p170
g2
tp171
(lp172
I1
aI1
aI3
as(S'pretty'
p173
g10
tp174
(lp175
I1
aI2
aI1
as(S'valuable'
p176
g2
tp177
(lp178
I2
aI2
aI1
as(S'volume'
p179
g10
tp180
(lp181
I2
aI1
aI1
as(S'significant'
p182
g2
tp183
(lp184
I1
aI2
aI4
as(S'america'
p185
g10
tp186
(lp187
I2
aI1
aI1
as(S'casual'
p188
g2
tp189
(lp190
I1
aI2
aI1
as(S'high'
p191
g2
tp192
(lp193
I4
aI9
aI10
as(S'first'
p194
g6
tp195
(lp196
I2
aI2
aI2
as(S'bureaucracy'
p197
g10
tp198
(lp199
I3
aI1
aI1
as(S'tech'
p200
g10
tp201
(lp202
I1
aI2
aI1
as(S'internal'
p203
g2
tp204
(lp205
I1
aI3
aI5
as(S'Just'
p206
g6
tp207
(lp208
I2
aI2
aI1
as(S'heavily'
p209
g6
tp210
(lp211
I1
aI1
aI2
as(S'underqualified'
p212
g2
tp213
(lp214
I2
aI1
aI1
as(S'.but'
p215
g2
tp216
(lp217
I1
aI2
aI1
as(S'international'
p218
g2
tp219
(lp220
I3
aI6
aI2
as(S'heavy'
p221
g2
tp222
(lp223
I1
aI2
aI1
as(S'Various'
p224
g2
tp225
(lp226
I2
aI1
aI1
as(S'cincy'
p227
g10
tp228
(lp229
I2
aI1
aI1
as(S'completely'
p230
g6
tp231
(lp232
I1
aI1
aI2
as(S'exact'
p233
g2
tp234
(lp235
I1
aI1
aI2
as(S'factory'
p236
g10
tp237
(lp238
I2
aI1
aI1
as(S'mouth'
p239
g10
tp240
(lp241
I2
aI1
aI1
as(S'activities'
p242
g131
tp243
(lp244
I1
aI1
aI2
as(S'regulatory'
p245
g2
tp246
(lp247
I1
aI1
aI2
as(S'outstanding'
p248
g2
tp249
(lp250
I1
aI2
aI1
as(S'frequently'
p251
g6
tp252
(lp253
I1
aI1
aI2
as(S'Still'
p254
g6
tp255
(lp256
I1
aI1
aI2
as(S'Oddly'
p257
g6
tp258
(lp259
I2
aI1
aI1
as(S'part-time'
p260
g2
tp261
(lp262
I2
aI2
aI2
as(S'Huge'
p263
g2
tp264
(lp265
I1
aI2
aI2
as(S'non-exempt'
p266
g2
tp267
(lp268
I1
aI1
aI2
as(S'institutional'
p269
g2
tp270
(lp271
I1
aI1
aI2
as(S'area'
p272
g10
tp273
(lp274
I1
aI1
aI3
as(S'demanding'
p275
g10
tp276
(lp277
I2
aI1
aI1
as(S'intense'
p278
g2
tp279
(lp280
I1
aI1
aI2
as(S'technologically'
p281
g6
tp282
(lp283
I1
aI2
aI1
as(S'more'
p284
S'RBR'
p285
tp286
(lp287
I1
aI4
aI9
as(S'redundancy'
p288
g10
tp289
(lp290
I1
aI1
aI2
as(S'Banker'
p291
g10
tp292
(lp293
I3
aI1
aI1
as(S'sucks'
p294
g131
tp295
(lp296
I1
aI1
aI2
as(S'communication'
p297
g10
tp298
(lp299
I1
aI1
aI2
as(S'now'
p300
g6
tp301
(lp302
I1
aI1
aI2
as(S'unfair'
p303
g2
tp304
(lp305
I1
aI1
aI2
as(S'inflexible'
p306
g2
tp307
(lp308
I1
aI1
aI2
as(S'customers'
p309
g131
tp310
(lp311
I1
aI1
aI2
as(S'attractive'
p312
g2
tp313
(lp314
I1
aI2
aI1
as(S'adequate'
p315
g2
tp316
(lp317
I1
aI2
aI1
as(S'relatively'
p318
g6
tp319
(lp320
I1
aI4
aI2
as(S'fantastic'
p321
g2
tp322
(lp323
I1
aI3
aI1
as(S'global'
p324
g2
tp325
(lp326
I4
aI10
aI6
as(S'messy'
p327
g2
tp328
(lp329
I1
aI1
aI2
as(S'merit'
p330
g10
tp331
(lp332
I2
aI1
aI1
as(S'Incentive'
p333
g2
tp334
(lp335
I1
aI1
aI2
as(S'Analyst'
p336
g10
tp337
(lp338
I2
aI1
aI1
as(S'severely'
p339
g6
tp340
(lp341
I1
aI1
aI2
as(S'good'
p342
g2
tp343
(lp344
I45
aI100
aI15
as(S'new'
p345
g2
tp346
(lp347
I3
aI11
aI7
as(S'roller-coaster'
p348
g2
tp349
(lp350
I2
aI1
aI1
as(S'store..excellent'
p351
g2
tp352
(lp353
I2
aI1
aI1
as(S'little'
p354
g2
tp355
(lp356
I2
aI1
aI4
as(S'merger'
p357
g10
tp358
(lp359
I1
aI1
aI2
as(S'guilty'
p360
g2
tp361
(lp362
I2
aI1
aI1
as(S'lucky'
p363
g2
tp364
(lp365
I2
aI1
aI2
as(S'knowledgable'
p366
g2
tp367
(lp368
I1
aI3
aI1
as(S'Bad'
p369
g2
tp370
(lp371
I2
aI1
aI3
as(S'regardless'
p372
g10
tp373
(lp374
I2
aI1
aI1
as(S'common'
p375
g2
tp376
(lp377
I1
aI1
aI3
as(S'solid'
p378
g2
tp379
(lp380
I2
aI4
aI2
as(S'computers'
p381
g131
tp382
(lp383
I1
aI1
aI2
as(S'experiences'
p384
g131
tp385
(lp386
I2
aI1
aI2
as(S'middle'
p387
g2
tp388
(lp389
I2
aI1
aI2
as(S'time-off'
p390
g2
tp391
(lp392
I1
aI2
aI1
as(S'mostly'
p393
g6
tp394
(lp395
I1
aI2
aI1
as(S'quite'
p396
g6
tp397
(lp398
I1
aI1
aI4
as(S'overtime'
p399
g10
tp400
(lp401
I1
aI1
aI2
as(S'seasoned'
p402
g2
tp403
(lp404
I1
aI2
aI1
as(S'street'
p405
g10
tp406
(lp407
I1
aI1
aI2
as(S'pretty'
p408
g6
tp409
(lp410
I3
aI3
aI2
as(S'perspective'
p411
g2
tp412
(lp413
I2
aI1
aI1
as(S'monthly'
p414
g6
tp415
(lp416
I1
aI2
aI1
as(S'social'
p417
g2
tp418
(lp419
I1
aI2
aI4
as(S'technically'
p420
g6
tp421
(lp422
I1
aI2
aI1
as(S'Experience'
p423
g10
tp424
(lp425
I2
aI1
aI1
as(S'mission'
p426
g10
tp427
(lp428
I2
aI1
aI1
as(S'approachable'
p429
g2
tp430
(lp431
I1
aI2
aI1
as(S'plan'
p432
g10
tp433
(lp434
I2
aI1
aI1
as(S'reasonably'
p435
g6
tp436
(lp437
I2
aI1
aI1
as(S'structure'
p438
g10
tp439
(lp440
I2
aI2
aI2
as(S'even'
p441
g6
tp442
(lp443
I1
aI1
aI4
as(S'minimum'
p444
g2
tp445
(lp446
I1
aI1
aI2
as(S'Significant'
p447
g2
tp448
(lp449
I2
aI1
aI1
as(S'unemployment'
p450
g10
tp451
(lp452
I2
aI1
aI1
as(S'open'
p453
g2
tp454
(lp455
I1
aI3
aI2
as(S'perpetual'
p456
g2
tp457
(lp458
I2
aI1
aI1
as(S'incremental'
p459
g2
tp460
(lp461
I1
aI1
aI2
as(S'third'
p462
g2
tp463
(lp464
I1
aI1
aI2
as(S'usually'
p465
g6
tp466
(lp467
I1
aI3
aI2
as(S'enthusiastic'
p468
g2
tp469
(lp470
I1
aI2
aI1
as(S'shift'
p471
g10
tp472
(lp473
I1
aI1
aI3
as(S'signifcant'
p474
g2
tp475
(lp476
I1
aI2
aI1
as(S'Overly'
p477
g6
tp478
(lp479
I1
aI1
aI2
as(S'medical'
p480
g2
tp481
(lp482
I1
aI3
aI2
as(S'spills'
p483
g131
tp484
(lp485
I1
aI1
aI2
as(S'professional'
p486
g2
tp487
(lp488
I5
aI12
aI1
as(S'entitlement'
p489
g10
tp490
(lp491
I2
aI1
aI1
as(S'local'
p492
g2
tp493
(lp494
I2
aI1
aI4
as(S'hard'
p495
g2
tp496
(lp497
I1
aI3
aI2
as(S'minor'
p498
g2
tp499
(lp500
I2
aI1
aI1
as(S'educational'
p501
g2
tp502
(lp503
I3
aI1
aI1
as(S'sensitive'
p504
g2
tp505
(lp506
I1
aI1
aI2
as(S')'
p507
g10
tp508
(lp509
I1
aI1
aI3
as(S'bit'
p510
g10
tp511
(lp512
I1
aI1
aI3
as(S'median'
p513
g2
tp514
(lp515
I2
aI1
aI1
as(S'work'
p516
g10
tp517
(lp518
I3
aI2
aI7
as(S'promotional'
p519
g2
tp520
(lp521
I1
aI1
aI4
as(S'technical'
p522
g2
tp523
(lp524
I2
aI7
aI3
as(S'break-through'
p525
g2
tp526
(lp527
I1
aI1
aI2
as(S'outside'
p528
g2
tp529
(lp530
I1
aI2
aI1
as(S'important'
p531
g2
tp532
(lp533
I1
aI1
aI2
as(S'Spectacular'
p534
g2
tp535
(lp536
I1
aI2
aI1
as(S'equal'
p537
g2
tp538
(lp539
I1
aI2
aI1
as(S'market'
p540
g10
tp541
(lp542
I4
aI1
aI2
as(S'livable'
p543
g2
tp544
(lp545
I1
aI2
aI1
as(S'own'
p546
g2
tp547
(lp548
I2
aI3
aI6
as(S'Extensive'
p549
g2
tp550
(lp551
I1
aI2
aI1
as(S'Always'
p552
g6
tp553
(lp554
I1
aI1
aI2
as(S'replaceable'
p555
g2
tp556
(lp557
I1
aI1
aI2
as(S'expansion'
p558
g10
tp559
(lp560
I1
aI1
aI2
as(S'tape'
p561
g10
tp562
(lp563
I2
aI1
aI1
as(S'companies'
p564
g131
tp565
(lp566
I1
aI1
aI2
as(S'analyst'
p567
g10
tp568
(lp569
I2
aI1
aI1
as(S'appropriate'
p570
g2
tp571
(lp572
I1
aI2
aI1
as(S'neck'
p573
g10
tp574
(lp575
I2
aI1
aI1
as(S'standard'
p576
g2
tp577
(lp578
I1
aI2
aI2
as(S'extremely'
p579
g6
tp580
(lp581
I1
aI6
aI1
as(S'issues'
p582
g131
tp583
(lp584
I2
aI1
aI2
as(S'tough'
p585
g2
tp586
(lp587
I1
aI1
aI4
as(S'fairly'
p588
g6
tp589
(lp590
I1
aI2
aI1
as(S'kaizen'
p591
g10
tp592
(lp593
I2
aI1
aI1
as(S'crime-filled'
p594
g2
tp595
(lp596
I1
aI1
aI2
as(S'back'
p597
g6
tp598
(lp599
I1
aI2
aI1
as(S'exposure'
p600
g10
tp601
(lp602
I1
aI1
aI2
as(S'slow-moving'
p603
g2
tp604
(lp605
I1
aI1
aI2
as(S'enable'
p606
g2
tp607
(lp608
I1
aI2
aI1
as(S'broad'
p609
g2
tp610
(lp611
I1
aI4
aI1
as(S'executive'
p612
g2
tp613
(lp614
I1
aI1
aI3
as(S'excellent'
p615
g2
tp616
(lp617
I2
aI1
aI1
as(S'Passive'
p618
g2
tp619
(lp620
I2
aI1
aI1
as(S'products'
p621
g131
tp622
(lp623
I3
aI1
aI1
as(S'employee'
p624
g10
tp625
(lp626
I2
aI2
aI1
as(S'steady'
p627
g2
tp628
(lp629
I1
aI2
aI1
as(S'departments'
p630
g131
tp631
(lp632
I1
aI1
aI3
as(S'school'
p633
g10
tp634
(lp635
I3
aI1
aI1
as(S'book'
p636
g10
tp637
(lp638
I2
aI1
aI1
as(S'raise'
p639
g10
tp640
(lp641
I1
aI1
aI2
as(S'diff'
p642
g10
tp643
(lp644
I2
aI1
aI1
as(S'crafts-people'
p645
g2
tp646
(lp647
I1
aI2
aI1
as(S'friendly'
p648
g2
tp649
(lp650
I1
aI2
aI2
as(S'projects'
p651
g131
tp652
(lp653
I2
aI2
aI1
as(S'wold'
p654
g10
tp655
(lp656
I2
aI1
aI1
as(S'pay'
p657
g10
tp658
(lp659
I2
aI1
aI2
as(S'generally'
p660
g6
tp661
(lp662
I1
aI5
aI3
as(S'greedy'
p663
g2
tp664
(lp665
I1
aI1
aI2
as(S'morale'
p666
g10
tp667
(lp668
I3
aI1
aI2
as(S'engineer'
p669
g10
tp670
(lp671
I4
aI1
aI1
as(S'Self-imposed'
p672
g2
tp673
(lp674
I1
aI1
aI2
as(S'talent'
p675
g10
tp676
(lp677
I2
aI1
aI2
as(S'roles'
p678
g131
tp679
(lp680
I1
aI1
aI2
as(S'many'
p681
g2
tp682
(lp683
I9
aI18
aI41
as(S'number'
p684
g10
tp685
(lp686
I2
aI1
aI2
as(S'formal'
p687
g2
tp688
(lp689
I1
aI2
aI1
as(S'wear'
p690
g2
tp691
(lp692
I1
aI1
aI2
as(S'Work/life'
p693
g2
tp694
(lp695
I1
aI2
aI2
as(S'Average'
p696
g2
tp697
(lp698
I1
aI1
aI2
as(S'clear'
p699
g2
tp700
(lp701
I1
aI4
aI3
as(S'Overall'
p702
g2
tp703
(lp704
I2
aI2
aI1
as(S'Competitive'
p705
g2
tp706
(lp707
I1
aI5
aI3
as(S'reputation'
p708
g10
tp709
(lp710
I1
aI1
aI2
as(S'Too'
p711
g6
tp712
(lp713
I2
aI1
aI10
as(S'very'
p714
g6
tp715
(lp716
I16
aI21
aI42
as(S'deeply'
p717
g6
tp718
(lp719
I1
aI1
aI2
as(S'days'
p720
g131
tp721
(lp722
I1
aI1
aI2
as(S'non-existent'
p723
g2
tp724
(lp725
I1
aI1
aI2
as(S'-People'
p726
g2
tp727
(lp728
I1
aI2
aI1
as(S'noticeable'
p729
g2
tp730
(lp731
I1
aI1
aI2
as(S'proper'
p732
g2
tp733
(lp734
I1
aI1
aI2
as(S'well'
p735
g6
tp736
(lp737
I3
aI9
aI5
as(S'Sucks'
p738
g131
tp739
(lp740
I2
aI1
aI1
as(S'sour-tasting'
p741
g2
tp742
(lp743
I1
aI1
aI2
as(S'walmart'
p744
g10
tp745
(lp746
I2
aI1
aI1
as(S'Large'
p747
g2
tp748
(lp749
I4
aI11
aI7
as(S'interesting'
p750
g2
tp751
(lp752
I2
aI8
aI1
as(S'secondary'
p753
g2
tp754
(lp755
I2
aI1
aI1
as(S'genuinely'
p756
g6
tp757
(lp758
I1
aI2
aI1
as(S'engineering'
p759
g10
tp760
(lp761
I1
aI1
aI2
as(S'complex'
p762
g2
tp763
(lp764
I1
aI2
aI2
as(S'healthy'
p765
g2
tp766
(lp767
I1
aI1
aI2
as(S'Promotions'
p768
g131
tp769
(lp770
I1
aI1
aI2
as(S'somewhat'
p771
g6
tp772
(lp773
I1
aI2
aI3
as(S'weeks'
p774
g131
tp775
(lp776
I1
aI1
aI2
as(S'initiatives'
p777
g131
tp778
(lp779
I1
aI1
aI2
as(S'inwardly'
p780
g6
tp781
(lp782
I2
aI1
aI1
as(S'officer'
p783
g10
tp784
(lp785
I2
aI1
aI1
as(S'mundane'
p786
g2
tp787
(lp788
I2
aI1
aI1
as(S'sub-par'
p789
g2
tp790
(lp791
I1
aI1
aI2
as(S'Direct'
p792
g2
tp793
(lp794
I1
aI2
aI1
as(S'namely'
p795
g6
tp796
(lp797
I1
aI2
aI1
as(S'easily'
p798
g6
tp799
(lp800
I1
aI1
aI2
as(S'OK'
p801
g10
tp802
(lp803
I3
aI1
aI1
as(S'press'
p804
g10
tp805
(lp806
I1
aI1
aI2
as(S'changes'
p807
g131
tp808
(lp809
I1
aI1
aI2
as(S'instantly'
p810
g6
tp811
(lp812
I1
aI1
aI2
as(S'students'
p813
g131
tp814
(lp815
I3
aI1
aI1
as(S'Appliances'
p816
g131
tp817
(lp818
I2
aI1
aI1
as(S'logistics'
p819
g131
tp820
(lp821
I2
aI1
aI1
as(S'dysfunctional'
p822
g2
tp823
(lp824
I1
aI1
aI2
as(S'extensive'
p825
g2
tp826
(lp827
I1
aI2
aI1
as(S'catastrophic'
p828
g2
tp829
(lp830
I1
aI1
aI2
as(S'annual'
p831
g2
tp832
(lp833
I1
aI1
aI3
as(S'Casual'
p834
g2
tp835
(lp836
I1
aI2
aI1
as(S'Inter-group'
p837
g2
tp838
(lp839
I1
aI2
aI1
as(S'major'
p840
g2
tp841
(lp842
I1
aI1
aI3
as(S'goods'
p843
g131
tp844
(lp845
I1
aI1
aI2
as(S'uncapped'
p846
g2
tp847
(lp848
I1
aI1
aI2
as(S'respectful'
p849
g2
tp850
(lp851
I1
aI3
aI1
as(S'continuously'
p852
g6
tp853
(lp854
I1
aI1
aI2
as(S"'ole"
p855
g2
tp856
(lp857
I1
aI1
aI2
as(S'direction'
p858
g10
tp859
(lp860
I2
aI1
aI2
as(S'finance'
p861
g10
tp862
(lp863
I1
aI2
aI1
as(S'then'
p864
g6
tp865
(lp866
I1
aI2
aI2
as(S'able'
p867
g2
tp868
(lp869
I1
aI2
aI1
as(S'fruition'
p870
g10
tp871
(lp872
I1
aI1
aI2
as(S'chiefs'
p873
g131
tp874
(lp875
I2
aI1
aI1
as(S'improvement'
p876
g10
tp877
(lp878
I4
aI1
aI1
as(S'frugal'
p879
g2
tp880
(lp881
I1
aI2
aI1
as(S'fiercely'
p882
g6
tp883
(lp884
I1
aI1
aI2
as(S'Incomparable'
p885
g2
tp886
(lp887
I1
aI2
aI1
as(S'Kids'
p888
g131
tp889
(lp890
I2
aI1
aI1
as(S'retail'
p891
g2
tp892
(lp893
I4
aI4
aI9
as(S'Terrible'
p894
g2
tp895
(lp896
I1
aI1
aI2
as(S'much'
p897
g2
tp898
(lp899
I5
aI1
aI11
as(S'reasonable'
p900
g2
tp901
(lp902
I3
aI3
aI1
as(S'economics'
p903
g131
tp904
(lp905
I1
aI1
aI2
as(S'conservative'
p906
g2
tp907
(lp908
I1
aI3
aI2
as(S'hard'
p909
g6
tp910
(lp911
I3
aI2
aI1
as(S'departmentalize'
p912
g10
tp913
(lp914
I1
aI1
aI2
as(S'advancement'
p915
g10
tp916
(lp917
I2
aI1
aI3
as(S'pragmatic'
p918
g2
tp919
(lp920
I2
aI1
aI1
as(S'prosper'
p921
g10
tp922
(lp923
I2
aI1
aI1
as(S'awful'
p924
g2
tp925
(lp926
I1
aI2
aI1
as(S'expensive'
p927
g2
tp928
(lp929
I1
aI1
aI2
as(S'next'
p930
g2
tp931
(lp932
I1
aI1
aI2
as(S'upper'
p933
g2
tp934
(lp935
I2
aI2
aI5
as(S'growth'
p936
g10
tp937
(lp938
I4
aI1
aI1
as(S'space'
p939
g10
tp940
(lp941
I1
aI1
aI2
as(S'co-operative'
p942
g2
tp943
(lp944
I1
aI2
aI1
as(S'making/closing'
p945
g2
tp946
(lp947
I1
aI1
aI2
as(S'term'
p948
g2
tp949
(lp950
I1
aI2
aI1
as(S'paths'
p951
g131
tp952
(lp953
I2
aI1
aI1
as(S'fundamentals'
p954
g131
tp955
(lp956
I2
aI1
aI1
as(S'equitqable'
p957
g2
tp958
(lp959
I2
aI1
aI1
as(S'developers'
p960
g131
tp961
(lp962
I2
aI1
aI1
as(S'opportunities'
p963
g131
tp964
(lp965
I5
aI1
aI1
as(S'paltry'
p966
g10
tp967
(lp968
I2
aI1
aI1
as(S'and/or'
p969
g2
tp970
(lp971
I1
aI1
aI2
as(S'friends'
p972
g131
tp973
(lp974
I2
aI1
aI2
as(S'Global'
p975
g2
tp976
(lp977
I1
aI5
aI1
as(S'specific'
p978
g2
tp979
(lp980
I1
aI1
aI2
as(S'upward'
p981
g2
tp982
(lp983
I1
aI1
aI3
as(S'bonuses'
p984
g131
tp985
(lp986
I1
aI1
aI3
as(S'Other'
p987
g2
tp988
(lp989
I1
aI2
aI1
as(S'banks'
p990
g131
tp991
(lp992
I2
aI1
aI1
as(S'quantitative'
p993
g2
tp994
(lp995
I1
aI1
aI2
as(S'ongoing'
p996
g2
tp997
(lp998
I1
aI2
aI1
as(S'Reasonable'
p999
g2
tp1000
(lp1001
I1
aI2
aI1
as(S'Technical'
p1002
g2
tp1003
(lp1004
I2
aI1
aI1
as(S'stable'
p1005
g2
tp1006
(lp1007
I2
aI2
aI1
as(S'marketable'
p1008
g2
tp1009
(lp1010
I1
aI2
aI1
as(S'decent'
p1011
g2
tp1012
(lp1013
I1
aI2
aI1
as(S'administrative'
p1014
g2
tp1015
(lp1016
I1
aI1
aI2
as(S'reputational'
p1017
g2
tp1018
(lp1019
I2
aI1
aI1
as(S'reality'
p1020
g10
tp1021
(lp1022
I1
aI2
aI1
as(S'effectively'
p1023
g6
tp1024
(lp1025
I1
aI1
aI2
as(S'competitive'
p1026
g2
tp1027
(lp1028
I1
aI3
aI3
as(S'promotion'
p1029
g10
tp1030
(lp1031
I2
aI1
aI1
as(S'schedule'
p1032
g10
tp1033
(lp1034
I1
aI1
aI2
as(S'French'
p1035
g2
tp1036
(lp1037
I1
aI1
aI3
as(S'comfortable'
p1038
g2
tp1039
(lp1040
I1
aI3
aI1
as(S'stone'
p1041
g10
tp1042
(lp1043
I2
aI1
aI1
as(S'slowly'
p1044
g6
tp1045
(lp1046
I1
aI1
aI3
as(S'always'
p1047
g6
tp1048
(lp1049
I3
aI6
aI16
as(S'senior'
p1050
g2
tp1051
(lp1052
I2
aI5
aI7
as(S'Many'
p1053
g2
tp1054
(lp1055
I2
aI3
aI3
as(S'Extremely'
p1056
g6
tp1057
(lp1058
I1
aI1
aI2
as(S'expenses'
p1059
g131
tp1060
(lp1061
I1
aI1
aI2
as(S'comparable'
p1062
g2
tp1063
(lp1064
I1
aI1
aI2
as(S'bp'
p1065
g10
tp1066
(lp1067
I2
aI1
aI1
as(S'Not'
p1068
g6
tp1069
(lp1070
I3
aI1
aI10
as(S'top'
p1071
g2
tp1072
(lp1073
I2
aI6
aI2
as(S'stre'
p1074
g10
tp1075
(lp1076
I2
aI1
aI1
as(S'hierarchal'
p1077
g2
tp1078
(lp1079
I1
aI1
aI2
as(S'years'
p1080
g131
tp1081
(lp1082
I3
aI1
aI2
as(S'truly'
p1083
g6
tp1084
(lp1085
I1
aI1
aI3
as(S'seem'
p1086
g10
tp1087
(lp1088
I1
aI1
aI2
as(S'technician'
p1089
g10
tp1090
(lp1091
I2
aI1
aI1
as(S'la'
p1092
g10
tp1093
(lp1094
I2
aI1
aI1
as(S'depts'
p1095
g131
tp1096
(lp1097
I1
aI1
aI2
as(S'-Faire'
p1098
g2
tp1099
(lp1100
I1
aI2
aI1
as(S'standards'
p1101
g131
tp1102
(lp1103
I2
aI1
aI1
as(S'salary'
p1104
g10
tp1105
(lp1106
I2
aI2
aI1
as(S'reactive'
p1107
g2
tp1108
(lp1109
I1
aI1
aI2
as(S'supervisors'
p1110
g131
tp1111
(lp1112
I1
aI1
aI2
as(S'Mostly'
p1113
g6
tp1114
(lp1115
I2
aI1
aI1
as(S'Organizational'
p1116
g2
tp1117
(lp1118
I1
aI1
aI2
as(S'time'
p1119
g10
tp1120
(lp1121
I3
aI1
aI1
as(S'primary'
p1122
g2
tp1123
(lp1124
I1
aI1
aI2
as(S'recreational'
p1125
g2
tp1126
(lp1127
I1
aI1
aI2
as(S'poor'
p1128
g2
tp1129
(lp1130
I4
aI1
aI9
as(S'certain'
p1131
g2
tp1132
(lp1133
I1
aI2
aI6
as(S'worker'
p1134
g10
tp1135
(lp1136
I2
aI1
aI1
as(S'Executive'
p1137
g2
tp1138
(lp1139
I1
aI1
aI2
as(S'clearly'
p1140
g6
tp1141
(lp1142
I2
aI1
aI1
as(S'REALLY'
p1143
g6
tp1144
(lp1145
I1
aI1
aI2
as(S'constantly'
p1146
g6
tp1147
(lp1148
I1
aI4
aI3
as(S'understaffing'
p1149
g10
tp1150
(lp1151
I2
aI1
aI1
as(S'strong'
p1152
g2
tp1153
(lp1154
I2
aI7
aI3
as(S'easy-going'
p1155
g2
tp1156
(lp1157
I2
aI1
aI1
as(S'slow'
p1158
g2
tp1159
(lp1160
I1
aI1
aI8
as(S'everyone'
p1161
g10
tp1162
(lp1163
I2
aI1
aI1
as(S'cutthroat'
p1164
g2
tp1165
(lp1166
I1
aI2
aI1
as(S'less'
p1167
g285
tp1168
(lp1169
I1
aI1
aI2
as(S'Never'
p1170
g6
tp1171
(lp1172
I1
aI1
aI2
as(S'hours'
p1173
g131
tp1174
(lp1175
I1
aI4
aI2
as(S'yesterday'
p1176
g10
tp1177
(lp1178
I1
aI1
aI2
as(S'*Great'
p1179
g2
tp1180
(lp1181
I1
aI2
aI1
as(S'personal'
p1182
g2
tp1183
(lp1184
I1
aI3
aI4
as(S'academic'
p1185
g2
tp1186
(lp1187
I1
aI1
aI2
as(S'eduactional'
p1188
g2
tp1189
(lp1190
I1
aI2
aI1
as(S'Flexible'
p1191
g2
tp1192
(lp1193
I2
aI8
aI1
as(S'Total'
p1194
g2
tp1195
(lp1196
I1
aI2
aI1
as(S'recognition'
p1197
g10
tp1198
(lp1199
I1
aI1
aI3
as(S'on-site'
p1200
g2
tp1201
(lp1202
I1
aI3
aI1
as(S'lunch'
p1203
g10
tp1204
(lp1205
I1
aI1
aI2
as(S'potential'
p1206
g2
tp1207
(lp1208
I2
aI3
aI1
as(S'service'
p1209
g10
tp1210
(lp1211
I2
aI1
aI2
as(S'autonomous'
p1212
g2
tp1213
(lp1214
I1
aI2
aI1
as(S'firms'
p1215
g131
tp1216
(lp1217
I1
aI1
aI2
as(S'experience'
p1218
g10
tp1219
(lp1220
I13
aI1
aI1
as(S'happy'
p1221
g2
tp1222
(lp1223
I1
aI2
aI1
as(S'entrepreneurial'
p1224
g2
tp1225
(lp1226
I1
aI2
aI1
as(S'skills'
p1227
g131
tp1228
(lp1229
I2
aI1
aI1
as(S'under-controlled'
p1230
g2
tp1231
(lp1232
I1
aI1
aI2
as(S'immediately'
p1233
g6
tp1234
(lp1235
I1
aI2
aI2
as(S'routine'
p1236
g10
tp1237
(lp1238
I1
aI1
aI2
as(S'semiannual'
p1239
g2
tp1240
(lp1241
I1
aI2
aI1
as(S'ok'
p1242
g10
tp1243
(lp1244
I2
aI1
aI1
as(S'traditional'
p1245
g2
tp1246
(lp1247
I1
aI1
aI2
as(S'minutes'
p1248
g131
tp1249
(lp1250
I1
aI1
aI2
as(S'junior'
p1251
g2
tp1252
(lp1253
I1
aI1
aI2
as(S'customer'
p1254
g10
tp1255
(lp1256
I2
aI1
aI1
as(S'cool'
p1257
g2
tp1258
(lp1259
I1
aI3
aI1
as(S'legitimately'
p1260
g6
tp1261
(lp1262
I1
aI1
aI2
as(S'long'
p1263
g2
tp1264
(lp1265
I1
aI4
aI13
as(S'much'
p1266
g6
tp1267
(lp1268
I1
aI1
aI9
as(S'Horrible'
p1269
g2
tp1270
(lp1271
I1
aI1
aI2
as(S'responsive'
p1272
g2
tp1273
(lp1274
I1
aI2
aI1
as(S'locomotive'
p1275
g2
tp1276
(lp1277
I1
aI2
aI1
as(S'self-serving'
p1278
g2
tp1279
(lp1280
I1
aI1
aI2
as(S'financial'
p1281
g2
tp1282
(lp1283
I1
aI7
aI7
as(S'investigative'
p1284
g2
tp1285
(lp1286
I2
aI1
aI1
as(S'th'
p1287
g10
tp1288
(lp1289
I2
aI1
aI1
as(S'long'
p1290
g6
tp1291
(lp1292
I2
aI1
aI1
as(S'problems'
p1293
g131
tp1294
(lp1295
I1
aI1
aI2
as(S'overall'
p1296
g2
tp1297
(lp1298
I4
aI2
aI4
as(S'work-life'
p1299
g2
tp1300
(lp1301
I1
aI3
aI2
as(S'-Ignorant/impatient/rude'
p1302
g2
tp1303
(lp1304
I1
aI1
aI2
as(S'necessarily'
p1305
g6
tp1306
(lp1307
I1
aI1
aI3
as(S'names'
p1308
g131
tp1309
(lp1310
I2
aI1
aI1
as(S'there'
p1311
g6
tp1312
(lp1313
I1
aI2
aI2
as(S'over-worked'
p1314
g2
tp1315
(lp1316
I1
aI1
aI2
as(S'wor'
p1317
g10
tp1318
(lp1319
I2
aI1
aI1
as(S'e-commerce'
p1320
g2
tp1321
(lp1322
I2
aI1
aI1
as(S'other'
p1323
g2
tp1324
(lp1325
I1
aI6
aI17
as(S'highly'
p1326
g6
tp1327
(lp1328
I1
aI3
aI3
as(S'People'
p1329
g131
tp1330
(lp1331
I1
aI2
aI1
as(S'recent'
p1332
g2
tp1333
(lp1334
I1
aI1
aI2
as(S'Outstanding'
p1335
g2
tp1336
(lp1337
I1
aI2
aI1
as(S'Long'
p1338
g2
tp1339
(lp1340
I2
aI1
aI7
as(S'male'
p1341
g2
tp1342
(lp1343
I1
aI1
aI2
as(S'fast'
p1344
g2
tp1345
(lp1346
I1
aI2
aI1
as(S'accessible'
p1347
g2
tp1348
(lp1349
I1
aI2
aI1
as(S'management'
p1350
g10
tp1351
(lp1352
I8
aI2
aI3
as(S'matrix'
p1353
g10
tp1354
(lp1355
I2
aI1
aI1
as(S'Mechanical'
p1356
g2
tp1357
(lp1358
I2
aI1
aI1
as(S'-Slow'
p1359
g2
tp1360
(lp1361
I1
aI1
aI2
as(S'expectations'
p1362
g131
tp1363
(lp1364
I2
aI1
aI1
as(S'Great'
p1365
g2
tp1366
(lp1367
I1
aI2
aI1
as(S'hourly'
p1368
g6
tp1369
(lp1370
I1
aI3
aI1
as(S'year'
p1371
g10
tp1372
(lp1373
I1
aI1
aI2
as(S'lateral'
p1374
g2
tp1375
(lp1376
I1
aI2
aI1
as(S'opportunity'
p1377
g10
tp1378
(lp1379
I5
aI2
aI2
as(S'with..rare'
p1380
g2
tp1381
(lp1382
I1
aI2
aI1
as(S'Japanese'
p1383
g2
tp1384
(lp1385
I1
aI1
aI6
as(S'affiliates'
p1386
g131
tp1387
(lp1388
I1
aI1
aI2
as(S'consrvatorship'
p1389
g10
tp1390
(lp1391
I2
aI1
aI1
as(S'aggressively'
p1392
g6
tp1393
(lp1394
I1
aI1
aI2
as(S'correctly'
p1395
g6
tp1396
(lp1397
I1
aI2
aI2
as(S'house'
p1398
g10
tp1399
(lp1400
I1
aI1
aI2
as(S'nonflexible'
p1401
g2
tp1402
(lp1403
I1
aI1
aI2
as(S'Ever-changing'
p1404
g2
tp1405
(lp1406
I2
aI1
aI1
as(S'similar'
p1407
g2
tp1408
(lp1409
I1
aI1
aI3
as(S'back'
p1410
g10
tp1411
(lp1412
I1
aI1
aI2
as(S'great'
p1413
g2
tp1414
(lp1415
I50
aI79
aI7
as(S'strict'
p1416
g2
tp1417
(lp1418
I1
aI1
aI2
as(S'Economic'
p1419
g2
tp1420
(lp1421
I1
aI1
aI2
as(S'career'
p1422
g10
tp1423
(lp1424
I3
aI1
aI2
as(S'lean'
p1425
g2
tp1426
(lp1427
I1
aI2
aI1
as(S'bank'
p1428
g10
tp1429
(lp1430
I2
aI1
aI1
as(S'day'
p1431
g10
tp1432
(lp1433
I1
aI1
aI2
as(S'affordable'
p1434
g2
tp1435
(lp1436
I1
aI2
aI1
as(S'history'
p1437
g10
tp1438
(lp1439
I1
aI1
aI2
as(S'okay'
p1440
g10
tp1441
(lp1442
I2
aI1
aI1
as(S'real'
p1443
g2
tp1444
(lp1445
I2
aI4
aI5
as(S'referrals,'
p1446
g2
tp1447
(lp1448
I1
aI1
aI2
as(S'performance'
p1449
g10
tp1450
(lp1451
I2
aI1
aI2
as(S'big'
p1452
g2
tp1453
(lp1454
I3
aI7
aI10
as(S'emphasis'
p1455
g10
tp1456
(lp1457
I1
aI1
aI2
as(S'excessive'
p1458
g2
tp1459
(lp1460
I2
aI1
aI1
as(S'reputable'
p1461
g2
tp1462
(lp1463
I2
aI1
aI1
as(S'culture'
p1464
g10
tp1465
(lp1466
I3
aI2
aI1
as(S'employees'
p1467
g131
tp1468
(lp1469
I5
aI4
aI6
as(S'Important'
p1470
g2
tp1471
(lp1472
I1
aI1
aI2
as(S'periods'
p1473
g131
tp1474
(lp1475
I1
aI1
aI2
as(S'inform'
p1476
g10
tp1477
(lp1478
I1
aI1
aI2
as(S'compartmentalized'
p1479
g2
tp1480
(lp1481
I1
aI1
aI2
as(S'greatly'
p1482
g6
tp1483
(lp1484
I1
aI1
aI2
as(S'trajectory'
p1485
g10
tp1486
(lp1487
I2
aI1
aI1
as(S'-Great'
p1488
g2
tp1489
(lp1490
I1
aI2
aI1
as(S'excel'
p1491
g10
tp1492
(lp1493
I2
aI1
aI1
as(S'multi-focus'
p1494
g2
tp1495
(lp1496
I1
aI2
aI1
as(S'profits'
p1497
g131
tp1498
(lp1499
I2
aI1
aI1
as(S'generous'
p1500
g2
tp1501
(lp1502
I1
aI2
aI1
as(S'wonderful'
p1503
g2
tp1504
(lp1505
I2
aI5
aI1
as(S'especially'
p1506
g6
tp1507
(lp1508
I1
aI1
aI3
as(S'fat'
p1509
g2
tp1510
(lp1511
I1
aI1
aI2
as(S'Conservative'
p1512
g2
tp1513
(lp1514
I2
aI1
aI1
as(S'benefits'
p1515
g131
tp1516
(lp1517
I4
aI2
aI1
as(S'tx'
p1518
g10
tp1519
(lp1520
I1
aI1
aI2
as(S'Corporate'
p1521
g2
tp1522
(lp1523
I1
aI3
aI2
as(S'o.t'
p1524
g2
tp1525
(lp1526
I1
aI2
aI1
as(S'late'
p1527
g2
tp1528
(lp1529
I1
aI1
aI2
as(S'life'
p1530
g10
tp1531
(lp1532
I1
aI1
aI2
as(S'balance'
p1533
g10
tp1534
(lp1535
I3
aI1
aI2
as(S'co-op'
p1536
g10
tp1537
(lp1538
I2
aI1
aI1
as(S'associates'
p1539
g131
tp1540
(lp1541
I1
aI1
aI2
as(S'optimal'
p1542
g2
tp1543
(lp1544
I1
aI1
aI2
as(S'workers'
p1545
g131
tp1546
(lp1547
I2
aI1
aI1
as(S'development'
p1548
g10
tp1549
(lp1550
I1
aI1
aI3
as(S'Years'
p1551
g131
tp1552
(lp1553
I2
aI1
aI1
as(S'sales'
p1554
g131
tp1555
(lp1556
I1
aI1
aI3
as(S'Financial'
p1557
g2
tp1558
(lp1559
I2
aI1
aI1
as(S'perhaps'
p1560
g6
tp1561
(lp1562
I1
aI1
aI2
as(S'allowing'
p1563
g10
tp1564
(lp1565
I1
aI1
aI2
as(S'skill'
p1566
g10
tp1567
(lp1568
I1
aI1
aI2
as(S'privacy'
p1569
g10
tp1570
(lp1571
I1
aI1
aI2
as(S'main'
p1572
g2
tp1573
(lp1574
I1
aI2
aI1
as(S'college'
p1575
g10
tp1576
(lp1577
I3
aI1
aI1
as(S'circumstances'
p1578
g131
tp1579
(lp1580
I2
aI1
aI1
as(S'so'
p1581
g6
tp1582
(lp1583
I2
aI5
aI5
as(S'geographical'
p1584
g2
tp1585
(lp1586
I1
aI2
aI1
as(S'department'
p1587
g10
tp1588
(lp1589
I2
aI1
aI2
as(S'ever-changing'
p1590
g2
tp1591
(lp1592
I2
aI1
aI1
as(S'Sometimes'
p1593
g6
tp1594
(lp1595
I1
aI1
aI2
as(S'full'
p1596
g2
tp1597
(lp1598
I3
aI3
aI1
as(S'yet'
p1599
g6
tp1600
(lp1601
I2
aI1
aI1
as(S'large'
p1602
g2
tp1603
(lp1604
I5
aI7
aI11
as(S'automation'
p1605
g10
tp1606
(lp1607
I2
aI1
aI1
as(S'Management'
p1608
g10
tp1609
(lp1610
I2
aI1
aI1
as(S'throat'
p1611
g2
tp1612
(lp1613
I1
aI1
aI2
as(S'downtime'
p1614
g10
tp1615
(lp1616
I1
aI1
aI2
as(S'fresh'
p1617
g2
tp1618
(lp1619
I1
aI2
aI2
as(S'employment'
p1620
g10
tp1621
(lp1622
I2
aI1
aI1
as(S'geologists'
p1623
g131
tp1624
(lp1625
I2
aI1
aI1
as(S'crap'
p1626
g10
tp1627
(lp1628
I1
aI1
aI2
as(S'hectic'
p1629
g2
tp1630
(lp1631
I1
aI1
aI2
as(S'TIght/small'
p1632
g2
tp1633
(lp1634
I1
aI1
aI2
as(S'competition'
p1635
g10
tp1636
(lp1637
I1
aI1
aI2
as(S'Relatively'
p1638
g6
tp1639
(lp1640
I1
aI2
aI1
as(S'different'
p1641
g2
tp1642
(lp1643
I1
aI22
aI5
as(S'critical'
p1644
g2
tp1645
(lp1646
I1
aI2
aI1
as(S'Often'
p1647
g6
tp1648
(lp1649
I1
aI1
aI2
as(S'conceptual'
p1650
g2
tp1651
(lp1652
I2
aI1
aI1
as(S'upstairs'
p1653
g131
tp1654
(lp1655
I1
aI1
aI2
as(S'average'
p1656
g2
tp1657
(lp1658
I1
aI7
aI2
as(S'Benifits'
p1659
g131
tp1660
(lp1661
I2
aI1
aI1
as(S'steadily'
p1662
g6
tp1663
(lp1664
I1
aI1
aI2
as(S'automotive'
p1665
g2
tp1666
(lp1667
I1
aI2
aI1
as(S'responsible'
p1668
g2
tp1669
(lp1670
I2
aI1
aI1
as(S'public'
p1671
g2
tp1672
(lp1673
I1
aI2
aI4
as(S'difficult'
p1674
g2
tp1675
(lp1676
I1
aI1
aI2
as(S'little'
p1677
g6
tp1678
(lp1679
I2
aI1
aI5
as(S'development/training'
p1680
g2
tp1681
(lp1682
I1
aI1
aI2
as(S'Vertical'
p1683
g2
tp1684
(lp1685
I1
aI1
aI2
as(S'additional'
p1686
g2
tp1687
(lp1688
I1
aI1
aI4
as(S'flexible'
p1689
g2
tp1690
(lp1691
I2
aI22
aI1
as(S'immediate'
p1692
g2
tp1693
(lp1694
I1
aI2
aI3
as(S'engineers'
p1695
g131
tp1696
(lp1697
I2
aI1
aI1
as(S'worth'
p1698
g2
tp1699
(lp1700
I1
aI2
aI1
as(S'creative'
p1701
g2
tp1702
(lp1703
I1
aI2
aI1
as(S'various'
p1704
g2
tp1705
(lp1706
I1
aI2
aI2
as(S'brands'
p1707
g131
tp1708
(lp1709
I1
aI1
aI2
as(S'Innovative'
p1710
g2
tp1711
(lp1712
I1
aI2
aI1
as(S'transistion'
p1713
g10
tp1714
(lp1715
I2
aI1
aI1
as(S'pleasant'
p1716
g2
tp1717
(lp1718
I2
aI1
aI1
as(S'Little'
p1719
g6
tp1720
(lp1721
I1
aI1
aI2
as(S'Consistently'
p1722
g6
tp1723
(lp1724
I1
aI2
aI1
as(S'ship'
p1725
g10
tp1726
(lp1727
I3
aI1
aI1
as(S'non-business'
p1728
g2
tp1729
(lp1730
I1
aI1
aI2
as(S'complain'
p1731
g10
tp1732
(lp1733
I2
aI1
aI1
as(S'mora'
p1734
g10
tp1735
(lp1736
I2
aI1
aI1
as(S'busy'
p1737
g2
tp1738
(lp1739
I1
aI1
aI2
as(S'business/department'
p1740
g2
tp1741
(lp1742
I1
aI1
aI2
as(S'white'
p1743
g2
tp1744
(lp1745
I1
aI1
aI2
as(S'Positive'
p1746
g2
tp1747
(lp1748
I4
aI1
aI1
as(S'totally'
p1749
g6
tp1750
(lp1751
I1
aI1
aI2
as(S'holidays'
p1752
g131
tp1753
(lp1754
I1
aI1
aI2
as(S'really'
p1755
g6
tp1756
(lp1757
I1
aI4
aI6
as(S'useful'
p1758
g2
tp1759
(lp1760
I1
aI2
aI1
as(S'people'
p1761
g131
tp1762
(lp1763
I8
aI2
aI3
as(S'bonus'
p1764
g10
tp1765
(lp1766
I1
aI2
aI1
as(S'security'
p1767
g10
tp1768
(lp1769
I2
aI1
aI1
as(S'effo'
p1770
g10
tp1771
(lp1772
I2
aI1
aI1
as(S'reorganizations'
p1773
g131
tp1774
(lp1775
I2
aI1
aI1
as(S'only'
p1776
g2
tp1777
(lp1778
I2
aI1
aI1
as(S'vastly'
p1779
g6
tp1780
(lp1781
I1
aI2
aI1
as(S'normal'
p1782
g2
tp1783
(lp1784
I1
aI1
aI2
as(S'easy'
p1785
g2
tp1786
(lp1787
I1
aI5
aI1
as(S"n't"
p1788
g6
tp1789
(lp1790
I5
aI3
aI36
as(S'European'
p1791
g2
tp1792
(lp1793
I1
aI2
aI1
as(S'willing'
p1794
g2
tp1795
(lp1796
I2
aI1
aI1
as(S'free'
p1797
g2
tp1798
(lp1799
I1
aI3
aI2
as(S'same'
p1800
g2
tp1801
(lp1802
I2
aI1
aI4
as(S'general'
p1803
g2
tp1804
(lp1805
I1
aI2
aI2
as(S'Highly'
p1806
g6
tp1807
(lp1808
I1
aI3
aI1
as(S'utterly'
p1809
g6
tp1810
(lp1811
I1
aI1
aI2
as(S'firm-wide'
p1812
g2
tp1813
(lp1814
I1
aI2
aI1
as(S'opportunites'
p1815
g131
tp1816
(lp1817
I2
aI1
aI1
as(S'Benefits'
p1818
g131
tp1819
(lp1820
I1
aI2
aI1
as(S'hierarchical'
p1821
g2
tp1822
(lp1823
I1
aI1
aI2
as(S'ages'
p1824
g131
tp1825
(lp1826
I2
aI1
aI1
as(S'time-consuming'
p1827
g2
tp1828
(lp1829
I2
aI1
aI1
as(S'desirable'
p1830
g2
tp1831
(lp1832
I1
aI1
aI2
as(S'fast'
p1833
g6
tp1834
(lp1835
I2
aI1
aI1
as(S'profitable'
p1836
g2
tp1837
(lp1838
I1
aI2
aI1
as(S'British'
p1839
g2
tp1840
(lp1841
I1
aI1
aI2
as(S'product'
p1842
g10
tp1843
(lp1844
I1
aI2
aI1
as(S'too'
p1845
g6
tp1846
(lp1847
I9
aI3
aI14
as(S'profile'
p1848
g10
tp1849
(lp1850
I2
aI1
aI1
as(S'corporate'
p1851
g2
tp1852
(lp1853
I6
aI4
aI10
as(S'regional'
p1854
g2
tp1855
(lp1856
I1
aI1
aI2
as(S'early'
p1857
g2
tp1858
(lp1859
I2
aI3
aI1
as(S'game'
p1860
g10
tp1861
(lp1862
I1
aI1
aI3
as(S'most'
p1863
S'RBS'
p1864
tp1865
(lp1866
I1
aI3
aI1
as(S'ride'
p1867
g10
tp1868
(lp1869
I2
aI1
aI1
as(S'ever-increasing'
p1870
g2
tp1871
(lp1872
I1
aI1
aI2
as(S'unit'
p1873
g10
tp1874
(lp1875
I1
aI1
aI2
as(S'Corporation'
p1876
g10
tp1877
(lp1878
I2
aI1
aI1
as(S'political'
p1879
g2
tp1880
(lp1881
I2
aI1
aI3
as(S'change'
p1882
g10
tp1883
(lp1884
I2
aI1
aI2
as(S'areas'
p1885
g131
tp1886
(lp1887
I2
aI1
aI2
as(S'pervasive'
p1888
g2
tp1889
(lp1890
I1
aI1
aI2
as(S'intern'
p1891
g2
tp1892
(lp1893
I1
aI1
aI2
as(S'economy'
p1894
g10
tp1895
(lp1896
I1
aI1
aI2
as(S'environment'
p1897
g10
tp1898
(lp1899
I5
aI2
aI1
as(S'togather'
p1900
g10
tp1901
(lp1902
I1
aI1
aI2
as(S'macroscopic'
p1903
g2
tp1904
(lp1905
I1
aI1
aI2
as(S'training'
p1906
g10
tp1907
(lp1908
I3
aI2
aI2
as(S'sometimes'
p1909
g6
tp1910
(lp1911
I2
aI1
aI7
as(S'individual'
p1912
g2
tp1913
(lp1914
I1
aI3
aI5
as(S'irregular'
p1915
g2
tp1916
(lp1917
I1
aI1
aI2
as(S'work/life'
p1918
g2
tp1919
(lp1920
I1
aI3
aI1
as(S'-Workable'
p1921
g2
tp1922
(lp1923
I1
aI2
aI1
as(S'banking'
p1924
g10
tp1925
(lp1926
I2
aI1
aI1
as(S'clueless'
p1927
g10
tp1928
(lp1929
I2
aI1
aI1
as(S'raises'
p1930
g131
tp1931
(lp1932
I1
aI1
aI2
as(S'research'
p1933
g10
tp1934
(lp1935
I1
aI2
aI1
as(S'innovation'
p1936
g10
tp1937
(lp1938
I1
aI1
aI2
as(S'impossible'
p1939
g2
tp1940
(lp1941
I1
aI2
aI1
as(S'Fantastic'
p1942
g2
tp1943
(lp1944
I2
aI1
aI1
as(S'still'
p1945
g6
tp1946
(lp1947
I3
aI3
aI3
as(S'monetary'
p1948
g2
tp1949
(lp1950
I1
aI1
aI2
as(S'short'
p1951
g2
tp1952
(lp1953
I1
aI4
aI5
as(S'contractors'
p1954
g131
tp1955
(lp1956
I2
aI1
aI2
as(S'far'
p1957
g6
tp1958
(lp1959
I1
aI1
aI2
as(S'offer'
p1960
g10
tp1961
(lp1962
I1
aI2
aI1
as(S'considerate'
p1963
g2
tp1964
(lp1965
I1
aI2
aI1
as(S'unrealistic'
p1966
g2
tp1967
(lp1968
I1
aI1
aI2
as(S'4-day'
p1969
g2
tp1970
(lp1971
I2
aI2
aI1
as(S'current'
p1972
g2
tp1973
(lp1974
I1
aI1
aI3
as(S'silo'
p1975
g6
tp1976
(lp1977
I1
aI1
aI2
as(S'supervisiors'
p1978
g131
tp1979
(lp1980
I2
aI1
aI1
as(S'competitors'
p1981
g131
tp1982
(lp1983
I1
aI1
aI2
as(S'only'
p1984
g6
tp1985
(lp1986
I3
aI1
aI6
as(S'better'
p1987
g285
tp1988
(lp1989
I1
aI1
aI3
as(S'else'
p1990
g6
tp1991
(lp1992
I1
aI1
aI2
as(S'Medical'
p1993
g2
tp1994
(lp1995
I1
aI1
aI2
as(S'team-oriented'
p1996
g2
tp1997
(lp1998
I1
aI2
aI1
as(S'homeless'
p1999
g2
tp2000
(lp2001
I1
aI1
aI2
as(S'such'
p2002
g2
tp2003
(lp2004
I1
aI1
aI2
as(S'price'
p2005
g10
tp2006
(lp2007
I2
aI1
aI1
as(S'toyota'
p2008
g10
tp2009
(lp2010
I2
aI1
aI1
as(S'operations'
p2011
g131
tp2012
(lp2013
I1
aI1
aI2
as(S'few'
p2014
g2
tp2015
(lp2016
I4
aI2
aI8
as(S'acceptable'
p2017
g2
tp2018
(lp2019
I1
aI2
aI1
as(S'aspect'
p2020
g10
tp2021
(lp2022
I2
aI1
aI1
as(S'-Poor'
p2023
g2
tp2024
(lp2025
I1
aI1
aI2
as(S'direct'
p2026
g2
tp2027
(lp2028
I1
aI1
aI3
as(S'managerial'
p2029
g2
tp2030
(lp2031
I1
aI1
aI2
as(S'superior'
p2032
g2
tp2033
(lp2034
I2
aI1
aI1
as(S'sears'
p2035
g131
tp2036
(lp2037
I2
aI1
aI1
as(S'tremendous'
p2038
g2
tp2039
(lp2040
I1
aI2
aI2
as(S'wildly'
p2041
g6
tp2042
(lp2043
I1
aI1
aI2
as(S'Repetitive'
p2044
g2
tp2045
(lp2046
I1
aI1
aI2
as(S'times'
p2047
g131
tp2048
(lp2049
I3
aI1
aI2
as(S'first'
p2050
g2
tp2051
(lp2052
I4
aI2
aI3
as(S'High'
p2053
g2
tp2054
(lp2055
I1
aI4
aI5
as(S'crises'
p2056
g131
tp2057
(lp2058
I1
aI1
aI2
as(S'process'
p2059
g10
tp2060
(lp2061
I2
aI1
aI3
as(S'eventually'
p2062
g6
tp2063
(lp2064
I1
aI1
aI2
as(S'not-so-great'
p2065
g2
tp2066
(lp2067
I2
aI1
aI1
as(S'negative'
p2068
g2
tp2069
(lp2070
I2
aI1
aI6
as(S'stores'
p2071
g131
tp2072
(lp2073
I1
aI2
aI1
as(S'again'
p2074
g6
tp2075
(lp2076
I2
aI1
aI1
as(S'end'
p2077
g10
tp2078
(lp2079
I1
aI1
aI3
as(S'-Old'
p2080
g2
tp2081
(lp2082
I1
aI1
aI2
as(S'progress'
p2083
g10
tp2084
(lp2085
I1
aI1
aI2
as(S'flexibility'
p2086
g10
tp2087
(lp2088
I1
aI2
aI1
as(S'recently'
p2089
g6
tp2090
(lp2091
I1
aI1
aI2
as(S'environme'
p2092
g10
tp2093
(lp2094
I2
aI1
aI1
as(S'fair'
p2095
g2
tp2096
(lp2097
I2
aI3
aI1
as(S'something'
p2098
g10
tp2099
(lp2100
I1
aI3
aI1
as(S'Continuously'
p2101
g6
tp2102
(lp2103
I1
aI2
aI1
as(S'movement'
p2104
g10
tp2105
(lp2106
I1
aI2
aI1
as(S'enough'
p2107
g6
tp2108
(lp2109
I2
aI1
aI4
as(S'entire'
p2110
g2
tp2111
(lp2112
I1
aI2
aI1
as(S'Looks'
p2113
g131
tp2114
(lp2115
I1
aI2
aI1
as(S'challenge'
p2116
g10
tp2117
(lp2118
I2
aI1
aI1
as(S'centers'
p2119
g131
tp2120
(lp2121
I1
aI1
aI2
as(S'maintain'
p2122
g6
tp2123
(lp2124
I1
aI1
aI2
as(S'Internship'
p2125
g10
tp2126
(lp2127
I2
aI1
aI1
as(S'large-scale'
p2128
g2
tp2129
(lp2130
I1
aI2
aI1
as(S'delays'
p2131
g131
tp2132
(lp2133
I1
aI1
aI2
as(S'painless'
p2134
g10
tp2135
(lp2136
I2
aI1
aI1
as(S'vision'
p2137
g10
tp2138
(lp2139
I1
aI1
aI2
as(S'stability'
p2140
g10
tp2141
(lp2142
I1
aI1
aI2
as(S'ground'
p2143
g10
tp2144
(lp2145
I2
aI1
aI1
as(S'national'
p2146
g2
tp2147
(lp2148
I1
aI3
aI1
as(S'ethical'
p2149
g2
tp2150
(lp2151
I1
aI2
aI1
as(S'processes'
p2152
g131
tp2153
(lp2154
I2
aI1
aI2
as(S'Personal'
p2155
g2
tp2156
(lp2157
I4
aI1
aI1
as(S'company'
p2158
g10
tp2159
(lp2160
I20
aI3
aI10
as(S'boa'
p2161
g10
tp2162
(lp2163
I2
aI1
aI1
as(S'downsides'
p2164
g131
tp2165
(lp2166
I1
aI1
aI2
as(S'positions'
p2167
g131
tp2168
(lp2169
I2
aI1
aI1
as(S'workweek'
p2170
g10
tp2171
(lp2172
I2
aI1
aI1
as(S'future'
p2173
g2
tp2174
(lp2175
I1
aI2
aI2
as(S'Strong'
p2176
g2
tp2177
(lp2178
I1
aI5
aI2
as(S'grow'
p2179
g10
tp2180
(lp2181
I3
aI1
aI1
as(S'Under-appreciated'
p2182
g2
tp2183
(lp2184
I2
aI1
aI1
as(S'huge'
p2185
g2
tp2186
(lp2187
I1
aI1
aI7
as(S'name'
p2188
g10
tp2189
(lp2190
I2
aI1
aI1
as(S'dogs'
p2191
g131
tp2192
(lp2193
I1
aI1
aI2
as(S'never'
p2194
g6
tp2195
(lp2196
I2
aI2
aI5
as(S'arrogant'
p2197
g2
tp2198
(lp2199
I1
aI1
aI2
as(S'meritocracy'
p2200
g10
tp2201
(lp2202
I1
aI1
aI2
as(S'movemoent'
p2203
g2
tp2204
(lp2205
I2
aI1
aI1
as(S'constant'
p2206
g2
tp2207
(lp2208
I2
aI4
aI3
as(S'sometime'
p2209
g2
tp2210
(lp2211
I1
aI2
aI1
as(S'way'
p2212
g10
tp2213
(lp2214
I2
aI1
aI1
as(S'often'
p2215
g6
tp2216
(lp2217
I1
aI1
aI2
as(S'challenges'
p2218
g131
tp2219
(lp2220
I4
aI1
aI1
as(S'Retail'
p2221
g2
tp2222
(lp2223
I1
aI1
aI3
as(S'intellectual'
p2224
g2
tp2225
(lp2226
I1
aI2
aI2
as(S'needs'
p2227
g131
tp2228
(lp2229
I2
aI1
aI2
as(S'leadership'
p2230
g10
tp2231
(lp2232
I1
aI1
aI2
as(S'mentorship/training'
p2233
g2
tp2234
(lp2235
I1
aI1
aI2
as(S'positive'
p2236
g2
tp2237
(lp2238
I3
aI3
aI1
as(S'technologies'
p2239
g131
tp2240
(lp2241
I2
aI1
aI1
as(S'knowledge'
p2242
g10
tp2243
(lp2244
I2
aI1
aI1
as(S'mutual'
p2245
g2
tp2246
(lp2247
I1
aI2
aI1
as(S'soon-to-be-completed'
p2248
g2
tp2249
(lp2250
I1
aI2
aI1
as(S'place'
p2251
g10
tp2252
(lp2253
I3
aI1
aI2
as(S'Family'
p2254
g6
tp2255
(lp2256
I1
aI2
aI1
as(S'not'
p2257
g6
tp2258
(lp2259
I12
aI5
aI44
as(S'leaders'
p2260
g131
tp2261
(lp2262
I1
aI1
aI2
as(S'organic'
p2263
g2
tp2264
(lp2265
I1
aI1
aI2
as(S'Junior-level'
p2266
g2
tp2267
(lp2268
I1
aI1
aI2
as(S'fellow'
p2269
g2
tp2270
(lp2271
I1
aI2
aI1
as(S'Part-time'
p2272
g2
tp2273
(lp2274
I1
aI1
aI2
as(S'particular'
p2275
g2
tp2276
(lp2277
I1
aI2
aI1
as(S'industry'
p2278
g10
tp2279
(lp2280
I2
aI2
aI3
as(S'nice'
p2281
g2
tp2282
(lp2283
I5
aI4
aI1
as(S'bag'
p2284
g10
tp2285
(lp2286
I2
aI1
aI1
as(S'('
p2287
g10
tp2288
(lp2289
I1
aI1
aI2
as(S'supportive'
p2290
g2
tp2291
(lp2292
I3
aI3
aI1
as(S'group'
p2293
g10
tp2294
(lp2295
I2
aI1
aI1
as(S'terrible'
p2296
g2
tp2297
(lp2298
I1
aI1
aI3
as(S'cafeteria,'
p2299
g10
tp2300
(lp2301
I1
aI1
aI2
as(S'chase'
p2302
g10
tp2303
(lp2304
I2
aI1
aI1
as(S'limited'
p2305
g2
tp2306
(lp2307
I1
aI1
aI2
as(S'Short'
p2308
g2
tp2309
(lp2310
I1
aI1
aI2
as(S'unclear'
p2311
g2
tp2312
(lp2313
I2
aI1
aI1
as(S'human'
p2314
g2
tp2315
(lp2316
I1
aI1
aI2
as(S'blocks'
p2317
g131
tp2318
(lp2319
I1
aI1
aI2
as(S'unstoppable'
p2320
g2
tp2321
(lp2322
I2
aI1
aI1
as(S'job'
p2323
g10
tp2324
(lp2325
I4
aI1
aI3
as(S'actual'
p2326
g2
tp2327
(lp2328
I2
aI1
aI3
as(S'properly'
p2329
g6
tp2330
(lp2331
I1
aI1
aI2
as(S'ample'
p2332
g2
tp2333
(lp2334
I1
aI3
aI1
as(S'stressful'
p2335
g2
tp2336
(lp2337
I2
aI2
aI1
as(S'probably'
p2338
g6
tp2339
(lp2340
I1
aI1
aI2
as(S'basic'
p2341
g2
tp2342
(lp2343
I3
aI2
aI1
as(S'*Better'
p2344
g2
tp2345
(lp2346
I1
aI2
aI1
as.