(dp0
((S'fundamental'
p1
S'JJ'
p2
tp3
(S'training'
p4
S'NN'
p5
tp6
tp7
I1
s((S'good'
p8
g2
tp9
(S'employer'
p10
g5
tp11
tp12
I1
s((S'appropriate'
p13
g2
tp14
(S'position'
p15
g5
tp16
tp17
I1
s((S'low'
p18
g2
tp19
(S'morale'
p20
g5
tp21
tp22
I3
s((S'open'
p23
g2
tp24
(S'culture'
p25
g5
tp26
tp27
I1
s((S'always'
p28
S'RB'
p29
tp30
(S'good'
p31
g2
tp32
tp33
I1
s((S'personal'
p34
g2
tp35
(S'communication'
p36
g5
tp37
tp38
I1
s((S'new'
p39
g2
tp40
(S'technologies'
p41
S'NNS'
p42
tp43
tp44
I1
s((S'only'
p45
g29
tp46
(S'tolerated'
p47
S'VBN'
p48
tp49
tp50
I1
s((S'adequate'
p51
g2
tp52
(S'breaks'
p53
g42
tp54
tp55
I1
s((S'medical'
p56
g2
tp57
(S'support'
p58
g5
tp59
tp60
I1
s((S'many'
p61
g2
tp62
(S'breaks'
p63
g42
tp64
tp65
I1
s((S'Always'
p66
g29
tp67
(S'working'
p68
S'VBG'
p69
tp70
tp71
I1
s((S'Fantastic'
p72
g2
tp73
(S'environment'
p74
g5
tp75
tp76
I1
s((S'corporate'
p77
g2
tp78
(S'level'
p79
g5
tp80
tp81
I2
s((S'competitive'
p82
g2
tp83
(S'pay'
p84
g5
tp85
tp86
I1
s((S'short'
p87
g2
tp88
(S'term'
p89
g5
tp90
tp91
I3
s((S'difficult'
p92
g2
tp93
(S'move'
p94
g5
tp95
tp96
I1
s((S'certain'
p97
g2
tp98
(S'items'
p99
g42
tp100
tp101
I1
s((S'truly'
p102
g29
tp103
(S'competitive'
p104
g2
tp105
tp106
I1
s((S'great'
p107
g2
tp108
(S'brands'
p109
g42
tp110
tp111
I2
s((S'incredible'
p112
g2
tp113
(S'talent'
p114
g5
tp115
tp116
I1
s((S'good'
p117
g2
tp118
(S'design'
p119
g5
tp120
tp121
I1
s((S'sometimes'
p122
g29
tp123
(S'slow'
p124
g2
tp125
tp126
I1
s((S'inflexible'
p127
g2
tp128
(S'schedules'
p129
g42
tp130
tp131
I1
s((S'other'
p132
g2
tp133
(S'parts'
p134
g42
tp135
tp136
I1
s((S'many'
p137
g2
tp138
(S'industries'
p139
g42
tp140
tp141
I1
s((S'constant'
p142
g2
tp143
(S'reorganizations'
p144
g42
tp145
tp146
I1
s((S"n't"
p147
g29
tp148
(S'use'
p149
S'VB'
p150
tp151
tp152
I1
s((S'extra'
p153
g2
tp154
(S'day'
p155
g5
tp156
tp157
I1
s((S'reasonable'
p158
g2
tp159
(S'pay'
p160
g5
tp161
tp162
I2
s((S'significant'
p163
g2
tp164
(S'self'
p165
g5
tp166
tp167
I1
s((S'great'
p168
g2
tp169
(S'health'
p170
g5
tp171
tp172
I2
s((S'Extremely'
p173
g29
tp174
(S'dependent'
p175
S'VBD'
p176
tp177
tp178
I1
s((S'great'
p179
g2
tp180
(S'store'
p181
g5
tp182
tp183
I1
s((S'large'
p184
g2
tp185
(S'systems'
p186
g42
tp187
tp188
I1
s((S'bad'
p189
g2
tp190
(S'apples'
p191
g42
tp192
tp193
I1
s((S'too'
p194
g29
tp195
(S'competitive'
p196
g2
tp197
tp198
I1
s((S'real'
p199
g2
tp200
(S'experience'
p201
g5
tp202
tp203
I1
s((S'never'
p204
g29
tp205
(S'had'
p206
g176
tp207
tp208
I1
s((S'early'
p209
g2
tp210
(S'career'
p211
g5
tp212
tp213
I1
s((S'awful'
p214
g2
tp215
(S'location'
p216
g5
tp217
tp218
I1
s((S'new'
p219
g2
tp220
(S'projects'
p221
g42
tp222
tp223
I1
s((S'complex'
p224
g2
tp225
(S'structure'
p226
g5
tp227
tp228
I1
s((S'common'
p229
g2
tp230
(S'sense'
p231
g5
tp232
tp233
I1
s((S'bad'
p234
g2
tp235
(S'cafeteria'
p236
g5
tp237
tp238
I1
s((S'global'
p239
g2
tp240
(S'economy'
p241
g5
tp242
tp243
I1
s((S'great'
p244
g2
tp245
(S'pay'
p246
g5
tp247
tp248
I2
s((S'very'
p249
g29
tp250
(S'few'
p251
g2
tp252
tp253
I1
s((S'many'
p254
g2
tp255
(S'problems'
p256
g42
tp257
tp258
I1
s((S'Not'
p259
g29
tp260
(S'rewarding'
p261
g69
tp262
tp263
I1
s((S'flexible'
p264
g2
tp265
(S'working'
p266
g5
tp267
tp268
I3
s((S'very'
p269
g29
tp270
(S'technical'
p271
g2
tp272
tp273
I1
s((S'different'
p274
g2
tp275
(S'positions'
p276
g42
tp277
tp278
I1
s((S'marketable'
p279
g2
tp280
(S'skills'
p281
g42
tp282
tp283
I1
s((S'many'
p284
g2
tp285
(S'field'
p286
g5
tp287
tp288
I1
s((S'optimal'
p289
g2
tp290
(S'rate'
p291
g5
tp292
tp293
I1
s((S'minutes'
p294
g42
tp295
(S'later'
p296
g2
tp297
tp298
I1
s((S'Casual'
p299
g2
tp300
(S'environment'
p301
g5
tp302
tp303
I1
s((S'hourly'
p304
g29
tp305
(S'salary'
p306
g2
tp307
tp308
I1
s((S'-Arrogant'
p309
g2
tp310
(S'management'
p311
g5
tp312
tp313
I1
s((S'necessary'
p314
g2
tp315
(S'skills'
p316
g42
tp317
tp318
I1
s((S'quick'
p319
g2
tp320
(S'hiring'
p321
g5
tp322
tp323
I1
s((S'bad'
p324
g2
tp325
(S'exsperince'
p326
g5
tp327
tp328
I1
s((S'good'
p329
g2
tp330
(S'communication'
p331
g5
tp332
tp333
I1
s((S'strong'
p334
g2
tp335
(S'fiefdoms'
p336
g42
tp337
tp338
I1
s((S'great'
p339
g2
tp340
(S'visibility'
p341
g5
tp342
tp343
I1
s((S'forward'
p344
g29
tp345
(S'leaning'
p346
g69
tp347
tp348
I1
s((S'worth'
p349
g2
tp350
(S'putting'
p351
g5
tp352
tp353
I1
s((S'little'
p354
g2
tp355
(S'interest'
p356
g5
tp357
tp358
I1
s((S'many'
p359
g2
tp360
(S'systems'
p361
g42
tp362
tp363
I2
s((S'many'
p364
g2
tp365
(S'countries'
p366
g42
tp367
tp368
I1
s((S'Medical'
p369
g2
tp370
(S'benefits'
p371
g42
tp372
tp373
I1
s((S'allowing'
p374
g5
tp375
(S'previous'
p376
g2
tp377
tp378
I1
s((S'professional'
p379
g2
tp380
(S'workforce'
p381
g5
tp382
tp383
I1
s((S'different'
p384
g2
tp385
(S'personalities'
p386
g42
tp387
tp388
I1
s((S'not'
p389
g29
tp390
(S'great'
p391
g2
tp392
tp393
I4
s((S'frugal'
p394
g2
tp395
(S'environment'
p396
g5
tp397
tp398
I1
s((S'good'
p399
g2
tp400
(S'Benefits'
p401
g42
tp402
tp403
I1
s((S'even'
p404
g29
tp405
(S'simple'
p406
g150
tp407
tp408
I1
s((S'Large'
p409
g2
tp410
(S'organization'
p411
g5
tp412
tp413
I2
s((S'eventually'
p414
g29
tp415
(S'leaving'
p416
g69
tp417
tp418
I1
s((S'creative'
p419
g2
tp420
(S'people'
p421
g42
tp422
tp423
I1
s((S'sucks'
p424
g42
tp425
(S'bad'
p426
g2
tp427
tp428
I1
s((S'well'
p429
g29
tp430
(S'managed'
p431
g48
tp432
tp433
I1
s((S'highly'
p434
g29
tp435
(S'valued'
p436
g48
tp437
tp438
I1
s((S'great'
p439
g2
tp440
(S'customer'
p441
g5
tp442
tp443
I1
s((S'Bad'
p444
g2
tp445
(S'atmosphere'
p446
g5
tp447
tp448
I1
s((S'nice'
p449
g2
tp450
(S'co-workers'
p451
g42
tp452
tp453
I1
s((S'too'
p454
g29
tp455
(S'heavy'
p456
g2
tp457
tp458
I1
s((S'comfortable'
p459
g2
tp460
(S'work'
p461
g5
tp462
tp463
I2
s((S'endless'
p464
g2
tp465
(S'potential'
p466
g2
tp467
tp468
I1
s((S'glorious'
p469
g2
tp470
(S'past'
p471
g5
tp472
tp473
I1
s((S'good'
p474
g2
tp475
(S'food'
p476
g5
tp477
tp478
I1
s((S'many'
p479
g2
tp480
(S'categories'
p481
g42
tp482
tp483
I1
s((S'many'
p484
g2
tp485
(S'meetings'
p486
g42
tp487
tp488
I1
s((S"n't"
p489
g29
tp490
(S'stay'
p491
g150
tp492
tp493
I1
s((S'good'
p494
g2
tp495
(S'teammates'
p496
g42
tp497
tp498
I1
s((S'different'
p499
g2
tp500
(S'businesses'
p501
g42
tp502
tp503
I1
s((S'wrong'
p504
g2
tp505
(S'people'
p506
g42
tp507
tp508
I1
s((S'direct'
p509
g2
tp510
(S'management'
p511
g5
tp512
tp513
I1
s((S'organizational'
p514
g2
tp515
(S'changes'
p516
g42
tp517
tp518
I1
s((S'Stable'
p519
g2
tp520
(S'company'
p521
g5
tp522
tp523
I2
s((S'specific'
p524
g2
tp525
(S'answer'
p526
g5
tp527
tp528
I1
s((S'too'
p529
g29
tp530
(S'focused'
p531
g48
tp532
tp533
I2
s((S'desirable'
p534
g2
tp535
(S'place'
p536
g5
tp537
tp538
I1
s((S'competitive'
p539
g2
tp540
(S'salary'
p541
g5
tp542
tp543
I1
s((S'-Poor'
p544
g2
tp545
(S'Management'
p546
g5
tp547
tp548
I1
s((S'unclear'
p549
g2
tp550
(S'career'
p551
g5
tp552
tp553
I1
s((S"n't"
p554
g29
tp555
(S'mean'
p556
g150
tp557
tp558
I1
s((S'Global'
p559
g2
tp560
(S'leader'
p561
g5
tp562
tp563
I1
s((S'reasonable'
p564
g2
tp565
(S'freedom'
p566
g5
tp567
tp568
I1
s((S'strong'
p569
g2
tp570
(S'relationships'
p571
g42
tp572
tp573
I1
s((S'lifestyle'
p574
g5
tp575
(S'flexible'
p576
g2
tp577
tp578
I1
s((S'completely'
p579
g29
tp580
(S'in-house'
p581
g2
tp582
tp583
I1
s((S'macroscopic'
p584
g2
tp585
(S'decisions'
p586
g42
tp587
tp588
I1
s((S'different'
p589
g2
tp590
(S'opportunities'
p591
g42
tp592
tp593
I2
s((S'stressful'
p594
g2
tp595
(S'place'
p596
g5
tp597
tp598
I1
s((S'arrogant'
p599
g2
tp600
(S'staff'
p601
g5
tp602
tp603
I1
s((S"n't"
p604
g29
tp605
(S'work'
p606
g150
tp607
tp608
I1
s((S'fairly'
p609
g29
tp610
(S'easy'
p611
g2
tp612
tp613
I1
s((S'long'
p614
g2
tp615
(S'list'
p616
g5
tp617
tp618
I1
s((S'first'
p619
g2
tp620
(S'better'
p621
g5
tp622
tp623
I1
s((S'Free-Fire'
p624
g2
tp625
(S'Zone'
p626
g5
tp627
tp628
I1
s((S'entire'
p629
g2
tp630
(S'housing'
p631
g5
tp632
tp633
I1
s((S'competitive'
p634
g2
tp635
(S'salaries'
p636
g42
tp637
tp638
I1
s((S'*Great'
p639
g2
tp640
(S'benefits'
p641
g42
tp642
tp643
I1
s((S'good'
p644
g2
tp645
(S'appreciation'
p646
g5
tp647
tp648
I1
s((S'global'
p649
g2
tp650
(S'operations'
p651
g42
tp652
tp653
I1
s((S'nice'
p654
g2
tp655
(S'bonus'
p656
g5
tp657
tp658
I1
s((S'pretty'
p659
g29
tp660
(S'lacking'
p661
g69
tp662
tp663
I1
s((S'own'
p664
g2
tp665
(S'self'
p666
g5
tp667
tp668
I1
s((S'different'
p669
g2
tp670
(S'business'
p671
g5
tp672
tp673
I2
s((S"n't"
p674
g29
tp675
(S'do'
p676
g150
tp677
tp678
I1
s((S'always'
p679
g29
tp680
(S'wanting'
p681
g69
tp682
tp683
I1
s((S"n't"
p684
g29
tp685
(S'find'
p686
g150
tp687
tp688
I1
s((S'great'
p689
g2
tp690
(S'people'
p691
g42
tp692
tp693
I13
s((S'sometimes'
p694
g29
tp695
(S'hindering'
p696
g69
tp697
tp698
I1
s((S'then'
p699
g29
tp700
(S'many'
p701
g2
tp702
tp703
I1
s((S'first'
p704
g2
tp705
(S'job'
p706
g5
tp707
tp708
I1
s((S'very'
p709
g29
tp710
(S'mundane'
p711
g2
tp712
tp713
I1
s((S'REALLY'
p714
g29
tp715
(S'nice'
p716
g2
tp717
tp718
I1
s((S'good'
p719
g2
tp720
(S'sometimes'
p721
g42
tp722
tp723
I1
s((S'sprawling'
p724
g2
tp725
(S'bureaucracy'
p726
g5
tp727
tp728
I1
s((S'not'
p729
g29
tp730
(S'qualified'
p731
g48
tp732
tp733
I1
s((S'strong'
p734
g2
tp735
(S'skill'
p736
g5
tp737
tp738
I1
s((S'great'
p739
g2
tp740
(S'name'
p741
g5
tp742
tp743
I1
s((S'full'
p744
g2
tp745
(S'effo'
p746
g5
tp747
tp748
I1
s((S'always'
p749
g29
tp750
(S'do'
p751
g150
tp752
tp753
I1
s((S'large'
p754
g2
tp755
(S'swings'
p756
g42
tp757
tp758
I1
s((S'generally'
p759
g29
tp760
(S'understanding'
p761
g69
tp762
tp763
I1
s((S'Japanese'
p764
g2
tp765
(S'work'
p766
g5
tp767
tp768
I1
s((S'financial'
p769
g2
tp770
(S'services'
p771
g42
tp772
tp773
I3
s((S'open'
p774
g2
tp775
(S'management'
p776
g5
tp777
tp778
I1
s((S'not'
p779
g29
tp780
(S'rewarded'
p781
g48
tp782
tp783
I1
s((S'top'
p784
g2
tp785
(S'notch'
p786
g5
tp787
tp788
I5
s((S'Repetitive'
p789
g2
tp790
(S'work'
p791
g5
tp792
tp793
I1
s((S'other'
p794
g2
tp795
(S'companies'
p796
g42
tp797
tp798
I3
s((S'only'
p799
g29
tp800
(S'offered'
p801
g48
tp802
tp803
I1
s((S'much'
p804
g2
tp805
(S'workload'
p806
g5
tp807
tp808
I1
s((S'same'
p809
g2
tp810
(S'grade'
p811
g5
tp812
tp813
I1
s((S'always'
p814
g29
tp815
(S'placing'
p816
g69
tp817
tp818
I1
s((S'not'
p819
g29
tp820
(S'been'
p821
g48
tp822
tp823
I1
s((S'strong'
p824
g2
tp825
(S'leadership'
p826
g5
tp827
tp828
I1
s((S'constant'
p829
g2
tp830
(S'improvement'
p831
g5
tp832
tp833
I1
s((S'very'
p834
g29
tp835
(S'big'
p836
g2
tp837
tp838
I1
s((S'very'
p839
g29
tp840
(S'easy'
p841
g2
tp842
tp843
I1
s((S'bureaucratic'
p844
g2
tp845
(S'organization'
p846
g5
tp847
tp848
I1
s((S'other'
p849
g2
tp850
(S'groups'
p851
g42
tp852
tp853
I1
s((S'big'
p854
g2
tp855
(S'picture'
p856
g5
tp857
tp858
I1
s((S'always'
p859
g29
tp860
(S'preferable'
p861
g2
tp862
tp863
I1
s((S'little'
p864
g29
tp865
(S'hectic'
p866
g2
tp867
tp868
I1
s((S'Ridiculous'
p869
g2
tp870
(S'salary'
p871
g5
tp872
tp873
I1
s((S'and/or'
p874
g2
tp875
(S'bonuses'
p876
g42
tp877
tp878
I1
s((S'recreational'
p879
g2
tp880
(S'facilities'
p881
g42
tp882
tp883
I1
s((S'fellow'
p884
g2
tp885
(S'interns'
p886
g42
tp887
tp888
I1
s((S'-Great'
p889
g2
tp890
(S'team'
p891
g5
tp892
tp893
I1
s((S"n't"
p894
g29
tp895
(S'want'
p896
g150
tp897
tp898
I1
s((S'huge'
p899
g2
tp900
(S'selection'
p901
g5
tp902
tp903
I1
s((S'Many'
p904
g2
tp905
(S'layoffs'
p906
g42
tp907
tp908
I1
s((S'high'
p909
g2
tp910
(S'standards'
p911
g42
tp912
tp913
I1
s((S'negative'
p914
g2
tp915
(S'aspects'
p916
g42
tp917
tp918
I1
s((S'great'
p919
g2
tp920
(S'bonuses'
p921
g42
tp922
tp923
I1
s((S'High'
p924
g2
tp925
(S'expectations'
p926
g42
tp927
tp928
I1
s((S'really'
p929
g29
tp930
(S'liked'
p931
g176
tp932
tp933
I1
s((S'friendly'
p934
g2
tp935
(S'company'
p936
g5
tp937
tp938
I1
s((S'not'
p939
g29
tp940
(S'meeting'
p941
g69
tp942
tp943
I1
s((S'Bad'
p944
g2
tp945
(S'Management'
p946
g5
tp947
tp948
I1
s((S'new'
p949
g2
tp950
(S'idea'
p951
g5
tp952
tp953
I1
s((S'even'
p954
g29
tp955
(S'having'
p956
g69
tp957
tp958
I1
s((S'Too'
p959
g29
tp960
(S'many'
p961
g2
tp962
tp963
I3
s((S'conservative'
p964
g2
tp965
(S'company'
p966
g5
tp967
tp968
I1
s((S'retail'
p969
g2
tp970
(S'stores'
p971
g42
tp972
tp973
I1
s((S'bit'
p974
g5
tp975
(S'ambiguous'
p976
g2
tp977
tp978
I1
s((S'reasonably'
p979
g29
tp980
(S'achieve'
p981
g150
tp982
tp983
I1
s((S'Horrible'
p984
g2
tp985
(S'morale'
p986
g5
tp987
tp988
I1
s((S'store..excellent'
p989
g2
tp990
(S'logistics'
p991
g42
tp992
tp993
I1
s((S'new'
p994
g2
tp995
(S'features'
p996
g42
tp997
tp998
I1
s((S'current'
p999
g2
tp1000
(S'managment'
p1001
g5
tp1002
tp1003
I1
s((S'very'
p1004
g29
tp1005
(S'beneficial'
p1006
g2
tp1007
tp1008
I1
s((S'then'
p1009
g29
tp1010
(S'give'
p1011
g150
tp1012
tp1013
I1
s((S'high'
p1014
g2
tp1015
(S'expectations'
p1016
g42
tp1017
tp1018
I3
s((S'good'
p1019
g2
tp1020
(S'manager'
p1021
g5
tp1022
tp1023
I2
s((S'sometimes'
p1024
g29
tp1025
(S'make'
p1026
g150
tp1027
tp1028
I1
s((S'break-through'
p1029
g2
tp1030
(S'technology'
p1031
g5
tp1032
tp1033
I1
s((S'different'
p1034
g2
tp1035
(S'team'
p1036
g5
tp1037
tp1038
I1
s((S'high'
p1039
g2
tp1040
(S'aptitude'
p1041
g5
tp1042
tp1043
I1
s((S'many'
p1044
g2
tp1045
(S'hours'
p1046
g42
tp1047
tp1048
I2
s((S'new'
p1049
g2
tp1050
(S'hire'
p1051
g5
tp1052
tp1053
I2
s((S'many'
p1054
g2
tp1055
(S'initiatives'
p1056
g42
tp1057
tp1058
I1
s((S'global'
p1059
g2
tp1060
(S'opportunities'
p1061
g42
tp1062
tp1063
I1
s((S'always'
p1064
g29
tp1065
(S'listen'
p1066
g48
tp1067
tp1068
I1
s((S'big'
p1069
g2
tp1070
(S'brother'
p1071
g5
tp1072
tp1073
I1
s((S'very'
p1074
g29
tp1075
(S'understanding'
p1076
g69
tp1077
tp1078
I1
s((S'not'
p1079
g29
tp1080
(S'interfering'
p1081
g69
tp1082
tp1083
I1
s((S'Not'
p1084
g29
tp1085
(S'much'
p1086
g2
tp1087
tp1088
I1
s((S'else'
p1089
g29
tp1090
(S'acquired'
p1091
g48
tp1092
tp1093
I1
s((S'equitqable'
p1094
g2
tp1095
(S'career'
p1096
g5
tp1097
tp1098
I1
s((S'Economic'
p1099
g2
tp1100
(S'climate'
p1101
g5
tp1102
tp1103
I1
s((S'large'
p1104
g2
tp1105
(S'companies'
p1106
g42
tp1107
tp1108
I2
s((S'firm-wide'
p1109
g2
tp1110
(S'vision'
p1111
g5
tp1112
tp1113
I1
s((S'much'
p1114
g29
tp1115
(S'hidden'
p1116
g48
tp1117
tp1118
I1
s((S'very'
p1119
g29
tp1120
(S'much'
p1121
g2
tp1122
tp1123
I1
s((S'pleasant'
p1124
g2
tp1125
(S'environment'
p1126
g5
tp1127
tp1128
I1
s((S'Japanese'
p1129
g2
tp1130
(S'language'
p1131
g5
tp1132
tp1133
I1
s((S'too'
p1134
g29
tp1135
(S'academic'
p1136
g2
tp1137
tp1138
I1
s((S'many'
p1139
g2
tp1140
(S'managers'
p1141
g42
tp1142
tp1143
I1
s((S'Positive'
p1144
g2
tp1145
(S'experience'
p1146
g5
tp1147
tp1148
I1
s((S'great'
p1149
g2
tp1150
(S'Company'
p1151
g5
tp1152
tp1153
I1
s((S'great'
p1154
g2
tp1155
(S'place'
p1156
g5
tp1157
tp1158
I21
s((S'Competitive'
p1159
g2
tp1160
(S'pay'
p1161
g5
tp1162
tp1163
I2
s((S'executive'
p1164
g2
tp1165
(S'level'
p1166
g5
tp1167
tp1168
I1
s((S'next'
p1169
g2
tp1170
(S'reduction'
p1171
g5
tp1172
tp1173
I1
s((S'great'
p1174
g2
tp1175
(S'employees'
p1176
g42
tp1177
tp1178
I1
s((S'more'
p1179
S'RBR'
p1180
tp1181
(S'based'
p1182
g48
tp1183
tp1184
I1
s((S'end'
p1185
g5
tp1186
(S'relative'
p1187
g2
tp1188
tp1189
I1
s((S'stable'
p1190
g2
tp1191
(S'job'
p1192
g5
tp1193
tp1194
I2
s((S'necessarily'
p1195
g29
tp1196
(S'be'
p1197
g150
tp1198
tp1199
I1
s((S'never'
p1200
g29
tp1201
(S'knew'
p1202
g176
tp1203
tp1204
I1
s((S'signifcant'
p1205
g2
tp1206
(S'opportunity'
p1207
g5
tp1208
tp1209
I1
s((S'recently'
p1210
g29
tp1211
(S'read'
p1212
g150
tp1213
tp1214
I1
s((S'great'
p1215
g2
tp1216
(S'management'
p1217
g5
tp1218
tp1219
I1
s((S'flexible'
p1220
g2
tp1221
(S'due'
p1222
g2
tp1223
tp1224
I1
s((S'high'
p1225
g2
tp1226
(S'production'
p1227
g5
tp1228
tp1229
I1
s((S'only'
p1230
g29
tp1231
(S'promote'
p1232
g150
tp1233
tp1234
I1
s((S'great'
p1235
g2
tp1236
(S'environment'
p1237
g5
tp1238
tp1239
I2
s((S'strong'
p1240
g2
tp1241
(S'brands'
p1242
g42
tp1243
tp1244
I1
s((S'wide'
p1245
g2
tp1246
(S'variety'
p1247
g5
tp1248
tp1249
I5
s((S'history'
p1250
g5
tp1251
(S'Over-subscribed'
p1252
g2
tp1253
tp1254
I1
s((S'Strong'
p1255
g2
tp1256
(S'benefits'
p1257
g42
tp1258
tp1259
I1
s((S'global'
p1260
g2
tp1261
(S')'
p1262
g5
tp1263
tp1264
I1
s((S'formal'
p1265
g2
tp1266
(S'education'
p1267
g5
tp1268
tp1269
I1
s((S'really'
p1270
g29
tp1271
(S're'
p1272
g150
tp1273
tp1274
I1
s((S'most'
p1275
S'RBS'
p1276
tp1277
(S'admired'
p1278
g48
tp1279
tp1280
I1
s((S'huge'
p1281
g2
tp1282
(S'organization'
p1283
g5
tp1284
tp1285
I1
s((S'too'
p1286
g29
tp1287
(S'political'
p1288
g2
tp1289
tp1290
I1
s((S'good'
p1291
g2
tp1292
(S'sense'
p1293
g5
tp1294
tp1295
I1
s((S'poor'
p1296
g2
tp1297
(S'upper'
p1298
g5
tp1299
tp1300
I1
s((S'French'
p1301
g2
tp1302
(S'('
p1303
g5
tp1304
tp1305
I1
s((S'very'
p1306
g29
tp1307
(S'intelligent'
p1308
g2
tp1309
tp1310
I1
s((S'not'
p1311
g29
tp1312
(S'listen'
p1313
g150
tp1314
tp1315
I1
s((S'automotive'
p1316
g2
tp1317
(S'leader'
p1318
g5
tp1319
tp1320
I1
s((S'great'
p1321
g2
tp1322
(S'working'
p1323
g5
tp1324
tp1325
I3
s((S'constantly'
p1326
g29
tp1327
(S'pushed'
p1328
g48
tp1329
tp1330
I1
s((S'Various'
p1331
g2
tp1332
(S'strategy'
p1333
g5
tp1334
tp1335
I1
s((S'comparable'
p1336
g2
tp1337
(S'positions'
p1338
g42
tp1339
tp1340
I1
s((S'couple'
p1341
g2
tp1342
(S'years'
p1343
g42
tp1344
tp1345
I1
s((S'annual'
p1346
g2
tp1347
(S'performance'
p1348
g5
tp1349
tp1350
I1
s((S'dynamic'
p1351
g2
tp1352
(S'atmosphere'
p1353
g5
tp1354
tp1355
I1
s((S'good'
p1356
g2
tp1357
(S'work'
p1358
g5
tp1359
tp1360
I7
s((S'Large'
p1361
g2
tp1362
(S'Manufacturing'
p1363
g5
tp1364
tp1365
I1
s((S'clear'
p1366
g2
tp1367
(S'set'
p1368
g5
tp1369
tp1370
I1
s((S'competitive'
p1371
g2
tp1372
(S'environment'
p1373
g5
tp1374
tp1375
I1
s((S'real'
p1376
g2
tp1377
(S'movement'
p1378
g5
tp1379
tp1380
I1
s((S'economic'
p1381
g2
tp1382
(S'events'
p1383
g42
tp1384
tp1385
I1
s((S'professional'
p1386
g2
tp1387
(S'support'
p1388
g5
tp1389
tp1390
I1
s((S'minimum'
p1391
g2
tp1392
(S'wage'
p1393
g5
tp1394
tp1395
I1
s((S'easy'
p1396
g2
tp1397
(S'sales'
p1398
g42
tp1399
tp1400
I1
s((S'not'
p1401
g29
tp1402
(S'be'
p1403
g150
tp1404
tp1405
I4
s((S'somewhat'
p1406
g29
tp1407
(S'intimidating'
p1408
g69
tp1409
tp1410
I1
s((S'Corporate'
p1411
g2
tp1412
(S'politics'
p1413
g42
tp1414
tp1415
I1
s((S'new'
p1416
g2
tp1417
(S'reward'
p1418
g5
tp1419
tp1420
I1
s((S'Global'
p1421
g2
tp1422
(S'company'
p1423
g5
tp1424
tp1425
I1
s((S'Huge'
p1426
g2
tp1427
(S'company'
p1428
g5
tp1429
tp1430
I1
s((S'financial'
p1431
g2
tp1432
(S'targes'
p1433
g42
tp1434
tp1435
I1
s((S'acceptable'
p1436
g2
tp1437
(S'place'
p1438
g5
tp1439
tp1440
I1
s((S'economic'
p1441
g2
tp1442
(S'downturn'
p1443
g5
tp1444
tp1445
I1
s((S'only'
p1446
g29
tp1447
(S'knew'
p1448
g176
tp1449
tp1450
I1
s((S'long'
p1451
g2
tp1452
(S'time'
p1453
g5
tp1454
tp1455
I6
s((S'different'
p1456
g2
tp1457
(S'regulations'
p1458
g42
tp1459
tp1460
I1
s((S'there'
p1461
g29
tp1462
(S'was'
p1463
g176
tp1464
tp1465
I1
s((S'conceptual'
p1466
g2
tp1467
(S'things'
p1468
g42
tp1469
tp1470
I1
s((S'good'
p1471
g2
tp1472
(S'terms'
p1473
g42
tp1474
tp1475
I1
s((S'wonderful'
p1476
g2
tp1477
(g1303
g5
tp1478
tp1479
I1
s((S'internal'
p1480
g2
tp1481
(S'opportunities'
p1482
g42
tp1483
tp1484
I1
s((S'interesting'
p1485
g2
tp1486
(S'position'
p1487
g5
tp1488
tp1489
I1
s((S'very'
p1490
g29
tp1491
(S'significant'
p1492
g2
tp1493
tp1494
I1
s((S'Oddly'
p1495
g29
tp1496
(S'Dysfunctional'
p1497
g2
tp1498
tp1499
I1
s((S'British'
p1500
g2
tp1501
(S'company'
p1502
g5
tp1503
tp1504
I1
s((S'whole'
p1505
g2
tp1506
(S'organization'
p1507
g5
tp1508
tp1509
I1
s((S'utterly'
p1510
g29
tp1511
(S'opaque'
p1512
g2
tp1513
tp1514
I1
s((S'technologically'
p1515
g29
tp1516
(S'advanced'
p1517
g176
tp1518
tp1519
I1
s((S'not'
p1520
g29
tp1521
(S'provide'
p1522
g150
tp1523
tp1524
I1
s((S'few'
p1525
g2
tp1526
(S'opportunities'
p1527
g42
tp1528
tp1529
I1
s((S'terrible'
p1530
g2
tp1531
(S'computer'
p1532
g5
tp1533
tp1534
I1
s((S'always'
p1535
g29
tp1536
(S'doing'
p1537
g69
tp1538
tp1539
I1
s((S'global'
p1540
g2
tp1541
(S'experience'
p1542
g5
tp1543
tp1544
I1
s((S'certain'
p1545
g2
tp1546
(S'time'
p1547
g5
tp1548
tp1549
I1
s((S'international'
p1550
g2
tp1551
(S'teaching'
p1552
g5
tp1553
tp1554
I1
s((S'compartmentalized'
p1555
g2
tp1556
(S'culture'
p1557
g5
tp1558
tp1559
I1
s((S'high'
p1560
g2
tp1561
(S'talent'
p1562
g5
tp1563
tp1564
I1
s((S'not'
p1565
g29
tp1566
(S'fund'
p1567
g150
tp1568
tp1569
I1
s((S'great'
p1570
g2
tp1571
(S'values'
p1572
g42
tp1573
tp1574
I2
s((S'poor'
p1575
g2
tp1576
(S'performance'
p1577
g5
tp1578
tp1579
I1
s((S'Strong'
p1580
g2
tp1581
(S'debt'
p1582
g5
tp1583
tp1584
I1
s((S'first'
p1585
g2
tp1586
(S'experience'
p1587
g5
tp1588
tp1589
I1
s((S'so'
p1590
g29
tp1591
(S'large'
p1592
g2
tp1593
tp1594
I1
s((S'corporate'
p1595
g2
tp1596
(S'levels'
p1597
g42
tp1598
tp1599
I1
s((S'not'
p1600
g29
tp1601
(S'satisfactory'
p1602
g2
tp1603
tp1604
I1
s((S'only'
p1605
g2
tp1606
(S'pro'
p1607
g5
tp1608
tp1609
I1
s((S'highly'
p1610
g29
tp1611
(S'prevalent'
p1612
g2
tp1613
tp1614
I1
s((S'great'
p1615
g2
tp1616
(S'benefits'
p1617
g42
tp1618
tp1619
I20
s((S'full'
p1620
g2
tp1621
(S'services'
p1622
g42
tp1623
tp1624
I1
s((S'conservative'
p1625
g2
tp1626
(S'culture'
p1627
g5
tp1628
tp1629
I1
s((S'senior'
p1630
g2
tp1631
(S'leadership'
p1632
g5
tp1633
tp1634
I1
s((S'many'
p1635
g2
tp1636
(S'places'
p1637
g42
tp1638
tp1639
I1
s((S'corporate'
p1640
g2
tp1641
(S'culture'
p1642
g5
tp1643
tp1644
I4
s((S'ample'
p1645
g2
tp1646
(S'opportunity'
p1647
g5
tp1648
tp1649
I2
s((S'so'
p1650
g29
tp1651
(S'forth'
p1652
g2
tp1653
tp1654
I1
s((S'terrible'
p1655
g2
tp1656
(S'audit'
p1657
g5
tp1658
tp1659
I1
s((S'global'
p1660
g2
tp1661
(S'organization'
p1662
g5
tp1663
tp1664
I1
s((S"n't"
p1665
g29
tp1666
(S'we'
p1667
g150
tp1668
tp1669
I1
s((S'significant'
p1670
g2
tp1671
(S'change'
p1672
g5
tp1673
tp1674
I1
s((S'great'
p1675
g2
tp1676
(S'Market'
p1677
g5
tp1678
tp1679
I1
s((S'just'
p1680
g29
tp1681
(S'moderate'
p1682
g2
tp1683
tp1684
I1
s((S'Competitive'
p1685
g2
tp1686
(S'ans'
p1687
g42
tp1688
tp1689
I1
s((S'high'
p1690
g2
tp1691
(S'deductibles'
p1692
g42
tp1693
tp1694
I1
s((S'not'
p1695
g29
tp1696
(S'doing'
p1697
g69
tp1698
tp1699
I1
s((S'not'
p1700
g29
tp1701
(S'compensate'
p1702
g150
tp1703
tp1704
I1
s((S'Too'
p1705
g29
tp1706
(S'much'
p1707
g2
tp1708
tp1709
I3
s((S'limited'
p1710
g2
tp1711
(S'experience'
p1712
g5
tp1713
tp1714
I1
s((S'soon-to-be-completed'
p1715
g2
tp1716
(S'on-site'
p1717
g2
tp1718
tp1719
I1
s((S'Competitive'
p1720
g2
tp1721
(S'salary'
p1722
g5
tp1723
tp1724
I1
s((S'great'
p1725
g2
tp1726
(S'care'
p1727
g5
tp1728
tp1729
I1
s((S'professional'
p1730
g2
tp1731
(S'atmosphere'
p1732
g5
tp1733
tp1734
I1
s((S'daily'
p1735
g2
tp1736
(S'ta'
p1737
g5
tp1738
tp1739
I1
s((S'never'
p1740
g29
tp1741
(S'been'
p1742
g48
tp1743
tp1744
I1
s((S'very'
p1745
g29
tp1746
(S'nice'
p1747
g2
tp1748
tp1749
I3
s((S'clear'
p1750
g2
tp1751
(S'vision'
p1752
g5
tp1753
tp1754
I2
s((S'very'
p1755
g29
tp1756
(S'busy'
p1757
g2
tp1758
tp1759
I1
s((S"n't"
p1760
g29
tp1761
(S'see'
p1762
g150
tp1763
tp1764
I2
s((S'not'
p1765
g29
tp1766
(S'regret'
p1767
g150
tp1768
tp1769
I1
s((S'retail'
p1770
g2
tp1771
(S'amp'
p1772
g5
tp1773
tp1774
I1
s((S'constantly'
p1775
g29
tp1776
(S'move'
p1777
g150
tp1778
tp1779
I1
s((S'generally'
p1780
g29
tp1781
(S'happy'
p1782
g2
tp1783
tp1784
I1
s((S'Too'
p1785
g29
tp1786
(S'big'
p1787
g2
tp1788
tp1789
I2
s((S'friends'
p1790
g42
tp1791
(S'close'
p1792
g2
tp1793
tp1794
I1
s((S'Flexible'
p1795
g2
tp1796
(S'hours'
p1797
g42
tp1798
tp1799
I2
s((S'average'
p1800
g2
tp1801
(S'salary'
p1802
g5
tp1803
tp1804
I2
s((S'human'
p1805
g2
tp1806
(S'level'
p1807
g5
tp1808
tp1809
I1
s((S'international'
p1810
g2
tp1811
(S'travel'
p1812
g5
tp1813
tp1814
I1
s((S'good'
p1815
g2
tp1816
(S'support'
p1817
g5
tp1818
tp1819
I1
s((S'often'
p1820
g29
tp1821
(S'unreasonable'
p1822
g2
tp1823
tp1824
I1
s((S'very'
p1825
g29
tp1826
(S'rude'
p1827
g2
tp1828
tp1829
I1
s((S'perpetual'
p1830
g2
tp1831
(S'understaffing'
p1832
g5
tp1833
tp1834
I1
s((S'slow'
p1835
g2
tp1836
(S'decision'
p1837
g5
tp1838
tp1839
I1
s((S'very'
p1840
g29
tp1841
(S'disorganized'
p1842
g48
tp1843
tp1844
I1
s((S'not'
p1845
g29
tp1846
(S'fantastic'
p1847
g2
tp1848
tp1849
I1
s((S'4-day'
p1850
g2
tp1851
(S'work'
p1852
g5
tp1853
tp1854
I1
s((S'term'
p1855
g2
tp1856
(S'security'
p1857
g5
tp1858
tp1859
I1
s((S'constant'
p1860
g2
tp1861
(S'ability'
p1862
g5
tp1863
tp1864
I1
s((S'much'
p1865
g2
tp1866
(S'advancement'
p1867
g5
tp1868
tp1869
I1
s((S'social'
p1870
g2
tp1871
(S'work'
p1872
g5
tp1873
tp1874
I1
s((S'great'
p1875
g2
tp1876
(S'training'
p1877
g5
tp1878
tp1879
I1
s((S'necessarily'
p1880
g29
tp1881
(S'view'
p1882
g150
tp1883
tp1884
I1
s((S'additional'
p1885
g2
tp1886
(S'effort'
p1887
g5
tp1888
tp1889
I1
s((S'catastrophic'
p1890
g2
tp1891
(S'coverage'
p1892
g5
tp1893
tp1894
I1
s((S'Not'
p1895
g29
tp1896
(S'flexible'
p1897
g2
tp1898
tp1899
I1
s((S'blocks'
p1900
g42
tp1901
(S'green'
p1902
g2
tp1903
tp1904
I1
s((S'so'
p1905
g29
tp1906
(S'spread'
p1907
g48
tp1908
tp1909
I1
s((S'quite'
p1910
g29
tp1911
(S'miserable'
p1912
g2
tp1913
tp1914
I1
s((S'very'
p1915
g29
tp1916
(S'strict'
p1917
g2
tp1918
tp1919
I1
s((S'local'
p1920
g2
tp1921
(S'direction'
p1922
g5
tp1923
tp1924
I1
s((S'still'
p1925
g29
tp1926
(S'striving'
p1927
g69
tp1928
tp1929
I1
s((S'too'
p1930
g29
tp1931
(S'boring'
p1932
g69
tp1933
tp1934
I1
s((S'main'
p1935
g2
tp1936
(S'attractions'
p1937
g42
tp1938
tp1939
I1
s((S'annual'
p1940
g2
tp1941
(S'plan'
p1942
g5
tp1943
tp1944
I1
s((S'Poorly'
p1945
g29
tp1946
(S'managed'
p1947
g48
tp1948
tp1949
I2
s((S'not'
p1950
g29
tp1951
(S'recieved'
p1952
g48
tp1953
tp1954
I1
s((S'knowledgable'
p1955
g2
tp1956
(S'process'
p1957
g5
tp1958
tp1959
I1
s((S'ever'
p1960
g29
tp1961
(S'met'
p1962
g48
tp1963
tp1964
I1
s((S'work-life'
p1965
g2
tp1966
(S'balance'
p1967
g5
tp1968
tp1969
I3
s((S'very'
p1970
g29
tp1971
(S'nurturing'
p1972
g69
tp1973
tp1974
I1
s((S'great'
p1975
g2
tp1976
(S'friends'
p1977
g42
tp1978
tp1979
I1
s((S'much'
p1980
g2
tp1981
(S'uncertainty'
p1982
g5
tp1983
tp1984
I1
s((S'other'
p1985
g2
tp1986
(S'jobs'
p1987
g42
tp1988
tp1989
I1
s((S'good'
p1990
g2
tp1991
(S'working'
p1992
g5
tp1993
tp1994
I5
s((S'hires'
p1995
g42
tp1996
(S'-All'
p1997
g2
tp1998
tp1999
I1
s((S'Japanese'
p2000
g2
tp2001
(S'people'
p2002
g42
tp2003
tp2004
I1
s((S'monthly'
p2005
g29
tp2006
(S'work'
p2007
g150
tp2008
tp2009
I1
s((S'definitely'
p2010
g29
tp2011
(S'superior'
p2012
g2
tp2013
tp2014
I1
s((S'good'
p2015
g2
tp2016
(S'People'
p2017
g42
tp2018
tp2019
I1
s((S"n't"
p2020
g29
tp2021
(S'have'
p2022
g150
tp2023
tp2024
I5
s((S'easy'
p2025
g2
tp2026
(S'raises'
p2027
g42
tp2028
tp2029
I1
s((S'Many'
p2030
g2
tp2031
(S'lazy'
p2032
g5
tp2033
tp2034
I1
s((S'negative'
p2035
g2
tp2036
(S'work'
p2037
g5
tp2038
tp2039
I1
s((S'second'
p2040
g2
tp2041
(S'year'
p2042
g5
tp2043
tp2044
I1
s((S'fast'
p2045
g2
tp2046
(S'promotions'
p2047
g42
tp2048
tp2049
I1
s((S'monetary'
p2050
g2
tp2051
(S'wealth'
p2052
g5
tp2053
tp2054
I1
s((S'corporate'
p2055
g2
tp2056
(S'position'
p2057
g5
tp2058
tp2059
I1
s((S'unbelievably'
p2060
g29
tp2061
(S'rude'
p2062
g2
tp2063
tp2064
I1
s((S'other'
p2065
g2
tp2066
(S'shops'
p2067
g42
tp2068
tp2069
I1
s((S'terrible'
p2070
g2
tp2071
(S'company'
p2072
g5
tp2073
tp2074
I1
s((S'much'
p2075
g2
tp2076
(S'bureaucracy'
p2077
g5
tp2078
tp2079
I4
s((S'seasoned'
p2080
g2
tp2081
(S'employees'
p2082
g42
tp2083
tp2084
I1
s((S'dysfunctional'
p2085
g2
tp2086
(S'parts'
p2087
g42
tp2088
tp2089
I1
s((S'other'
p2090
g2
tp2091
(S'fund'
p2092
g5
tp2093
tp2094
I1
s((S'local'
p2095
g2
tp2096
(S'business'
p2097
g5
tp2098
tp2099
I1
s((S'privacy'
p2100
g5
tp2101
(S'available'
p2102
g2
tp2103
tp2104
I1
s((S'good'
p2105
g2
tp2106
(S'management'
p2107
g5
tp2108
tp2109
I2
s((S'standard'
p2110
g2
tp2111
(S'promotion'
p2112
g5
tp2113
tp2114
I1
s((S'financial'
p2115
g2
tp2116
(S'businesses'
p2117
g42
tp2118
tp2119
I1
s((S'very'
p2120
g29
tp2121
(S'rewarding'
p2122
g69
tp2123
tp2124
I2
s((S'good'
p2125
g2
tp2126
(S'quality'
p2127
g5
tp2128
tp2129
I1
s((S'multi-focus'
p2130
g2
tp2131
(S'work'
p2132
g5
tp2133
tp2134
I1
s((S'Ever-changing'
p2135
g2
tp2136
(S'career'
p2137
g5
tp2138
tp2139
I1
s((S'global'
p2140
g2
tp2141
(S'hiring'
p2142
g5
tp2143
tp2144
I1
s((S'good'
p2145
g2
tp2146
(S'place'
p2147
g5
tp2148
tp2149
I14
s((S'Huge'
p2150
g2
tp2151
(S'organization'
p2152
g5
tp2153
tp2154
I1
s((S'usual'
p2155
g2
tp2156
(S'issues'
p2157
g42
tp2158
tp2159
I1
s((S'many'
p2160
g2
tp2161
(S'changes'
p2162
g42
tp2163
tp2164
I2
s((S'ever'
p2165
g29
tp2166
(S'received'
p2167
g48
tp2168
tp2169
I1
s((S'nice'
p2170
g2
tp2171
(S'gym'
p2172
g5
tp2173
tp2174
I1
s((S'same'
p2175
g2
tp2176
(S'vision'
p2177
g5
tp2178
tp2179
I1
s((S'more'
p2180
g1180
tp2181
(S'oversite'
p2182
g2
tp2183
tp2184
I1
s((S'too'
p2185
g29
tp2186
(S'matrixed'
p2187
g48
tp2188
tp2189
I1
s((S'Bad'
p2190
g2
tp2191
(S'location'
p2192
g5
tp2193
tp2194
I1
s((S"n't"
p2195
g29
tp2196
(S'feel'
p2197
g150
tp2198
tp2199
I1
s((S'great'
p2200
g2
tp2201
(S'products'
p2202
g42
tp2203
tp2204
I2
s((S'cult-like'
p2205
g2
tp2206
(S'place'
p2207
g5
tp2208
tp2209
I1
s((S'constant'
p2210
g2
tp2211
(S'access'
p2212
g5
tp2213
tp2214
I1
s((S'complete'
p2215
g2
tp2216
(S'distraction'
p2217
g5
tp2218
tp2219
I1
s((S'strategic'
p2220
g2
tp2221
(S'insight'
p2222
g5
tp2223
tp2224
I1
s((S'corporate'
p2225
g2
tp2226
(S'companies'
p2227
g42
tp2228
tp2229
I1
s((S'immediately'
p2230
g29
tp2231
(S'report'
p2232
g150
tp2233
tp2234
I1
s((S'attractive'
p2235
g2
tp2236
(S'reason'
p2237
g5
tp2238
tp2239
I1
s((S'so'
p2240
g29
tp2241
(S'deep'
p2242
g150
tp2243
tp2244
I1
s((S'solid'
p2245
g2
tp2246
(S'strategy'
p2247
g5
tp2248
tp2249
I1
s((S'Long'
p2250
g2
tp2251
(S'work'
p2252
g5
tp2253
tp2254
I2
s((S'good'
p2255
g2
tp2256
(S'bye'
p2257
g5
tp2258
tp2259
I1
s((S'financial'
p2260
g2
tp2261
(S'crisis'
p2262
g5
tp2263
tp2264
I1
s((S'nonflexible'
p2265
g2
tp2266
(S'schedule'
p2267
g5
tp2268
tp2269
I1
s((S'Large'
p2270
g2
tp2271
(S'Company'
p2272
g5
tp2273
tp2274
I2
s((S'clearly'
p2275
g29
tp2276
(S'aware'
p2277
g2
tp2278
tp2279
I1
s((S'company'
p2280
g5
tp2281
(S'due'
p2282
g2
tp2283
tp2284
I1
s((S"n't"
p2285
g29
tp2286
(S'go'
p2287
g150
tp2288
tp2289
I1
s((S'casual'
p2290
g2
tp2291
(S'workplace'
p2292
g5
tp2293
tp2294
I1
s((S'fiercely'
p2295
g29
tp2296
(S'political'
p2297
g2
tp2298
tp2299
I1
s((S'much'
p2300
g29
tp2301
(S'hierachy'
p2302
g2
tp2303
tp2304
I1
s((S'highly'
p2305
g29
tp2306
(S'coveted'
p2307
g48
tp2308
tp2309
I1
s((S'few'
p2310
g2
tp2311
(S'days'
p2312
g42
tp2313
tp2314
I1
s((S'good'
p2315
g2
tp2316
(S'resources'
p2317
g42
tp2318
tp2319
I1
s((S'good'
p2320
g2
tp2321
(S'potenital'
p2322
g5
tp2323
tp2324
I1
s((S'good'
p2325
g2
tp2326
(S'ending'
p2327
g5
tp2328
tp2329
I1
s((S'Retail'
p2330
g2
tp2331
(S'pharmacy'
p2332
g5
tp2333
tp2334
I1
s((S'corporate'
p2335
g2
tp2336
(S'america'
p2337
g5
tp2338
tp2339
I1
s((S'primary'
p2340
g2
tp2341
(S'decision-making'
p2342
g2
tp2343
tp2344
I1
s((S'training'
p2345
g5
tp2346
(S'available'
p2347
g2
tp2348
tp2349
I2
s((S'exact'
p2350
g2
tp2351
(S'path'
p2352
g5
tp2353
tp2354
I1
s((S'-People'
p2355
g2
tp2356
(S'-Family'
p2357
g2
tp2358
tp2359
I1
s((S'always'
p2360
g29
tp2361
(S'being'
p2362
g69
tp2363
tp2364
I1
s((S'High'
p2365
g2
tp2366
(S'Stress'
p2367
g5
tp2368
tp2369
I3
s((S'first'
p2370
g29
tp2371
(S'joined'
p2372
g176
tp2373
tp2374
I1
s((S'technical'
p2375
g2
tp2376
(S'field'
p2377
g5
tp2378
tp2379
I1
s((S'new'
p2380
g2
tp2381
(S'systems'
p2382
g42
tp2383
tp2384
I1
s((S'tremendous'
p2385
g2
tp2386
(S'benefit'
p2387
g5
tp2388
tp2389
I1
s((S'fair'
p2390
g2
tp2391
(S'compensation'
p2392
g5
tp2393
tp2394
I1
s((S'Japanese'
p2395
g2
tp2396
(S'companies'
p2397
g42
tp2398
tp2399
I1
s((S'regulatory'
p2400
g2
tp2401
(S'work'
p2402
g5
tp2403
tp2404
I1
s((S'Too'
p2405
g29
tp2406
(S'bueraucratic'
p2407
g2
tp2408
tp2409
I1
s((S'Organizational'
p2410
g2
tp2411
(S'change'
p2412
g5
tp2413
tp2414
I1
s((S'progress'
p2415
g5
tp2416
(S'slow'
p2417
g2
tp2418
tp2419
I1
s((S'high'
p2420
g2
tp2421
(S'turnover'
p2422
g5
tp2423
tp2424
I1
s((S'first'
p2425
g29
tp2426
(S'start'
p2427
g150
tp2428
tp2429
I1
s((S'expensive'
p2430
g2
tp2431
(S'cafeteria,'
p2432
g5
tp2433
tp2434
I1
s((S'corporate'
p2435
g2
tp2436
(S'politics'
p2437
g42
tp2438
tp2439
I2
s((S'Personal'
p2440
g2
tp2441
(S'banker'
p2442
g5
tp2443
tp2444
I1
s((S'many'
p2445
g2
tp2446
(S'people'
p2447
g42
tp2448
tp2449
I6
s((S'unstoppable'
p2450
g2
tp2451
(S'downward'
p2452
g5
tp2453
tp2454
I1
s((S'non-management'
p2455
g2
tp2456
(S'employees'
p2457
g42
tp2458
tp2459
I2
s((S'middle'
p2460
g2
tp2461
(S'management'
p2462
g5
tp2463
tp2464
I2
s((S'High'
p2465
g2
tp2466
(S'wage/'
p2467
g5
tp2468
tp2469
I1
s((S'underqualified'
p2470
g2
tp2471
(S'people'
p2472
g42
tp2473
tp2474
I1
s((S'low'
p2475
g2
tp2476
g1186
tp2477
I1
s((S'too'
p2478
g29
tp2479
(S'many'
p2480
g2
tp2481
tp2482
I3
s((S'always'
p2483
g29
tp2484
(S'made'
p2485
g176
tp2486
tp2487
I1
s((S'*Better'
p2488
g2
tp2489
(S'pay'
p2490
g5
tp2491
tp2492
I1
s((S'unfair'
p2493
g2
tp2494
(S'advantage'
p2495
g5
tp2496
tp2497
I1
s((S'educational'
p2498
g2
tp2499
(S'experience'
p2500
g5
tp2501
tp2502
I2
s((S'lateral'
p2503
g2
tp2504
(S'mobility'
p2505
g5
tp2506
tp2507
I1
s((S'public'
p2508
g2
tp2509
(S'due'
p2510
g2
tp2511
tp2512
I1
s((S'generally'
p2513
g29
tp2514
(S'speaking'
p2515
g69
tp2516
tp2517
I1
s((S'many'
p2518
g2
tp2519
(S'roles'
p2520
g42
tp2521
tp2522
I1
s((S'good'
p2523
g2
tp2524
(S'mission'
p2525
g5
tp2526
tp2527
I1
s((S'-Ignorant/impatient/rude'
p2528
g2
tp2529
(S'customers'
p2530
g42
tp2531
tp2532
I1
s((S'Large'
p2533
g2
tp2534
(S'company'
p2535
g5
tp2536
tp2537
I10
s((S'ever'
p2538
g29
tp2539
(S'went'
p2540
g176
tp2541
tp2542
I1
s((S'Highly'
p2543
g29
tp2544
(S'competitive'
p2545
g2
tp2546
tp2547
I1
s((S'stressful'
p2548
g2
tp2549
(S'environment'
p2550
g5
tp2551
tp2552
I2
s((S'still'
p2553
g29
tp2554
(S'get'
p2555
g150
tp2556
tp2557
I1
s((S"n't"
p2558
g29
tp2559
(S'spend'
p2560
g150
tp2561
tp2562
I1
s((S'idealistic'
p2563
g2
tp2564
(S'view'
p2565
g5
tp2566
tp2567
I1
s((S'investigative'
p2568
g2
tp2569
(S'challenge'
p2570
g5
tp2571
tp2572
I1
s((S'good'
p2573
g2
tp2574
(S'folks'
p2575
g42
tp2576
tp2577
I1
s((S'daily'
p2578
g2
tp2579
(S'work'
p2580
g5
tp2581
tp2582
I1
s((S'poor'
p2583
g2
tp2584
(S'decision'
p2585
g5
tp2586
tp2587
I1
s((S'first'
p2588
g2
tp2589
(S'company'
p2590
g5
tp2591
tp2592
I1
s((S'now'
p2593
g29
tp2594
(S'treated'
p2595
g48
tp2596
tp2597
I1
s((S'few'
p2598
g2
tp2599
(S'vacation'
p2600
g5
tp2601
tp2602
I1
s((S'great'
p2603
g2
tp2604
(S'network'
p2605
g5
tp2606
tp2607
I1
s((S'many'
p2608
g2
tp2609
(S'staff'
p2610
g5
tp2611
tp2612
I1
s((S'very'
p2613
g29
tp2614
(S'clear'
p2615
g2
tp2616
tp2617
I1
s((S'organizational'
p2618
g2
tp2619
(S'structure'
p2620
g5
tp2621
tp2622
I3
s((S'really'
p2623
g29
tp2624
(S'difficult'
p2625
g176
tp2626
tp2627
I1
s((S'-Old'
p2628
g2
tp2629
(S'Cash'
p2630
g5
tp2631
tp2632
I1
s((S'useful'
p2633
g2
tp2634
(S'skill'
p2635
g5
tp2636
tp2637
I1
s((S'fat'
p2638
g2
tp2639
(S'cats'
p2640
g42
tp2641
tp2642
I1
s((S'high'
p2643
g2
tp2644
(S'school'
p2645
g5
tp2646
tp2647
I2
s((S'constant'
p2648
g2
tp2649
(S'government'
p2650
g5
tp2651
tp2652
I1
s((S'many'
p2653
g2
tp2654
(S'work'
p2655
g5
tp2656
tp2657
I1
s((S'too'
p2658
g29
tp2659
(S'frequent'
p2660
g176
tp2661
tp2662
I1
s((S'much'
p2663
g29
tp2664
(S'room'
p2665
g150
tp2666
tp2667
I1
s((S'verbal'
p2668
g2
tp2669
(S'abuse'
p2670
g5
tp2671
tp2672
I1
s((S'tremendous'
p2673
g2
tp2674
(S'amount'
p2675
g5
tp2676
tp2677
I1
s((S'great'
p2678
g2
tp2679
(S'benifits'
p2680
g42
tp2681
tp2682
I1
s((S'genuinely'
p2683
g29
tp2684
(S'interested'
p2685
g2
tp2686
tp2687
I1
s((S'bonus'
p2688
g5
tp2689
(S'high'
p2690
g2
tp2691
tp2692
I1
s((S'Junior-level'
p2693
g2
tp2694
(S'pay'
p2695
g5
tp2696
tp2697
I1
s((S'bad'
p2698
g2
tp2699
(S'project'
p2700
g5
tp2701
tp2702
I1
s((S'many'
p2703
g2
tp2704
(S'policies'
p2705
g42
tp2706
tp2707
I1
s((S'broad'
p2708
g2
tp2709
(S'arrangement'
p2710
g5
tp2711
tp2712
I1
s((S'good'
p2713
g2
tp2714
(S'exposure'
p2715
g5
tp2716
tp2717
I1
s((S'high'
p2718
g2
tp2719
(S'attrition'
p2720
g5
tp2721
tp2722
I1
s((S'other'
p2723
g2
tp2724
(S'bank'
p2725
g5
tp2726
tp2727
I1
s((S'very'
p2728
g29
tp2729
(S'overpaid'
p2730
g48
tp2731
tp2732
I1
s((S'equal'
p2733
g2
tp2734
(S'Opportunities'
p2735
g42
tp2736
tp2737
I1
s((S"n't"
p2738
g29
tp2739
(S'walk'
p2740
g150
tp2741
tp2742
I1
s((S'little'
p2743
g29
tp2744
(S'autonomy'
p2745
g2
tp2746
tp2747
I1
s((S'overall'
p2748
g2
tp2749
(S'attitude'
p2750
g5
tp2751
tp2752
I1
s((S'great'
p2753
g2
tp2754
(S'teams'
p2755
g42
tp2756
tp2757
I1
s((S'public'
p2758
g2
tp2759
(S'impressions'
p2760
g42
tp2761
tp2762
I1
s((S'very'
p2763
g29
tp2764
(S'professional'
p2765
g2
tp2766
tp2767
I1
s((S'crime-filled'
p2768
g2
tp2769
(S'cities'
p2770
g42
tp2771
tp2772
I1
s((S'individual'
p2773
g2
tp2774
(S'contributors'
p2775
g42
tp2776
tp2777
I2
s((S'reasonable'
p2778
g2
tp2779
(S'mission'
p2780
g5
tp2781
tp2782
I1
s((S'very'
p2783
g29
tp2784
(S'common'
p2785
g2
tp2786
tp2787
I2
s((S'not'
p2788
g29
tp2789
(S'promoted'
p2790
g48
tp2791
tp2792
I1
s((S'individual'
p2793
g2
tp2794
(S'growth'
p2795
g5
tp2796
tp2797
I1
s((S'valuable'
p2798
g2
tp2799
(S'life'
p2800
g5
tp2801
tp2802
I1
s((S'-Some'
p2803
g2
tp2804
(S'smart'
p2805
g5
tp2806
tp2807
I1
s((S'always'
p2808
g29
tp2809
(S'loved'
p2810
g48
tp2811
tp2812
I1
s((S'monthly'
p2813
g2
tp2814
(S'service'
p2815
g5
tp2816
tp2817
I1
s((S'too'
p2818
g29
tp2819
(S'afraid'
p2820
g176
tp2821
tp2822
I1
s((S'employee'
p2823
g5
tp2824
(S'responsible'
p2825
g2
tp2826
tp2827
I1
s((S'only'
p2828
g29
tp2829
(S'worried'
p2830
g48
tp2831
tp2832
I1
s((S'bad'
p2833
g2
tp2834
(S'department'
p2835
g5
tp2836
tp2837
I1
s((S'great'
p2838
g2
tp2839
(S'vacation'
p2840
g5
tp2841
tp2842
I1
s((S'always'
p2843
g29
tp2844
(S'having'
p2845
g69
tp2846
tp2847
I1
s((S'great'
p2848
g2
tp2849
(S'healthcare'
p2850
g5
tp2851
tp2852
I1
s((S'general'
p2853
g2
tp2854
(S'need'
p2855
g5
tp2856
tp2857
I1
s((S'strong'
p2858
g2
tp2859
(S'company'
p2860
g5
tp2861
tp2862
I2
s((S'bad'
p2863
g2
tp2864
(S'time'
p2865
g5
tp2866
tp2867
I1
s((S'good'
p2868
g2
tp2869
(S'value'
p2870
g5
tp2871
tp2872
I1
s((S'different'
p2873
g2
tp2874
(S'cultures'
p2875
g42
tp2876
tp2877
I1
s((S'not'
p2878
g29
tp2879
(S'knowing'
p2880
g69
tp2881
tp2882
I1
s((S'outside'
p2883
g2
tp2884
(S'oblagations'
p2885
g42
tp2886
tp2887
I1
s((S'many'
p2888
g2
tp2889
(S'cons'
p2890
g42
tp2891
tp2892
I2
s((S'great'
p2893
g2
tp2894
(S'compensation'
p2895
g5
tp2896
tp2897
I3
s((S'good'
p2898
g2
tp2899
(S'reputation'
p2900
g5
tp2901
tp2902
I2
s((S'too'
p2903
g29
tp2904
(S'hierarchi'
p2905
g150
tp2906
tp2907
I1
s((S'great'
p2908
g2
tp2909
(S'experience'
p2910
g5
tp2911
tp2912
I3
s((S'Self-imposed'
p2913
g2
tp2914
(S'leaving'
p2915
g5
tp2916
tp2917
I1
s((S'-Slow'
p2918
g2
tp2919
(S'Summers'
p2920
g42
tp2921
tp2922
I1
s((S'corporate'
p2923
g2
tp2924
(S'strategy'
p2925
g5
tp2926
tp2927
I1
s((S'noticeable'
p2928
g2
tp2929
(S'favoritism'
p2930
g5
tp2931
tp2932
I1
s((S'Competitive'
p2933
g2
tp2934
(S'environment'
p2935
g5
tp2936
tp2937
I1
s((S'negative'
p2938
g2
tp2939
(S'environment'
p2940
g5
tp2941
tp2942
I1
s((S'not'
p2943
g29
tp2944
(S'get'
p2945
g150
tp2946
tp2947
I1
s((S'great'
p2948
g2
tp2949
(S'attitude'
p2950
g5
tp2951
tp2952
I1
s((S'operations'
p2953
g42
tp2954
(S'chaotic'
p2955
g2
tp2956
tp2957
I1
s((S'terrible'
p2958
g2
tp2959
(g1262
g5
tp2960
tp2961
I1
s((S'large'
p2962
g2
tp2963
(S'company'
p2964
g5
tp2965
tp2966
I10
s((S'real'
p2967
g2
tp2968
(S'education'
p2969
g5
tp2970
tp2971
I1
s((S'charitable'
p2972
g2
tp2973
(S'contributions'
p2974
g42
tp2975
tp2976
I1
s((S'very'
p2977
g29
tp2978
(S'fair'
p2979
g2
tp2980
tp2981
I1
s((S'weak'
p2982
g2
tp2983
(S'management'
p2984
g5
tp2985
tp2986
I1
s((S'semiannual'
p2987
g2
tp2988
(S'contributions'
p2989
g42
tp2990
tp2991
I1
s((S'respectful'
p2992
g2
tp2993
(S'people'
p2994
g42
tp2995
tp2996
I1
s((S'sometimes'
p2997
g29
tp2998
(S'be'
p2999
g150
tp3000
tp3001
I1
s((S'always'
p3002
g29
tp3003
(S'have'
p3004
g150
tp3005
tp3006
I1
s((S'good'
p3007
g2
tp3008
(S'culture'
p3009
g5
tp3010
tp3011
I2
s((S'Once'
p3012
g29
tp3013
(S'rewarding'
p3014
g69
tp3015
tp3016
I1
s((S'really'
p3017
g29
tp3018
(S'willing'
p3019
g2
tp3020
tp3021
I1
s((S'professional'
p3022
g2
tp3023
(S'development'
p3024
g5
tp3025
tp3026
I3
s((S'good'
p3027
g2
tp3028
(S'starting'
p3029
g5
tp3030
tp3031
I1
s((S'not'
p3032
g29
tp3033
(S'reflect'
p3034
g150
tp3035
tp3036
I1
s((S'development/training'
p3037
g2
tp3038
(S'opportunities'
p3039
g42
tp3040
tp3041
I1
s((S'good'
p3042
g2
tp3043
(S'raises'
p3044
g42
tp3045
tp3046
I1
s((S'Highly'
p3047
g29
tp3048
(S'talented'
p3049
g48
tp3050
tp3051
I1
s((S'old'
p3052
g2
tp3053
(S'style'
p3054
g5
tp3055
tp3056
I1
s((S'crafts-people'
p3057
g2
tp3058
(g1303
g5
tp3059
tp3060
I1
s((S'pleasant'
p3061
g2
tp3062
(S'place'
p3063
g5
tp3064
tp3065
I1
s((S'low'
p3066
g2
tp3067
(S'base'
p3068
g5
tp3069
tp3070
I1
s((S'same'
p3071
g2
tp3072
(S'people'
p3073
g42
tp3074
tp3075
I1
s((S'free'
p3076
g2
tp3077
(S'food'
p3078
g5
tp3079
tp3080
I1
s((S'good'
p3081
g2
tp3082
(S'coaching'
p3083
g5
tp3084
tp3085
I1
s((S'few'
p3086
g2
tp3087
(S'pockets'
p3088
g42
tp3089
tp3090
I1
s((S'Politically'
p3091
g29
tp3092
(S'focused'
p3093
g48
tp3094
tp3095
I1
s((S'ethical'
p3096
g2
tp3097
(S'culture'
p3098
g5
tp3099
tp3100
I1
s((S'company'
p3101
g5
tp3102
(S'such'
p3103
g2
tp3104
tp3105
I1
s((S'Unmatched'
p3106
g2
tp3107
(S'suite'
p3108
g5
tp3109
tp3110
I1
s((S'strong'
p3111
g2
tp3112
(S'desire'
p3113
g5
tp3114
tp3115
I1
s((S'manner'
p3116
g5
tp3117
(S'similar'
p3118
g2
tp3119
tp3120
I1
s((S'Incredible'
p3121
g2
tp3122
(S'resources'
p3123
g42
tp3124
tp3125
I1
s((S'Japanese'
p3126
g2
tp3127
(S'culture'
p3128
g5
tp3129
tp3130
I2
s((S'add'
p3131
g2
tp3132
(S'expenses'
p3133
g42
tp3134
tp3135
I1
s((S'too'
p3136
g29
tp3137
(S'policitical'
p3138
g2
tp3139
tp3140
I1
s((S'geographic'
p3141
g2
tp3142
(S'locations'
p3143
g42
tp3144
tp3145
I1
s((S'first'
p3146
g2
tp3147
(S'couple'
p3148
g5
tp3149
tp3150
I1
s((S'Incentive'
p3151
g2
tp3152
(S'structure'
p3153
g5
tp3154
tp3155
I1
s((S'young'
p3156
g2
tp3157
(S'people'
p3158
g42
tp3159
tp3160
I1
s((S'few'
p3161
g2
tp3162
(S'years'
p3163
g42
tp3164
tp3165
I6
s((S'greedy'
p3166
g2
tp3167
(S'company'
p3168
g5
tp3169
tp3170
I1
s((S'awful'
p3171
g2
tp3172
(S'company'
p3173
g5
tp3174
tp3175
I1
s((S'particular'
p3176
g2
tp3177
(S'dept'
p3178
g5
tp3179
tp3180
I1
s((S'poor'
p3181
g2
tp3182
(S'respect'
p3183
g5
tp3184
tp3185
I1
s((S'Corporate'
p3186
g2
tp3187
(S'benefits'
p3188
g42
tp3189
tp3190
I1
s((S'vastly'
p3191
g29
tp3192
(S'eroded'
p3193
g176
tp3194
tp3195
I1
s((S'great'
p3196
g2
tp3197
(S'engine'
p3198
g5
tp3199
tp3200
I1
s((S'solid'
p3201
g2
tp3202
(S'pay'
p3203
g5
tp3204
tp3205
I1
s((S'very'
p3206
g29
tp3207
(S'progressive'
p3208
g2
tp3209
tp3210
I1
s((S'same'
p3211
g2
tp3212
(S'position'
p3213
g5
tp3214
tp3215
I1
s((S'Not'
p3216
g29
tp3217
(S'consistent'
p3218
g2
tp3219
tp3220
I1
s(g1718
(S'medical'
p3221
g2
tp3222
tp3223
I1
s((S'future'
p3224
g2
tp3225
(S'employment'
p3226
g5
tp3227
tp3228
I1
s((S'skilled'
p3229
g2
tp3230
(S'positions'
p3231
g42
tp3232
tp3233
I1
s((S'retail'
p3234
g2
tp3235
(S'job'
p3236
g5
tp3237
tp3238
I1
s((S'other'
p3239
g2
tp3240
(S'Banks'
p3241
g42
tp3242
tp3243
I1
s((S'very'
p3244
g29
tp3245
(S'good'
p3246
g2
tp3247
tp3248
I5
s((S'equitable'
p3249
g2
tp3250
(S'compensation'
p3251
g5
tp3252
tp3253
I1
s((S'even'
p3254
g29
tp3255
(S'ask'
p3256
g150
tp3257
tp3258
I1
s((S'well'
p3259
g29
tp3260
(S'being'
p3261
g69
tp3262
tp3263
I1
s((S'not'
p3264
g29
tp3265
(S'focus'
p3266
g150
tp3267
tp3268
I1
s((S'not'
p3269
g29
tp3270
(S'French'
p3271
g2
tp3272
tp3273
I2
s((S'other'
p3274
g2
tp3275
(S'career'
p3276
g5
tp3277
tp3278
I1
s((S'Never'
p3279
g29
tp3280
(S'got'
p3281
g176
tp3282
tp3283
I1
s((S'bit'
p3284
g5
tp3285
(S'low'
p3286
g2
tp3287
tp3288
I1
s((S'nice'
p3289
g2
tp3290
(S'experience'
p3291
g5
tp3292
tp3293
I1
s((S'slow-moving'
p3294
g2
tp3295
(S'company'
p3296
g5
tp3297
tp3298
I1
s((S'small'
p3299
g2
tp3300
(S'town'
p3301
g5
tp3302
tp3303
I1
s((S"n't"
p3304
g29
tp3305
(S'fantastic'
p3306
g2
tp3307
tp3308
I1
s((S'positive'
p3309
g2
tp3310
(S'environment'
p3311
g5
tp3312
tp3313
I1
s((S'global'
p3314
g2
tp3315
(S'functions'
p3316
g42
tp3317
tp3318
I1
s((S'diverse'
p3319
g2
tp3320
(S'set'
p3321
g5
tp3322
tp3323
I1
s((S'good'
p3324
g2
tp3325
(g1303
g5
tp3326
tp3327
I1
s((S'tech'
p3328
g5
tp3329
(S'new'
p3330
g2
tp3331
tp3332
I1
s((S'many'
p3333
g2
tp3334
(S'programs'
p3335
g42
tp3336
tp3337
I1
s((S'full'
p3338
g2
tp3339
(S'motivation'
p3340
g5
tp3341
tp3342
I1
s((S'not'
p3343
g29
tp3344
(S'increase'
p3345
g150
tp3346
tp3347
I1
s((S'interesting'
p3348
g2
tp3349
(S'work'
p3350
g5
tp3351
tp3352
I6
s((S'mental'
p3353
g2
tp3354
(S'instability'
p3355
g5
tp3356
tp3357
I1
s((S'healthy'
p3358
g2
tp3359
(S'amount'
p3360
g5
tp3361
tp3362
I1
s((S'political'
p3363
g2
tp3364
(S'untochables'
p3365
g42
tp3366
tp3367
I1
s((S'Overly'
p3368
g29
tp3369
(S'conservative'
p3370
g2
tp3371
tp3372
I1
s((S'well'
p3373
g29
tp3374
(S'run'
p3375
g48
tp3376
tp3377
I2
s((S'first'
p3378
g2
tp3379
(S'class'
p3380
g5
tp3381
tp3382
I1
s((S'good'
p3383
g2
tp3384
(S'restauration'
p3385
g5
tp3386
tp3387
I1
s((S'Innovative'
p3388
g2
tp3389
(S'company'
p3390
g5
tp3391
tp3392
I1
s((S'good/bad'
p3393
g2
tp3394
(S'feedback'
p3395
g5
tp3396
tp3397
I1
s((S'self-serving'
p3398
g2
tp3399
(S'agendas'
p3400
g42
tp3401
tp3402
I1
s((S'other'
p3403
g2
tp3404
(S'places'
p3405
g42
tp3406
tp3407
I1
s((S'Not'
p3408
g29
tp3409
(S'good'
p3410
g2
tp3411
tp3412
I1
s((S'German'
p3413
g2
tp3414
(S'workers'
p3415
g42
tp3416
tp3417
I1
s((S'bad'
p3418
g2
tp3419
(S'press'
p3420
g5
tp3421
tp3422
I1
s((S'bad'
p3423
g2
tp3424
(S'game'
p3425
g5
tp3426
tp3427
I1
s((S'Large'
p3428
g2
tp3429
(S'amounts'
p3430
g42
tp3431
tp3432
I1
s((S'lateral'
p3433
g2
tp3434
(S'movement'
p3435
g5
tp3436
tp3437
I1
s((S'social'
p3438
g2
tp3439
(S'life'
p3440
g5
tp3441
tp3442
I2
s((S'great'
p3443
g2
tp3444
(S'company'
p3445
g5
tp3446
tp3447
I16
s((S'annual'
p3448
g2
tp3449
(S'bonus'
p3450
g5
tp3451
tp3452
I1
s((S'entire'
p3453
g2
tp3454
(S'management/leadership'
p3455
g5
tp3456
tp3457
I1
s((S'good'
p3458
g2
tp3459
(S'risk'
p3460
g5
tp3461
tp3462
I1
s((S'similar'
p3463
g2
tp3464
(S'jobs'
p3465
g42
tp3466
tp3467
I1
s((S'new'
p3468
g2
tp3469
(S'skills'
p3470
g42
tp3471
tp3472
I1
s((S'much'
p3473
g2
tp3474
(S'processes'
p3475
g42
tp3476
tp3477
I1
s((S'never'
p3478
g29
tp3479
(S'put'
p3480
g176
tp3481
tp3482
I1
s((S'good'
p3483
g2
tp3484
(S'jobs'
p3485
g42
tp3486
tp3487
I1
s((S'public'
p3488
g2
tp3489
(S'perception'
p3490
g5
tp3491
tp3492
I1
s((S'much'
p3493
g2
tp3494
(S'room'
p3495
g5
tp3496
tp3497
I1
s((S'free'
p3498
g2
tp3499
(S'drinks'
p3500
g42
tp3501
tp3502
I1
s((S'little'
p3503
g2
tp3504
(S'guidance'
p3505
g5
tp3506
tp3507
I1
s((S'current'
p3508
g2
tp3509
(S'leadership'
p3510
g5
tp3511
tp3512
I1
s((S'exciting'
p3513
g2
tp3514
(S'place'
p3515
g5
tp3516
tp3517
I1
s((S'many'
p3518
g2
tp3519
(S'grow'
p3520
g5
tp3521
tp3522
I1
s((S'enthusiastic'
p3523
g2
tp3524
(S'people'
p3525
g42
tp3526
tp3527
I1
s((S'offer'
p3528
g5
tp3529
(S'many'
p3530
g2
tp3531
tp3532
I1
s((S'fast'
p3533
g29
tp3534
(S'moving'
p3535
g69
tp3536
tp3537
I1
s((S'big'
p3538
g2
tp3539
(S'bucks'
p3540
g42
tp3541
tp3542
I1
s((S'slow'
p3543
g2
tp3544
(S'Oil'
p3545
g5
tp3546
tp3547
I1
s((S'pragmatic'
p3548
g2
tp3549
(S'approach'
p3550
g5
tp3551
tp3552
I1
s((S'silo'
p3553
g29
tp3554
(S'oriented'
p3555
g48
tp3556
tp3557
I1
s((S"n't"
p3558
g29
tp3559
(S'take'
p3560
g150
tp3561
tp3562
I1
s((S'uncapped'
p3563
g2
tp3564
(S'commission'
p3565
g5
tp3566
tp3567
I1
s((S'Sometimes'
p3568
g29
tp3569
(S'felt'
p3570
g176
tp3571
tp3572
I1
s((S'Great'
p3573
g2
tp3574
(S'communication'
p3575
g5
tp3576
tp3577
I1
s((S"n't"
p3578
g29
tp3579
(S'understand'
p3580
g150
tp3581
tp3582
I1
s((S'other'
p3583
g2
tp3584
(S'firms'
p3585
g42
tp3586
tp3587
I2
s((S'flexible'
p3588
g2
tp3589
(S'scheules'
p3590
g42
tp3591
tp3592
I1
s((S'not'
p3593
g29
tp3594
(S'make'
p3595
g150
tp3596
tp3597
I1
s((S'very'
p3598
g29
tp3599
(S'demanding'
p3600
g69
tp3601
tp3602
I1
s((S'actual'
p3603
g2
tp3604
(S'ability'
p3605
g5
tp3606
tp3607
I1
s((S'many'
p3608
g2
tp3609
(S'smart'
p3610
g5
tp3611
tp3612
I1
s((S'co-operative'
p3613
g2
tp3614
(S'colleagues'
p3615
g42
tp3616
tp3617
I1
s((S'intellectual'
p3618
g2
tp3619
(S'Staff'
p3620
g5
tp3621
tp3622
I1
s((S'not'
p3623
g29
tp3624
(S'pay'
p3625
g150
tp3626
tp3627
I1
s((S'good'
p3628
g2
tp3629
(S'focus'
p3630
g5
tp3631
tp3632
I1
s((S'good'
p3633
g2
tp3634
(S'compensation'
p3635
g5
tp3636
tp3637
I2
s((S'institutional'
p3638
g2
tp3639
(S'inertia'
p3640
g5
tp3641
tp3642
I1
s((S'poor'
p3643
g2
tp3644
(S'management'
p3645
g5
tp3646
tp3647
I6
s((S'good'
p3648
g2
tp3649
(S'work/life'
p3650
g5
tp3651
tp3652
I4
s((S'same'
p3653
g2
tp3654
(S'company'
p3655
g5
tp3656
tp3657
I1
s((S'great'
p3658
g2
tp3659
(S'team'
p3660
g5
tp3661
tp3662
I1
s((S'place'
p3663
g5
tp3664
(S'overall'
p3665
g2
tp3666
tp3667
I1
s((S'flexible'
p3668
g2
tp3669
(S'schedules'
p3670
g42
tp3671
tp3672
I3
s((S'not'
p3673
g29
tp3674
(S'inclusive'
p3675
g2
tp3676
tp3677
I1
s((S'not'
p3678
g29
tp3679
(S'change'
p3680
g150
tp3681
tp3682
I1
s((S"n't"
p3683
g29
tp3684
(S'much'
p3685
g2
tp3686
tp3687
I1
s((S'too'
p3688
g29
tp3689
(S'nice'
p3690
g2
tp3691
tp3692
I1
s((S'Continuously'
p3693
g29
tp3694
(S'trying'
p3695
g69
tp3696
tp3697
I1
s((S"n't"
p3698
g29
tp3699
(S'promote'
p3700
g150
tp3701
tp3702
I1
s((S'other'
p3703
g2
tp3704
(S'opportunities'
p3705
g42
tp3706
tp3707
I1
s((S'onsite'
p3708
g2
tp3709
(S'gym'
p3710
g5
tp3711
tp3712
I1
s((S'usually'
p3713
g29
tp3714
(S'willing'
p3715
g2
tp3716
tp3717
I1
s((S'good'
p3718
g2
tp3719
(S'jib'
p3720
g5
tp3721
tp3722
I1
s((S'Little'
p3723
g29
tp3724
(S'advancement'
p3725
g176
tp3726
tp3727
I1
s((S'never'
p3728
g29
tp3729
(S'satisfied'
p3730
g48
tp3731
tp3732
I1
s((S'inwardly'
p3733
g29
tp3734
(S'focused'
p3735
g48
tp3736
tp3737
I1
s((S'free'
p3738
g2
tp3739
(S'products'
p3740
g42
tp3741
tp3742
I1
s((S'Relatively'
p3743
g29
tp3744
(S'modern'
p3745
g2
tp3746
tp3747
I1
s((S'extensive'
p3748
g2
tp3749
(S'training'
p3750
g5
tp3751
tp3752
I1
s((S'new'
p3753
g2
tp3754
(S'hires'
p3755
g42
tp3756
tp3757
I1
s((S'old'
p3758
g2
tp3759
(S'school'
p3760
g5
tp3761
tp3762
I1
s((S'constantly'
p3763
g29
tp3764
(S'asking'
p3765
g69
tp3766
tp3767
I1
s((S'not'
p3768
g29
tp3769
(S'adjusted'
p3770
g48
tp3771
tp3772
I1
s((S'alone'
p3773
g29
tp3774
(S'learn'
p3775
g150
tp3776
tp3777
I1
s((S'morale'
p3778
g5
tp3779
(S'horrible'
p3780
g2
tp3781
tp3782
I1
s((S'especially'
p3783
g29
tp3784
(S'procurement'
p3785
g2
tp3786
tp3787
I1
s((S'not'
p3788
g29
tp3789
(S'embrace'
p3790
g150
tp3791
tp3792
I1
s((S'great'
p3793
g2
tp3794
(S'work'
p3795
g5
tp3796
tp3797
I2
s((S'public'
p3798
g2
tp3799
(S'opinion'
p3800
g5
tp3801
tp3802
I1
s((S'-Workable'
p3803
g2
tp3804
(S'hours'
p3805
g42
tp3806
tp3807
I1
s((S'global'
p3808
g2
tp3809
(S'work'
p3810
g5
tp3811
tp3812
I2
s((S'flexible'
p3813
g2
tp3814
(S'schedule'
p3815
g5
tp3816
tp3817
I6
s((S'other'
p3818
g2
tp3819
(S'employers'
p3820
g42
tp3821
tp3822
I1
s((S'always'
p3823
g29
tp3824
(S'competitive'
p3825
g2
tp3826
tp3827
I1
s((S'not'
p3828
g29
tp3829
(S'having'
p3830
g69
tp3831
tp3832
I1
s((S'instantly'
p3833
g29
tp3834
(S'come'
p3835
g150
tp3836
tp3837
I1
s((S'Often'
p3838
g29
tp3839
(S'understaffed'
p3840
g48
tp3841
tp3842
I1
s((S'little'
p3843
g2
tp3844
(S'pay'
p3845
g5
tp3846
tp3847
I1
s((S'long'
p3848
g2
tp3849
(S'work'
p3850
g5
tp3851
tp3852
I1
s((S'Not'
p3853
g29
tp3854
(S'willing'
p3855
g2
tp3856
tp3857
I1
s((S'Long'
p3858
g2
tp3859
(S'working'
p3860
g5
tp3861
tp3862
I1
s((S'extremely'
p3863
g29
tp3864
(S'collaborate'
p3865
g2
tp3866
tp3867
I1
s((S"n't"
p3868
g29
tp3869
(S'pay'
p3870
g150
tp3871
tp3872
I1
s((S'steadily'
p3873
g29
tp3874
(S'declined'
p3875
g48
tp3876
tp3877
I2
s((S'many'
p3878
g2
tp3879
(S'opportunities'
p3880
g42
tp3881
tp3882
I8
s((S'solid'
p3883
g2
tp3884
(S'corporation'
p3885
g5
tp3886
tp3887
I1
s((S'similar'
p3888
g2
tp3889
(S'positions'
p3890
g42
tp3891
tp3892
I1
s((S'not'
p3893
g29
tp3894
(S'competitive'
p3895
g2
tp3896
tp3897
I1
s((S'great'
p3898
g2
tp3899
(S'hiring'
p3900
g5
tp3901
tp3902
I1
s((S'different'
p3903
g2
tp3904
(S'functions'
p3905
g42
tp3906
tp3907
I1
s((S'technical'
p3908
g2
tp3909
(S'software'
p3910
g5
tp3911
tp3912
I1
s((S'not'
p3913
g29
tp3914
(S'appreciate'
p3915
g150
tp3916
tp3917
I2
s((S'cool'
p3918
g2
tp3919
(S'people'
p3920
g42
tp3921
tp3922
I2
s((S'low'
p3923
g2
tp3924
(S'starting'
p3925
g5
tp3926
tp3927
I1
s((S'executive'
p3928
g2
tp3929
(S'turnover'
p3930
g5
tp3931
tp3932
I1
s((S'ever'
p3933
g29
tp3934
(S'had'
p3935
g176
tp3936
tp3937
I2
s(g3222
(S'clinic'
p3938
g2
tp3939
tp3940
I1
s((S'constant'
p3941
g2
tp3942
(S'schedule'
p3943
g5
tp3944
tp3945
I1
s((S'corporate'
p3946
g2
tp3947
(S'management'
p3948
g5
tp3949
tp3950
I1
s((S'-Work/Life'
p3951
g2
tp3952
(S'-Multitude'
p3953
g2
tp3954
tp3955
I1
s((S'large'
p3956
g2
tp3957
(S'amount'
p3958
g5
tp3959
tp3960
I1
s((S"n't"
p3961
g29
tp3962
(S'expect'
p3963
g150
tp3964
tp3965
I1
s((S'not'
p3966
g29
tp3967
(S'take'
p3968
g150
tp3969
tp3970
I1
s((S'highly'
p3971
g29
tp3972
(S'focused'
p3973
g48
tp3974
tp3975
I1
s((S'well'
p3976
g29
tp3977
(S'established'
p3978
g176
tp3979
tp3980
I1
s((S'cool'
p3981
g2
tp3982
(S'manager'
p3983
g5
tp3984
tp3985
I1
s((S'good'
p3986
g2
tp3987
(S'went'
p3988
g5
tp3989
tp3990
I1
s((S'overall'
p3991
g2
tp3992
(S'departmentalize'
p3993
g5
tp3994
tp3995
I1
s((S'creative'
p3996
g2
tp3997
(S'problem'
p3998
g5
tp3999
tp4000
I1
s((S'different'
p4001
g2
tp4002
(S'steps'
p4003
g42
tp4004
tp4005
I1
s((S'little'
p4006
g2
tp4007
(S'room'
p4008
g5
tp4009
tp4010
I1
s((S'extremely'
p4011
g29
tp4012
(S'knowledgable'
p4013
g2
tp4014
tp4015
I1
s((S'world-class'
p4016
g2
tp4017
(S'colleagues'
p4018
g42
tp4019
tp4020
I1
s((S'part-time'
p4021
g2
tp4022
(S'*The'
p4023
g5
tp4024
tp4025
I1
s((S'Generous'
p4026
g2
tp4027
(S'vacation'
p4028
g5
tp4029
tp4030
I1
s((S'Flexible'
p4031
g2
tp4032
(S'schedule'
p4033
g5
tp4034
tp4035
I1
s((S'pretty'
p4036
g29
tp4037
(S'good'
p4038
g2
tp4039
tp4040
I3
s((S'professional'
p4041
g2
tp4042
(S'advancement'
p4043
g5
tp4044
tp4045
I1
s((S'very'
p4046
g29
tp4047
(S'boring'
p4048
g69
tp4049
tp4050
I2
s((S'Always'
p4051
g29
tp4052
(S'changing'
p4053
g69
tp4054
tp4055
I1
s((S'retail'
p4056
g2
tp4057
(S'veterans'
p4058
g42
tp4059
tp4060
I1
s((S'there'
p4061
g29
tp4062
(S'longer.They'
p4063
g2
tp4064
tp4065
I1
s((S'not'
p4066
g29
tp4067
(S'bitter'
p4068
g2
tp4069
tp4070
I1
s((S'not'
p4071
g29
tp4072
(S'deviate'
p4073
g150
tp4074
tp4075
I1
s((S'Highly'
p4076
g29
tp4077
(S'unstable'
p4078
g2
tp4079
tp4080
I1
s((S'bureaucratic'
p4081
g2
tp4082
(S'/'
p4083
g5
tp4084
tp4085
I1
s((S'median'
p4086
g2
tp4087
(S'salary'
p4088
g5
tp4089
tp4090
I1
s((S'good'
p4091
g2
tp4092
(S'work-life'
p4093
g5
tp4094
tp4095
I3
s((S'not'
p4096
g29
tp4097
(S'found'
p4098
g48
tp4099
tp4100
I1
s((S'Large'
p4101
g2
tp4102
(S'corporation'
p4103
g5
tp4104
tp4105
I1
s((S'continuous'
p4106
g2
tp4107
(S'pay'
p4108
g5
tp4109
tp4110
I1
s((S'many'
p4111
g2
tp4112
(S'years'
p4113
g42
tp4114
tp4115
I2
s((S'company'
p4116
g5
tp4117
(S'overall'
p4118
g2
tp4119
tp4120
I1
s((S'stressful'
p4121
g2
tp4122
(S'work'
p4123
g5
tp4124
tp4125
I1
s((S'global'
p4126
g2
tp4127
(S'consulting'
p4128
g5
tp4129
tp4130
I1
s((S'good'
p4131
g2
tp4132
(S'rules'
p4133
g42
tp4134
tp4135
I1
s((S'knowledgable'
p4136
g2
tp4137
(S'amp'
p4138
g5
tp4139
tp4140
I1
s((S"n't"
p4141
g29
tp4142
(S'hired'
p4143
g48
tp4144
tp4145
I1
s((S'good'
p4146
g2
tp4147
(S'nurse'
p4148
g5
tp4149
tp4150
I1
s((S'not'
p4151
g29
tp4152
(S'want'
p4153
g150
tp4154
tp4155
I2
s((S'highly'
p4156
g29
tp4157
(S'non-competitive'
p4158
g2
tp4159
tp4160
I1
s((S'Overall'
p4161
g2
tp4162
(S'good'
p4163
g2
tp4164
tp4165
I1
s((S'absolutely'
p4166
g29
tp4167
(S'draining'
p4168
g69
tp4169
tp4170
I1
s((S'poor'
p4171
g2
tp4172
(S'managers'
p4173
g42
tp4174
tp4175
I1
s((S'bad'
p4176
g2
tp4177
(S'coffee'
p4178
g5
tp4179
tp4180
I1
s((S'really'
p4181
g29
tp4182
(S'drain'
p4183
g150
tp4184
tp4185
I1
s((S'so'
p4186
g29
tp4187
(S'good'
p4188
g2
tp4189
tp4190
I1
s((S'high'
p4191
g2
tp4192
(S'energy'
p4193
g5
tp4194
tp4195
I1
s((S'sensitive'
p4196
g2
tp4197
(S'deadlines'
p4198
g42
tp4199
tp4200
I1
s((S'centers'
p4201
g42
tp4202
(S'available'
p4203
g2
tp4204
tp4205
I1
s((S'bureaucratic'
p4206
g2
tp4207
(S'political'
p4208
g2
tp4209
tp4210
I1
s((S'hierarchical'
p4211
g2
tp4212
(S'company'
p4213
g5
tp4214
tp4215
I1
s((S'locomotive'
p4216
g2
tp4217
(S'manufacturing'
p4218
g5
tp4219
tp4220
I1
s((S'good'
p4221
g2
tp4222
(S'prospect'
p4223
g5
tp4224
tp4225
I1
s((S'early'
p4226
g2
tp4227
(S'experience'
p4228
g5
tp4229
tp4230
I1
s((S'much'
p4231
g2
tp4232
(S'compliance'
p4233
g5
tp4234
tp4235
I1
s((S'local'
p4236
g2
tp4237
(S'management'
p4238
g5
tp4239
tp4240
I1
s((S'Competitive'
p4241
g2
tp4242
(S'base'
p4243
g5
tp4244
tp4245
I1
s((S'functional'
p4246
g2
tp4247
(S'responsibility'
p4248
g5
tp4249
tp4250
I1
s((S'own'
p4251
g2
tp4252
(S'employees'
p4253
g42
tp4254
tp4255
I1
s((S'own'
p4256
g2
tp4257
(S'pacequot'
p4258
g5
tp4259
tp4260
I1
s((S'entrepreneurial'
p4261
g2
tp4262
(S'environment'
p4263
g5
tp4264
tp4265
I1
s((S'homeless'
p4266
g2
tp4267
(S'people'
p4268
g42
tp4269
tp4270
I1
s((S"n't"
p4271
g29
tp4272
(S'think'
p4273
g150
tp4274
tp4275
I1
s((S'actual'
p4276
g2
tp4277
(S'work'
p4278
g5
tp4279
tp4280
I1
s((S'retail'
p4281
g2
tp4282
(S'level'
p4283
g5
tp4284
tp4285
I1
s((S'many'
p4286
g2
tp4287
(S'times'
p4288
g42
tp4289
tp4290
I1
s((S'retail'
p4291
g2
tp4292
(S'portion'
p4293
g5
tp4294
tp4295
I1
s((S'well'
p4296
g29
tp4297
(S'defined'
p4298
g48
tp4299
tp4300
I1
s((S'overall'
p4301
g2
tp4302
(S'culture'
p4303
g5
tp4304
tp4305
I1
s((S'impossible'
p4306
g2
tp4307
(S'describe'
p4308
g5
tp4309
tp4310
I1
s((S'Large'
p4311
g2
tp4312
(S'size'
p4313
g5
tp4314
tp4315
I1
s((S'high'
p4316
g2
tp4317
(S'amount'
p4318
g5
tp4319
tp4320
I1
s((S'responsive'
p4321
g2
tp4322
(S'bosses'
p4323
g42
tp4324
tp4325
I1
s((S"n't"
p4326
g29
tp4327
(S'like'
p4328
g150
tp4329
tp4330
I2
s(g3806
(S'-Extra'
p4331
g2
tp4332
tp4333
I1
s((S'strong'
p4334
g2
tp4335
(S'division'
p4336
g5
tp4337
tp4338
I1
s((S'different'
p4339
g2
tp4340
(S'projects'
p4341
g42
tp4342
tp4343
I2
s((S'great'
p4344
g2
tp4345
(S'location'
p4346
g5
tp4347
tp4348
I1
s((S'many'
p4349
g2
tp4350
(S'levels'
p4351
g42
tp4352
tp4353
I2
s((S'strategic'
p4354
g2
tp4355
(S'direction'
p4356
g5
tp4357
tp4358
I1
s((S'enough'
p4359
g29
tp4360
(S'time'
p4361
g150
tp4362
tp4363
I2
s((S'High'
p4364
g2
tp4365
(S'attrition'
p4366
g5
tp4367
tp4368
I1
s((S'overall'
p4369
g2
tp4370
(S'experience'
p4371
g5
tp4372
tp4373
I1
s((S'various'
p4374
g2
tp4375
(S'departments'
p4376
g42
tp4377
tp4378
I1
s((S'different'
p4379
g2
tp4380
(S'numbers'
p4381
g42
tp4382
tp4383
I1
s((S'long'
p4384
g29
tp4385
(S'working'
p4386
g69
tp4387
tp4388
I1
s((S'complex'
p4389
g2
tp4390
(S'work'
p4391
g5
tp4392
tp4393
I1
s((S'wonderful'
p4394
g2
tp4395
(S'place'
p4396
g5
tp4397
tp4398
I1
s((S'supportive'
p4399
g2
tp4400
(S'environment'
p4401
g5
tp4402
tp4403
I3
s((S'male'
p4404
g2
tp4405
(S'managers'
p4406
g42
tp4407
tp4408
I1
s((S'especially'
p4409
g29
tp4410
(S'concerning'
p4411
g69
tp4412
tp4413
I1
s((S'always'
p4414
g29
tp4415
(S'changing'
p4416
g69
tp4417
tp4418
I2
s((S'slow'
p4419
g2
tp4420
(S'moving'
p4421
g5
tp4422
tp4423
I2
s((S'recent'
p4424
g2
tp4425
(S'years'
p4426
g42
tp4427
tp4428
I1
s((S'enough'
p4429
g29
tp4430
(S'room'
p4431
g150
tp4432
tp4433
I1
s((S'good'
p4434
g2
tp4435
(S'pay-masters'
p4436
g42
tp4437
tp4438
I1
s((S'slow'
p4439
g2
tp4440
(S'summers'
p4441
g42
tp4442
tp4443
I1
s((S'free'
p4444
g2
tp4445
(S'uniforms'
p4446
g42
tp4447
tp4448
I1
s((S'internal'
p4449
g2
tp4450
(S'moves'
p4451
g42
tp4452
tp4453
I1
s((S'much'
p4454
g2
tp4455
(S'better'
p4456
g5
tp4457
tp4458
I1
s((S'professional'
p4459
g2
tp4460
(S'growth'
p4461
g5
tp4462
tp4463
I4
s((S"'ole"
p4464
g2
tp4465
(S'boy'
p4466
g5
tp4467
tp4468
I1
s((S'automotive'
p4469
g2
tp4470
(S'experience'
p4471
g5
tp4472
tp4473
I1
s((S'Consistently'
p4474
g29
tp4475
(S'good'
p4476
g176
tp4477
tp4478
I1
s((S'slowly'
p4479
g29
tp4480
(S'changing'
p4481
g69
tp4482
tp4483
I1
s((S'buddy'
p4484
g2
tp4485
(S'system'
p4486
g5
tp4487
tp4488
I1
s((S'minimum'
p4489
g2
tp4490
(S'salary'
p4491
g5
tp4492
tp4493
I1
s((S'upper'
p4494
g2
tp4495
(S'management'
p4496
g5
tp4497
tp4498
I7
s((S'superior'
p4499
g2
tp4500
(S'performance'
p4501
g5
tp4502
tp4503
I1
s((S'never'
p4504
g29
tp4505
(S'be'
p4506
g150
tp4507
tp4508
I1
s((S'not'
p4509
g29
tp4510
(S'think'
p4511
g150
tp4512
tp4513
I1
s((S'mostly'
p4514
g29
tp4515
(S'lateral'
p4516
g2
tp4517
tp4518
I1
s((S'rather'
p4519
g29
tp4520
(S'suggest'
p4521
g150
tp4522
tp4523
I1
s((S'only'
p4524
g29
tp4525
(S'gained'
p4526
g176
tp4527
tp4528
I1
s((S'worth'
p4529
g2
tp4530
(S'mentioning'
p4531
g5
tp4532
tp4533
I1
s((S'Inter-group'
p4534
g2
tp4535
(S'interactions'
p4536
g42
tp4537
tp4538
I1
s((S'more'
p4539
g1180
tp4540
(S'enjoyable'
p4541
g2
tp4542
tp4543
I1
s((S'Long'
p4544
g2
tp4545
(S'hours'
p4546
g42
tp4547
tp4548
I3
s((S'always'
p4549
g29
tp4550
(S'make'
p4551
g150
tp4552
tp4553
I1
s((S'other'
p4554
g2
tp4555
(S'company'
p4556
g5
tp4557
tp4558
I1
s((S'own'
p4559
g2
tp4560
(S'insecurities'
p4561
g42
tp4562
tp4563
I1
s((S'good'
p4564
g2
tp4565
(S'rate'
p4566
g5
tp4567
tp4568
I1
s((S'very'
p4569
g29
tp4570
(S'fast'
p4571
g48
tp4572
tp4573
I1
s((S'most'
p4574
g1276
tp4575
(S'beneficial'
p4576
g2
tp4577
tp4578
I1
s((S'Huge'
p4579
g2
tp4580
(S'engineering'
p4581
g5
tp4582
tp4583
I1
s((S'more'
p4584
g1180
tp4585
(S'political'
p4586
g2
tp4587
tp4588
I1
s((S'own'
p4589
g2
tp4590
(g1303
g5
tp4591
tp4592
I1
s((S'even'
p4593
g29
tp4594
(S'start'
p4595
g150
tp4596
tp4597
I1
s((S'great'
p4598
g2
tp4599
(S'networking'
p4600
g5
tp4601
tp4602
I2
s((S'global'
p4603
g2
tp4604
(S'companies'
p4605
g42
tp4606
tp4607
I1
s((S'real'
p4608
g2
tp4609
(S'slave'
p4610
g5
tp4611
tp4612
I1
s((S"n't"
p4613
g29
tp4614
(S'reward'
p4615
g150
tp4616
tp4617
I1
s((S'functional'
p4618
g2
tp4619
(S'work'
p4620
g5
tp4621
tp4622
I1
s((S'easy-going'
p4623
g2
tp4624
(S'work'
p4625
g5
tp4626
tp4627
I1
s((S'future'
p4628
g2
tp4629
(S'work'
p4630
g5
tp4631
tp4632
I1
s((S'regional'
p4633
g2
tp4634
(S'level'
p4635
g5
tp4636
tp4637
I1
s((S'different'
p4638
g2
tp4639
(S'part'
p4640
g5
tp4641
tp4642
I1
s((S'hard'
p4643
g2
tp4644
(S'work'
p4645
g5
tp4646
tp4647
I2
s((S'late'
p4648
g2
tp4649
(S'payments'
p4650
g42
tp4651
tp4652
I1
s((S'senior'
p4653
g2
tp4654
(S'management'
p4655
g5
tp4656
tp4657
I7
s((S'Not'
p4658
g29
tp4659
(S'engaging'
p4660
g69
tp4661
tp4662
I1
s((S'generally'
p4663
g29
tp4664
(S'proud'
p4665
g2
tp4666
tp4667
I1
s((S'financial'
p4668
g2
tp4669
(S'goals'
p4670
g42
tp4671
tp4672
I1
s((S'more'
p4673
g1180
tp4674
(S'willing'
p4675
g2
tp4676
tp4677
I1
s((S'significant'
p4678
g2
tp4679
(S'increments'
p4680
g42
tp4681
tp4682
I1
s((S'somewhat'
p4683
g29
tp4684
(S'disorganized'
p4685
g48
tp4686
tp4687
I1
s((S'now'
p4688
g29
tp4689
(S'regrettable'
p4690
g2
tp4691
tp4692
I1
s((S'in-house'
p4693
g2
tp4694
(S'union'
p4695
g5
tp4696
tp4697
I1
s((S'different'
p4698
g2
tp4699
(S'experience'
p4700
g5
tp4701
tp4702
I1
s((S'big'
p4703
g2
tp4704
(S'recognition'
p4705
g5
tp4706
tp4707
I1
s((S'corporate'
p4708
g2
tp4709
(S'bureaucracy'
p4710
g5
tp4711
tp4712
I1
s((S'somewhat'
p4713
g29
tp4714
(S'inpractical'
p4715
g2
tp4716
tp4717
I1
s((S'many'
p4718
g2
tp4719
(S'god'
p4720
g5
tp4721
tp4722
I1
s((S'high'
p4723
g2
tp4724
(S'yield'
p4725
g5
tp4726
tp4727
I1
s((S'Strong'
p4728
g2
tp4729
(S'Brands'
p4730
g42
tp4731
tp4732
I1
s((S'many'
p4733
g2
tp4734
(S'things'
p4735
g42
tp4736
tp4737
I2
s((S'possibly'
p4738
g29
tp4739
(S'spend'
p4740
g150
tp4741
tp4742
I1
s((S'valuable'
p4743
g2
tp4744
(S'experience'
p4745
g5
tp4746
tp4747
I1
s((S'top'
p4748
g2
tp4749
(S'tiers'
p4750
g42
tp4751
tp4752
I1
s((S'Many'
p4753
g2
tp4754
(S'employees'
p4755
g42
tp4756
tp4757
I1
s((S'relatively'
p4758
g29
tp4759
(S'low'
p4760
g2
tp4761
tp4762
I1
s((S'important'
p4763
g2
tp4764
(S'decision'
p4765
g5
tp4766
tp4767
I1
s((S'great'
p4768
g2
tp4769
(S'reputation'
p4770
g5
tp4771
tp4772
I2
s((S'national'
p4773
g2
tp4774
(S'brands'
p4775
g42
tp4776
tp4777
I1
s((S'single'
p4778
g2
tp4779
(S'aspect'
p4780
g5
tp4781
tp4782
I1
s((S'very'
p4783
g29
tp4784
(S'inconsistent'
p4785
g2
tp4786
tp4787
I1
s((S'Passive'
p4788
g2
tp4789
(S'environment'
p4790
g5
tp4791
tp4792
I1
s((S'global'
p4793
g2
tp4794
(S'counterparts'
p4795
g42
tp4796
tp4797
I1
s((S'third'
p4798
g2
tp4799
(S'party'
p4800
g5
tp4801
tp4802
I1
s((S'top'
p4803
g2
tp4804
(S'bank'
p4805
g5
tp4806
tp4807
I1
s((S'personal'
p4808
g2
tp4809
(S'experiences'
p4810
g42
tp4811
tp4812
I1
s((S'tough'
p4813
g2
tp4814
(S'profit'
p4815
g5
tp4816
tp4817
I1
s((S'good'
p4818
g2
tp4819
(S'start'
p4820
g5
tp4821
tp4822
I1
s((S'certain'
p4823
g2
tp4824
(S'departments'
p4825
g42
tp4826
tp4827
I1
s((S'real'
p4828
g2
tp4829
(S'input'
p4830
g5
tp4831
tp4832
I1
s((S'comparable'
p4833
g2
tp4834
(S'auto'
p4835
g5
tp4836
tp4837
I1
s((S'little'
p4838
g2
tp4839
(S'time'
p4840
g5
tp4841
tp4842
I1
s(g2018
(S'friendly'
p4843
g2
tp4844
tp4845
I1
s((S'too'
p4846
g29
tp4847
(S'dragging'
p4848
g69
tp4849
tp4850
I1
s((S'new'
p4851
g2
tp4852
(S'changes'
p4853
g42
tp4854
tp4855
I1
s((S'high'
p4856
g2
tp4857
(S'compensation'
p4858
g5
tp4859
tp4860
I1
s((S'actual'
p4861
g2
tp4862
(S'company'
p4863
g5
tp4864
tp4865
I1
s((S'low'
p4866
g2
tp4867
(S'moral'
p4868
g2
tp4869
tp4870
I1
s((S'short'
p4871
g2
tp4872
(S'amount'
p4873
g5
tp4874
tp4875
I1
s((S'probably'
p4876
g29
tp4877
(S'need'
p4878
g150
tp4879
tp4880
I1
s((S'constantly'
p4881
g29
tp4882
(S'learning'
p4883
g69
tp4884
tp4885
I1
s((S'autonomous'
p4886
g2
tp4887
(S'projects'
p4888
g42
tp4889
tp4890
I1
s((S'still'
p4891
g29
tp4892
(S'growing'
p4893
g69
tp4894
tp4895
I1
s((S'Flexible'
p4896
g2
tp4897
(S'work'
p4898
g5
tp4899
tp4900
I1
s((S'so'
p4901
g29
tp4902
(S'big'
p4903
g2
tp4904
tp4905
I2
s((S'negative'
p4906
g2
tp4907
(S'outcomes'
p4908
g42
tp4909
tp4910
I1
s((S'Flexible'
p4911
g2
tp4912
(S'environment'
p4913
g5
tp4914
tp4915
I1
s((S'huge'
p4916
g2
tp4917
(S'company'
p4918
g5
tp4919
tp4920
I2
s((S'namely'
p4921
g29
tp4922
(S'computing'
p4923
g69
tp4924
tp4925
I1
s((S'medical'
p4926
g2
tp4927
(S'condition'
p4928
g5
tp4929
tp4930
I1
s((S'great'
p4931
g2
tp4932
(S'Bonuses'
p4933
g42
tp4934
tp4935
I1
s((S'good'
p4936
g2
tp4937
(S'hours'
p4938
g42
tp4939
tp4940
I1
s((S'constantly'
p4941
g29
tp4942
(S'threatened'
p4943
g48
tp4944
tp4945
I1
s((S'outstanding'
p4946
g2
tp4947
(S'product'
p4948
g5
tp4949
tp4950
I1
s((S"n't"
p4951
g29
tp4952
(S'seem'
p4953
g150
tp4954
tp4955
I2
s((S'new'
p4956
g2
tp4957
(S'ideas'
p4958
g42
tp4959
tp4960
I1
s((S'different'
p4961
g2
tp4962
(S'department'
p4963
g5
tp4964
tp4965
I1
s((S'still'
p4966
g29
tp4967
(S'treat'
p4968
g150
tp4969
tp4970
I1
s((S'generally'
p4971
g29
tp4972
(S'viewed'
p4973
g48
tp4974
tp4975
I1
s((S'corporate'
p4976
g2
tp4977
(S'cultur'
p4978
g5
tp4979
tp4980
I1
s((S'team-oriented'
p4981
g2
tp4982
(S'culture'
p4983
g5
tp4984
tp4985
I1
s((S'financial'
p4986
g2
tp4987
(S'institutions'
p4988
g42
tp4989
tp4990
I1
s((S'great'
p4991
g2
tp4992
(S'palce'
p4993
g5
tp4994
tp4995
I1
s((S'very'
p4996
g29
tp4997
(S'difficult'
p4998
g2
tp4999
tp5000
I4
s((S'livable'
p5001
g2
tp5002
(S'wage'
p5003
g5
tp5004
tp5005
I1
s((S'severely'
p5006
g29
tp5007
(S'restricted'
p5008
g48
tp5009
tp5010
I1
s((S'only'
p5011
g29
tp5012
(S'value'
p5013
g150
tp5014
tp5015
I1
s((S'financial'
p5016
g2
tp5017
(S'crises'
p5018
g42
tp5019
tp5020
I1
s((S'big'
p5021
g2
tp5022
(S'swings'
p5023
g42
tp5024
tp5025
I1
s((S'automotive'
p5026
g2
tp5027
(S'manufacturing'
p5028
g5
tp5029
tp5030
I1
s((S'stupid'
p5031
g2
tp5032
(S'Cashiers'
p5033
g42
tp5034
tp5035
I1
s((S'Corporate'
p5036
g2
tp5037
(S'training'
p5038
g5
tp5039
tp5040
I1
s((S'immediate'
p5041
g2
tp5042
(S'manager'
p5043
g5
tp5044
tp5045
I1
s((S'not'
p5046
g29
tp5047
(S'follow'
p5048
g150
tp5049
tp5050
I1
s((S'Global'
p5051
g2
tp5052
(S'opportunities'
p5053
g42
tp5054
tp5055
I1
s((S'much'
p5056
g2
tp5057
(S'work'
p5058
g5
tp5059
tp5060
I1
s((S'much'
p5061
g2
tp5062
(S'emphasis'
p5063
g5
tp5064
tp5065
I1
s((S'high'
p5066
g2
tp5067
g3329
tp5068
I1
s((S'great'
p5069
g2
tp5070
(S'co-workers'
p5071
g42
tp5072
tp5073
I2
s((S'good'
p5074
g2
tp5075
(S'location'
p5076
g5
tp5077
tp5078
I1
s((S'finance'
p5079
g5
tp5080
(S'professional'
p5081
g2
tp5082
tp5083
I1
s((S'many'
p5084
g2
tp5085
(S'employees'
p5086
g42
tp5087
tp5088
I4
s((S'very'
p5089
g29
tp5090
(S'strong'
p5091
g2
tp5092
tp5093
I1
s((S"n't"
p5094
g29
tp5095
(S're'
p5096
g150
tp5097
tp5098
I1
s((S'many'
p5099
g2
tp5100
(S'golden'
p5101
g42
tp5102
tp5103
I1
s((S'partly'
p5104
g29
tp5105
(S'dictated'
p5106
g48
tp5107
tp5108
I1
s((S'new'
p5109
g2
tp5110
(S'positions'
p5111
g42
tp5112
tp5113
I1
s((S"n't"
p5114
g29
tp5115
(S'mesh'
p5116
g150
tp5117
tp5118
I1
s((S'little'
p5119
g29
tp5120
(S'movemoent'
p5121
g2
tp5122
tp5123
I1
s((S'flexible'
p5124
g2
tp5125
(S'work'
p5126
g5
tp5127
tp5128
I5
s((S'Incredible'
p5129
g2
tp5130
(S'jump'
p5131
g5
tp5132
tp5133
I1
s((S'poor'
p5134
g2
tp5135
(S'execution'
p5136
g5
tp5137
tp5138
I1
s((S'high'
p5139
g2
tp5140
(S'insurance'
p5141
g5
tp5142
tp5143
I1
s((S'cubical'
p5144
g2
tp5145
(S'walls'
p5146
g42
tp5147
tp5148
I1
s((S'individual'
p5149
g2
tp5150
(S'peers'
p5151
g42
tp5152
tp5153
I1
s((S'supportive'
p5154
g2
tp5155
(S'company'
p5156
g5
tp5157
tp5158
I1
s((S'Important'
p5159
g2
tp5160
(S'decisions'
p5161
g42
tp5162
tp5163
I1
s((S'low'
p5164
g2
tp5165
(S'compensation'
p5166
g5
tp5167
tp5168
I1
s((S'little'
p5169
g2
tp5170
(S'compassion'
p5171
g5
tp5172
tp5173
I1
s((S'very'
p5174
g29
tp5175
(S'pleasant'
p5176
g2
tp5177
tp5178
I1
s((S'enough'
p5179
g29
tp5180
(S'associated'
p5181
g48
tp5182
tp5183
I1
s((S'greatly'
p5184
g29
tp5185
(S'stressed'
p5186
g48
tp5187
tp5188
I1
s((S'profitable'
p5189
g2
tp5190
(S'company'
p5191
g5
tp5192
tp5193
I1
s((S'service'
p5194
g5
tp5195
(S'possible'
p5196
g2
tp5197
tp5198
I1
s((S'new'
p5199
g2
tp5200
(S'tools'
p5201
g42
tp5202
tp5203
I1
s((S'retail'
p5204
g2
tp5205
(S'employees'
p5206
g42
tp5207
tp5208
I1
s((S'always'
p5209
g29
tp5210
(S'treated'
p5211
g48
tp5212
tp5213
I1
s((S'movement'
p5214
g5
tp5215
(S'possible'
p5216
g2
tp5217
tp5218
I1
s((S'real'
p5219
g2
tp5220
(S'dedication'
p5221
g5
tp5222
tp5223
I1
s((S'actual'
p5224
g2
tp5225
(S'client'
p5226
g5
tp5227
tp5228
I1
s((S'well'
p5229
g29
tp5230
(S'located'
p5231
g48
tp5232
tp5233
I1
s((S'nice'
p5234
g2
tp5235
(S'place'
p5236
g5
tp5237
tp5238
I2
s((S'inadequate'
p5239
g2
tp5240
g2346
tp5241
I1
s((S'often'
p5242
g29
tp5243
(S'cancelled'
p5244
g48
tp5245
tp5246
I1
s((S'tactical'
p5247
g2
tp5248
(S'operations'
p5249
g42
tp5250
tp5251
I1
s((S'generally'
p5252
g29
tp5253
g1221
tp5254
I1
s((S'less'
p5255
g1180
tp5256
(S'compared'
p5257
g48
tp5258
tp5259
I1
s((S'REALLY'
p5260
g29
tp5261
(S'bad'
p5262
g2
tp5263
tp5264
I1
s((S'overwork/overstressed'
p5265
g2
tp5266
(S'environment'
p5267
g5
tp5268
tp5269
I1
s((S'new'
p5270
g2
tp5271
(S'cool'
p5272
g5
tp5273
tp5274
I1
s((S'too'
p5275
g29
tp5276
(S'stressful'
p5277
g2
tp5278
tp5279
I1
s((S'bad'
p5280
g2
tp5281
(S'manegement'
p5282
g5
tp5283
tp5284
I1
s((S'immediately'
p5285
g29
tp5286
(S'transfer'
p5287
g150
tp5288
tp5289
I1
s(g4869
(S'hard'
p5290
g2
tp5291
tp5292
I1
s((S'immediate'
p5293
g2
tp5294
(S'management'
p5295
g5
tp5296
tp5297
I2
s((S'interesting'
p5298
g2
tp5299
(S'projects'
p5300
g42
tp5301
tp5302
I1
s((S'are'
p5303
g2
tp5304
(S'nice'
p5305
g2
tp5306
tp5307
I1
s((S'ever-changing'
p5308
g2
tp5309
(S'leadership'
p5310
g5
tp5311
tp5312
I1
s((S'continuously'
p5313
g29
tp5314
(S'cut'
p5315
g48
tp5316
tp5317
I1
s((S'big'
p5318
g2
tp5319
(S'plus'
p5320
g5
tp5321
tp5322
I1
s((S'Highly'
p5323
g29
tp5324
(S'motivated'
p5325
g48
tp5326
tp5327
I1
s((S'much'
p5328
g29
tp5329
(S'paperwork'
p5330
g150
tp5331
tp5332
I1
s((S'regional'
p5333
g2
tp5334
(S'teams'
p5335
g42
tp5336
tp5337
I1
s((S'sometime'
p5338
g2
tp5339
(S'reimberse'
p5340
g5
tp5341
tp5342
I1
s((S"n't"
p5343
g29
tp5344
(S'be'
p5345
g150
tp5346
tp5347
I1
s((S'not'
p5348
g29
tp5349
(S'replacing'
p5350
g69
tp5351
tp5352
I1
s((S'strict'
p5353
g2
tp5354
(S'deadlines'
p5355
g42
tp5356
tp5357
I1
s((S'different'
p5358
g2
tp5359
(S'backgrounds'
p5360
g42
tp5361
tp5362
I1
s((S'very'
p5363
g29
tp5364
(S'flexible'
p5365
g2
tp5366
tp5367
I3
s((S'great'
p5368
g2
tp5369
(S'upside'
p5370
g5
tp5371
tp5372
I1
s((S'Not'
p5373
g29
tp5374
(S'open'
p5375
g2
tp5376
tp5377
I1
s((S'standard'
p5378
g2
tp5379
(S'operating'
p5380
g5
tp5381
tp5382
I1
s((S'accessible'
p5383
g2
tp5384
(S'leadership'
p5385
g5
tp5386
tp5387
I1
s((S'basic'
p5388
g2
tp5389
(S'skills'
p5390
g42
tp5391
tp5392
I1
s((S'long'
p5393
g2
tp5394
(S'term'
p5395
g5
tp5396
tp5397
I3
s((S'more'
p5398
g1180
tp5399
(S'concerned'
p5400
g48
tp5401
tp5402
I1
s((S'solid'
p5403
g2
tp5404
(S'fundamentals'
p5405
g42
tp5406
tp5407
I1
s((S"n't"
p5408
g29
tp5409
(S'come'
p5410
g150
tp5411
tp5412
I1
s((S'various'
p5413
g2
tp5414
(S'work'
p5415
g5
tp5416
tp5417
I1
s((S'competitive'
p5418
g2
tp5419
(S'employees'
p5420
g42
tp5421
tp5422
I1
s((S'internally'
p5423
g29
tp5424
(S'focused'
p5425
g48
tp5426
tp5427
I3
s((S'reactive'
p5428
g2
tp5429
(S'management'
p5430
g5
tp5431
tp5432
I1
s((S'new'
p5433
g2
tp5434
(S'technology'
p5435
g5
tp5436
tp5437
I2
s((S'clear'
p5438
g2
tp5439
(S'career'
p5440
g5
tp5441
tp5442
I1
s((S'-Faire'
p5443
g2
tp5444
(S'bonuses'
p5445
g42
tp5446
tp5447
I1
s((S'making/closing'
p5448
g2
tp5449
(S'sales'
p5450
g42
tp5451
tp5452
I1
s((S'seasonal'
p5453
g2
tp5454
(S'help'
p5455
g5
tp5456
tp5457
I1
s((S'lines.Your'
p5458
g2
tp5459
(S'clothing'
p5460
g5
tp5461
tp5462
I1
s((S'little'
p5463
g2
tp5464
(S'reward'
p5465
g5
tp5466
tp5467
I1
s((S'poor'
p5468
g2
tp5469
(S'tools'
p5470
g42
tp5471
tp5472
I1
s((S'young'
p5473
g2
tp5474
(S'employees'
p5475
g42
tp5476
tp5477
I2
s((S'short'
p5478
g2
tp5479
(S'period'
p5480
g5
tp5481
tp5482
I3
s((S'well'
p5483
g29
tp5484
(S'rounded'
p5485
g48
tp5486
tp5487
I1
s((S'future'
p5488
g2
tp5489
(S'career'
p5490
g5
tp5491
tp5492
I1
s((S'big'
p5493
g2
tp5494
(S'companies'
p5495
g42
tp5496
tp5497
I1
s((S'real'
p5498
g2
tp5499
(S'learning'
p5500
g5
tp5501
tp5502
I1
s((S'innovative'
p5503
g2
tp5504
(S'products'
p5505
g42
tp5506
tp5507
I2
s((S'very'
p5508
g29
tp5509
(S'solid'
p5510
g2
tp5511
tp5512
I1
s((S'very'
p5513
g29
tp5514
(S'welcoming'
p5515
g69
tp5516
tp5517
I1
s((S'autocratic'
p5518
g2
tp5519
(S'culture'
p5520
g5
tp5521
tp5522
I1
s((S'own'
p5523
g2
tp5524
(S'initiative'
p5525
g2
tp5526
tp5527
I1
s((S'fresh'
p5528
g2
tp5529
(S'blood'
p5530
g5
tp5531
tp5532
I2
s((S'bad'
p5533
g2
tp5534
(S'location'
p5535
g5
tp5536
tp5537
I1
s((S'Vertical'
p5538
g2
tp5539
(S'job'
p5540
g5
tp5541
tp5542
I1
s((S'High'
p5543
g2
tp5544
(S'compensation'
p5545
g5
tp5546
tp5547
I2
s((S'sales'
p5548
g42
tp5549
(S'Part-time'
p5550
g2
tp5551
tp5552
I1
s((S'well'
p5553
g29
tp5554
(S'organized'
p5555
g48
tp5556
tp5557
I2
s((S'Reasonable'
p5558
g2
tp5559
(S'production'
p5560
g5
tp5561
tp5562
I1
s((S'little'
p5563
g29
tp5564
(S'input'
p5565
g48
tp5566
tp5567
I1
s((S'Never'
p5568
g29
tp5569
(S'ending'
p5570
g69
tp5571
tp5572
I1
s((S'Executive'
p5573
g2
tp5574
(S'Leadership'
p5575
g5
tp5576
tp5577
I1
s((S'good'
p5578
g2
tp5579
(S'benefits'
p5580
g42
tp5581
tp5582
I18
s((S'great'
p5583
g2
tp5584
(S'Many'
p5585
g2
tp5586
tp5587
I1
s((S'very'
p5588
g29
tp5589
(S'competitive'
p5590
g2
tp5591
tp5592
I5
s((S'overall'
p5593
g2
tp5594
(S'process'
p5595
g5
tp5596
tp5597
I1
s((S'great'
p5598
g2
tp5599
(S'systems'
p5600
g42
tp5601
tp5602
I1
s((S'various'
p5603
g2
tp5604
(S'learning'
p5605
g5
tp5606
tp5607
I1
s((S'wonderful'
p5608
g2
tp5609
(S'co-workers'
p5610
g42
tp5611
tp5612
I1
s((S'growth'
p5613
g5
tp5614
(S'potential'
p5615
g2
tp5616
tp5617
I1
s((S'very'
p5618
g29
tp5619
(S'impersonal'
p5620
g2
tp5621
tp5622
I1
s((S'so'
p5623
g29
tp5624
(S'great'
p5625
g2
tp5626
tp5627
I1
s((S'bureaucratic'
p5628
g2
tp5629
(S'decision'
p5630
g5
tp5631
tp5632
I1
s((S'many'
p5633
g2
tp5634
(S'layers'
p5635
g42
tp5636
tp5637
I5
s((S'large-scale'
p5638
g2
tp5639
(S'projects'
p5640
g42
tp5641
tp5642
I1
s((S'cutthroat'
p5643
g2
tp5644
(S'approach'
p5645
g5
tp5646
tp5647
I1
s((S'many'
p5648
g2
tp5649
(S'layoffs'
p5650
g42
tp5651
tp5652
I1
s((S'new'
p5653
g2
tp5654
(S'products'
p5655
g42
tp5656
tp5657
I2
s((S'ongoing'
p5658
g2
tp5659
(S'training'
p5660
g5
tp5661
tp5662
I1
s((S'not'
p5663
g29
tp5664
(S'able'
p5665
g2
tp5666
tp5667
I1
s((S'still'
p5668
g29
tp5669
(S'working'
p5670
g69
tp5671
tp5672
I2
s((S'Many'
p5673
g2
tp5674
(S'opportunities'
p5675
g42
tp5676
tp5677
I3
s((S'corporate'
p5678
g2
tp5679
(S'interference'
p5680
g5
tp5681
tp5682
I1
s((S'relatively'
p5683
g29
tp5684
(S'speaking'
p5685
g69
tp5686
tp5687
I1
s((S'such'
p5688
g2
tp5689
(S'examples'
p5690
g42
tp5691
tp5692
I1
s((S'lean'
p5693
g2
tp5694
(S'mfg'
p5695
g5
tp5696
tp5697
I1
s((S'comfortable'
p5698
g2
tp5699
(S'living'
p5700
g5
tp5701
tp5702
I1
s((S'not'
p5703
g29
tp5704
(S'look'
p5705
g150
tp5706
tp5707
I1
s((S'laid'
p5708
g2
tp5709
(S'back'
p5710
g5
tp5711
tp5712
I1
s((S'technical'
p5713
g2
tp5714
(S'works'
p5715
g42
tp5716
tp5717
I1
s(g257
(S'detrimental'
p5718
g2
tp5719
tp5720
I1
s((S'skill'
p5721
g5
tp5722
(S'low'
p5723
g2
tp5724
tp5725
I1
s((S'free'
p5726
g2
tp5727
(S'benefits'
p5728
g42
tp5729
tp5730
I1
s((S'Work-life'
p5731
g2
tp5732
(S'balance'
p5733
g5
tp5734
tp5735
I1
s((S'good'
p5736
g2
tp5737
(S'incentive'
p5738
g5
tp5739
tp5740
I1
s((S'lucky'
p5741
g2
tp5742
(S'enough'
p5743
g2
tp5744
tp5745
I2
s((S'minor'
p5746
g2
tp5747
(S'drawbacks'
p5748
g42
tp5749
tp5750
I1
s((S'benefits'
p5751
g42
tp5752
(S'relative'
p5753
g2
tp5754
tp5755
I1
s((S'large'
p5756
g2
tp5757
(S'corporation'
p5758
g5
tp5759
tp5760
I3
s((S'Work/life'
p5761
g2
tp5762
(S'balance'
p5763
g5
tp5764
tp5765
I2
s((S'old'
p5766
g2
tp5767
(S'timer'
p5768
g5
tp5769
tp5770
I1
s((S'always'
p5771
g29
tp5772
(S'done'
p5773
g48
tp5774
tp5775
I1
s((S'so'
p5776
g29
tp5777
(S'amazing'
p5778
g69
tp5779
tp5780
I1
s((S'negative'
p5781
g2
tp5782
(S'news'
p5783
g5
tp5784
tp5785
I1
s((S'knowledgeable'
p5786
g2
tp5787
(S'colleagues'
p5788
g42
tp5789
tp5790
I1
s((S'never'
p5791
g29
tp5792
(S'gain'
p5793
g150
tp5794
tp5795
I1
s((S'Constantly'
p5796
g29
tp5797
(S'changing'
p5798
g69
tp5799
tp5800
I1
s((S'other'
p5801
g2
tp5802
(S'employees'
p5803
g42
tp5804
tp5805
I1
s((S'good'
p5806
g2
tp5807
(S'rewards'
p5808
g42
tp5809
tp5810
I1
s((S'positive'
p5811
g2
tp5812
(S'learning'
p5813
g5
tp5814
tp5815
I1
s((S'non-exempt'
p5816
g2
tp5817
(S'workforce'
p5818
g5
tp5819
tp5820
I1
s((S"n't"
p5821
g29
tp5822
(S'weeded'
p5823
g48
tp5824
tp5825
I1
s((S'fair'
p5826
g2
tp5827
(S'employer'
p5828
g5
tp5829
tp5830
I1
s((S'not'
p5831
g29
tp5832
(S'welcome'
p5833
g150
tp5834
tp5835
I1
s((S'too'
p5836
g29
tp5837
(S'big'
p5838
g2
tp5839
tp5840
I2
s((S'very'
p5841
g29
tp5842
(S'regimented'
p5843
g48
tp5844
tp5845
I1
s((S'Not'
p5846
g29
tp5847
(S'bad'
p5848
g2
tp5849
tp5850
I2
s((S'very'
p5851
g29
tp5852
(S'French-heavy'
p5853
g2
tp5854
tp5855
I1
s((S'high'
p5856
g2
tp5857
(S'salaries'
p5858
g42
tp5859
tp5860
I1
s((S'Highly'
p5861
g29
tp5862
(S'politicized'
p5863
g48
tp5864
tp5865
I1
s((S'recent'
p5866
g2
tp5867
(S'graduates'
p5868
g42
tp5869
tp5870
I1
s((S'generous'
p5871
g2
tp5872
(S'benefits'
p5873
g42
tp5874
tp5875
I1
s((S'social'
p5876
g2
tp5877
(S'aspect'
p5878
g5
tp5879
tp5880
I1
s((S'certain'
p5881
g2
tp5882
(S'talents'
p5883
g42
tp5884
tp5885
I1
s((S'not'
p5886
g29
tp5887
(S'renowned'
p5888
g48
tp5889
tp5890
I1
s((S'nothing'
p5891
g5
tp5892
(S'good'
p5893
g2
tp5894
tp5895
I1
s((S'European'
p5896
g2
tp5897
(S'culture'
p5898
g5
tp5899
tp5900
I1
s((S'unpolished'
p5901
g2
tp5902
(S'employees'
p5903
g42
tp5904
tp5905
I1
s((S'salary'
p5906
g5
tp5907
(S'competitive'
p5908
g2
tp5909
tp5910
I1
s((S'corporate'
p5911
g2
tp5912
(S'reputation'
p5913
g5
tp5914
tp5915
I1
s((S'way'
p5916
g5
tp5917
(S'possible'
p5918
g2
tp5919
tp5920
I1
s((S'reliable'
p5921
g2
tp5922
(S'company'
p5923
g5
tp5924
tp5925
I1
s((S'slow'
p5926
g2
tp5927
(S'salary'
p5928
g5
tp5929
tp5930
I1
s((S'new'
p5931
g2
tp5932
(S'people'
p5933
g42
tp5934
tp5935
I1
s((S'strong'
p5936
g2
tp5937
(S'part'
p5938
g5
tp5939
tp5940
I1
s((S'TIght/small'
p5941
g2
tp5942
(S'working'
p5943
g5
tp5944
tp5945
I1
s((S'really'
p5946
g29
tp5947
(S'difficult'
p5948
g2
tp5949
tp5950
I1
s((S'well'
p5951
g29
tp5952
(S'thought'
p5953
g48
tp5954
tp5955
I1
s((S'poor'
p5956
g2
tp5957
(S'training'
p5958
g5
tp5959
tp5960
I1
s((S'good'
p5961
g2
tp5962
(S'wages'
p5963
g42
tp5964
tp5965
I1
s((S'broad'
p5966
g2
tp5967
(S'array'
p5968
g5
tp5969
tp5970
I1
s((S'political'
p5971
g2
tp5972
(S'game'
p5973
g5
tp5974
tp5975
I1
s((S'good'
p5976
g2
tp5977
(S'company'
p5978
g5
tp5979
tp5980
I12
s((S'low'
p5981
g2
tp5982
(S'level'
p5983
g5
tp5984
tp5985
I1
s((S'own'
p5986
g2
tp5987
(S'paycheck'
p5988
g5
tp5989
tp5990
I1
s((S'numbingly'
p5991
g29
tp5992
(S'dull'
p5993
g2
tp5994
tp5995
I1
s((S'Benefits'
p5996
g42
tp5997
(S'such'
p5998
g2
tp5999
tp6000
I1
s((S'not'
p6001
g29
tp6002
(S'go'
p6003
g150
tp6004
tp6005
I1
s((S'other'
p6006
g2
tp6007
(S'departments'
p6008
g42
tp6009
tp6010
I2
s((S'good'
p6011
g2
tp6012
(S'years'
p6013
g42
tp6014
tp6015
I1
s((S'Outside'
p6016
g2
tp6017
(S'vendor'
p6018
g5
tp6019
tp6020
I1
s((S'global'
p6021
g2
tp6022
(S'company'
p6023
g5
tp6024
tp6025
I5
s((S'not'
p6026
g29
tp6027
(S'believe'
p6028
g150
tp6029
tp6030
I1
s((S"n't"
p6031
g29
tp6032
(S'sure'
p6033
g2
tp6034
tp6035
I1
s((S'personal'
p6036
g2
tp6037
(S'experience'
p6038
g5
tp6039
tp6040
I1
s((S'good'
p6041
g2
tp6042
(S'Company'
p6043
g5
tp6044
tp6045
I1
s((S'open'
p6046
g2
tp6047
(S'workspace'
p6048
g5
tp6049
tp6050
I1
s((S'internal'
p6051
g2
tp6052
(S'funding'
p6053
g5
tp6054
tp6055
I1
s((S'quite'
p6056
g29
tp6057
(S'top-down'
p6058
g2
tp6059
tp6060
I1
s((S'own'
p6061
g2
tp6062
(S'career'
p6063
g5
tp6064
tp6065
I1
s((S'technical'
p6066
g2
tp6067
(S'support'
p6068
g5
tp6069
tp6070
I1
s((S'too'
p6071
g29
tp6072
(S'decentralized'
p6073
g48
tp6074
tp6075
I1
s((S'Vindictive'
p6076
g2
tp6077
(S'leadership'
p6078
g5
tp6079
tp6080
I1
s((S'fantastic'
p6081
g2
tp6082
(S'resume'
p6083
g5
tp6084
tp6085
I1
s((S'corporate'
p6086
g2
tp6087
(S'structure'
p6088
g5
tp6089
tp6090
I1
s((S'new'
p6091
g2
tp6092
(S'stuff'
p6093
g5
tp6094
tp6095
I1
s((S'over-worked'
p6096
g2
tp6097
(S'culture'
p6098
g5
tp6099
tp6100
I1
s((S'lifelong'
p6101
g2
tp6102
(S'friends'
p6103
g42
tp6104
tp6105
I2
s((S'4-day'
p6106
g2
tp6107
(S'workweek'
p6108
g5
tp6109
tp6110
I1
s((S'depts'
p6111
g42
tp6112
(S'such'
p6113
g2
tp6114
tp6115
I1
s(g5064
(S'non-value'
p6116
g2
tp6117
tp6118
I1
s((S'global'
p6119
g2
tp6120
(S'industries'
p6121
g42
tp6122
tp6123
I1
s((S'safe'
p6124
g2
tp6125
(S'work'
p6126
g5
tp6127
tp6128
I1
s((S'-Solid'
p6129
g2
tp6130
(S'time'
p6131
g5
tp6132
tp6133
I1
s((S'many'
p6134
g2
tp6135
(S'business'
p6136
g5
tp6137
tp6138
I1
s((S'employees'
p6139
g42
tp6140
(S'other'
p6141
g2
tp6142
tp6143
I1
s((S'individual'
p6144
g2
tp6145
(S'employee'
p6146
g5
tp6147
tp6148
I1
s((S'not'
p6149
g29
tp6150
(S'working'
p6151
g69
tp6152
tp6153
I1
s((S'different'
p6154
g2
tp6155
(S'organizations'
p6156
g42
tp6157
tp6158
I1
s((S'top'
p6159
g2
tp6160
(S'talent'
p6161
g5
tp6162
tp6163
I1
s((S'traditional'
p6164
g2
tp6165
(S'market'
p6166
g5
tp6167
tp6168
I1
s((S'very'
p6169
g29
tp6170
(S'slow'
p6171
g2
tp6172
tp6173
I3
s((S'eduactional'
p6174
g2
tp6175
(S'assistance'
p6176
g5
tp6177
tp6178
I1
s((S'reputable'
p6179
g2
tp6180
(S'company'
p6181
g5
tp6182
tp6183
I1
s((S'intern'
p6184
g2
tp6185
(S'activities'
p6186
g42
tp6187
tp6188
I1
s((S'well'
p6189
g29
tp6190
(S'known'
p6191
g48
tp6192
tp6193
I1
s((S'hard'
p6194
g2
tp6195
(S'worker'
p6196
g5
tp6197
tp6198
I2
s((S'Other'
p6199
g2
tp6200
(S'Engineers'
p6201
g42
tp6202
tp6203
I1
s((S'retail'
p6204
g2
tp6205
(S'jobs'
p6206
g42
tp6207
tp6208
I1
s((S'many'
p6209
g2
tp6210
(S'resources'
p6211
g42
tp6212
tp6213
I1
s((S'additional'
p6214
g2
tp6215
(S'stresses'
p6216
g42
tp6217
tp6218
I1
s((S'central'
p6219
g2
tp6220
(S'decision'
p6221
g5
tp6222
tp6223
I1
s((S'Enormously'
p6224
g29
tp6225
(S'challenged'
p6226
g176
tp6227
tp6228
I1
s((S'Personal'
p6229
g2
tp6230
(S'Banker'
p6231
g5
tp6232
tp6233
I2
s((S'very'
p6234
g29
tp6235
(S'stressful'
p6236
g2
tp6237
tp6238
I3
s((S'great'
p6239
g2
tp6240
(S'ideas'
p6241
g42
tp6242
tp6243
I1
s((S'corporate'
p6244
g2
tp6245
(S'way'
p6246
g5
tp6247
tp6248
I1
s((S'large'
p6249
g2
tp6250
(S'banks'
p6251
g42
tp6252
tp6253
I1
s((g1303
g5
tp6254
(S'i.e'
p6255
g2
tp6256
tp6257
I2
s((S'ever'
p6258
g29
tp6259
(S'worked'
p6260
g48
tp6261
tp6262
I1
s((S'senior'
p6263
g2
tp6264
(S'managers'
p6265
g42
tp6266
tp6267
I2
s((S'not'
p6268
g29
tp6269
(S'going'
p6270
g69
tp6271
tp6272
I1
s((S'more'
p6273
g1180
tp6274
(S'complicated'
p6275
g2
tp6276
tp6277
I1
s((S'Overall'
p6278
g2
tp6279
(S'Software'
p6280
g5
tp6281
tp6282
I1
s((S'corporate'
p6283
g2
tp6284
(S'policy'
p6285
g5
tp6286
tp6287
I1
s((S'respectful'
p6288
g2
tp6289
(S'culture'
p6290
g5
tp6291
tp6292
I1
s((S'huge'
p6293
g2
tp6294
(S'work'
p6295
g5
tp6296
tp6297
I1
s((S'upward'
p6298
g2
tp6299
(S'mobility'
p6300
g5
tp6301
tp6302
I1
s((S'not'
p6303
g29
tp6304
(S'worth'
p6305
g2
tp6306
tp6307
I1
s((S'employees'
p6308
g42
tp6309
(S'happy'
p6310
g2
tp6311
tp6312
I1
s((S"n't"
p6313
g29
tp6314
(S'selling'
p6315
g69
tp6316
tp6317
I1
s((S'hourly'
p6318
g29
tp6319
(S'pay'
p6320
g150
tp6321
tp6322
I1
s((S'business/department'
p6323
g2
tp6324
(S'otherwise'
p6325
g5
tp6326
tp6327
I1
s((S'Looks'
p6328
g42
tp6329
(S'good'
p6330
g2
tp6331
tp6332
I1
s((S'many'
p6333
g2
tp6334
(S'deadweight'
p6335
g5
tp6336
tp6337
I1
s((S'not'
p6338
g29
tp6339
(S'reward'
p6340
g150
tp6341
tp6342
I1
s((S"n't"
p6343
g29
tp6344
(S'push'
p6345
g150
tp6346
tp6347
I1
s((S'national'
p6348
g2
tp6349
(S'projects'
p6350
g42
tp6351
tp6352
I1
s((S'actually'
p6353
g29
tp6354
(S'decent'
p6355
g2
tp6356
tp6357
I1
s((S'second'
p6358
g2
tp6359
(S'shift'
p6360
g5
tp6361
tp6362
I1
s((S'diverse'
p6363
g2
tp6364
(S'opportunities'
p6365
g42
tp6366
tp6367
I1
s((S'..the'
p6368
g2
tp6369
(S'company'
p6370
g5
tp6371
tp6372
I1
s((S'senior'
p6373
g2
tp6374
(S'manager'
p6375
g5
tp6376
tp6377
I2
s((S'irregular'
p6378
g2
tp6379
(S'hours'
p6380
g42
tp6381
tp6382
I1
s((S'reputational'
p6383
g2
tp6384
(S'issues'
p6385
g42
tp6386
tp6387
I1
s((S'Japanese'
p6388
g2
tp6389
(S'management'
p6390
g5
tp6391
tp6392
I1
s((S'different'
p6393
g2
tp6394
(S'places'
p6395
g42
tp6396
tp6397
I1
s((S'really'
p6398
g29
tp6399
(S'bad'
p6400
g2
tp6401
tp6402
I1
s((S'local'
p6403
g2
tp6404
(S'branches'
p6405
g42
tp6406
tp6407
I1
s((S'conservative'
p6408
g2
tp6409
(S'risk'
p6410
g5
tp6411
tp6412
I1
s((S'good'
p6413
g2
tp6414
(S'opportunities'
p6415
g42
tp6416
tp6417
I3
s((S'poor'
p6418
g2
tp6419
(S'global'
p6420
g2
tp6421
tp6422
I1
s((S'very'
p6423
g29
tp6424
(S'dynamic'
p6425
g2
tp6426
tp6427
I1
s((S'flexible'
p6428
g2
tp6429
(S'hours'
p6430
g42
tp6431
tp6432
I6
s((S'heavy'
p6433
g2
tp6434
(S'emphasis'
p6435
g5
tp6436
tp6437
I1
s((S'not'
p6438
g29
tp6439
(S'seem'
p6440
g150
tp6441
tp6442
I1
s((S'Flexible'
p6443
g2
tp6444
(S'Clean'
p6445
g2
tp6446
tp6447
I1
s((S'overall'
p6448
g2
tp6449
(S'company'
p6450
g5
tp6451
tp6452
I1
s((S'good'
p6453
g2
tp6454
(S'salary'
p6455
g5
tp6456
tp6457
I5
s((S'incremental'
p6458
g2
tp6459
(S'safety'
p6460
g5
tp6461
tp6462
I1
s((S'replaceable'
p6463
g2
tp6464
(S'robot'
p6465
g5
tp6466
tp6467
I1
s((S'not'
p6468
g29
tp6469
(S'perfect'
p6470
g150
tp6471
tp6472
I1
s((S'technical'
p6473
g2
tp6474
(S'side'
p6475
g5
tp6476
tp6477
I1
s((S'great'
p6478
g2
tp6479
(S'amount'
p6480
g5
tp6481
tp6482
I1
s((S"n't"
p6483
g29
tp6484
(S'move'
p6485
g150
tp6486
tp6487
I1
s((S'managers.And'
p6488
g2
tp6489
(S'department'
p6490
g5
tp6491
tp6492
I1
s((S'usually'
p6493
g29
tp6494
(S'plenty'
p6495
g2
tp6496
tp6497
I1
s((S'essential'
p6498
g2
tp6499
(S'departments'
p6500
g42
tp6501
tp6502
I1
s((S'first'
p6503
g2
tp6504
(S'opportunity'
p6505
g5
tp6506
tp6507
I1
s((S'daily'
p6508
g2
tp6509
(S'basis'
p6510
g5
tp6511
tp6512
I1
s((S'leads.Your'
p6513
g2
tp6514
(S'hard'
p6515
g5
tp6516
tp6517
I1
s((S'periods'
p6518
g42
tp6519
(S'due'
p6520
g2
tp6521
tp6522
I1
s((S'rough'
p6523
g2
tp6524
(S'patch'
p6525
g5
tp6526
tp6527
I1
s((S'not'
p6528
g29
tp6529
(S'allow'
p6530
g150
tp6531
tp6532
I1
s((S'perhaps'
p6533
g29
tp6534
(S'raising'
p6535
g69
tp6536
tp6537
I1
s((S'not'
p6538
g29
tp6539
(S'contribute'
p6540
g150
tp6541
tp6542
I1
s((S'technical'
p6543
g2
tp6544
(S'training'
p6545
g5
tp6546
tp6547
I1
s((S'real'
p6548
g2
tp6549
(S'career'
p6550
g5
tp6551
tp6552
I1
s((S'Still'
p6553
g29
tp6554
(S'struggling'
p6555
g69
tp6556
tp6557
I1
s((S'just'
p6558
g29
tp6559
(S'So-SO'
p6560
g2
tp6561
tp6562
I1
s((S'enough'
p6563
g29
tp6564
(S'work'
p6565
g150
tp6566
tp6567
I1
s((S"n't"
p6568
g29
tp6569
(S'supportive'
p6570
g2
tp6571
tp6572
I1
s((S'Incomparable'
p6573
g2
tp6574
(S'compensation'
p6575
g5
tp6576
tp6577
I1
s((S'casual'
p6578
g2
tp6579
(S'environment'
p6580
g5
tp6581
tp6582
I1
s((S'always'
p6583
g29
tp6584
(S'nice'
p6585
g2
tp6586
tp6587
I1
s((S'very'
p6588
g29
tp6589
(S'average'
p6590
g2
tp6591
tp6592
I1
s((S'Short'
p6593
g2
tp6594
(S'contracts'
p6595
g42
tp6596
tp6597
I1
s((S'not'
p6598
g29
tp6599
(S'micromanaged'
p6600
g48
tp6601
tp6602
I1
s((S'Too'
p6603
g29
tp6604
(S'large'
p6605
g2
tp6606
tp6607
I1
s((S'Daily'
p6608
g29
tp6609
(S'Uncontrolled'
p6610
g48
tp6611
tp6612
I1
s((S'own'
p6613
g2
tp6614
(S'experience'
p6615
g5
tp6616
tp6617
I1
s((S'good'
p6618
g2
tp6619
(S'vacation'
p6620
g5
tp6621
tp6622
I1
s((S'average'
p6623
g2
tp6624
(S'Autonomy-'
p6625
g5
tp6626
tp6627
I1
s((S'never'
p6628
g29
tp6629
(S'accepted'
p6630
g176
tp6631
tp6632
I1
s((S'very'
p6633
g29
tp6634
(S'bureaucratic'
p6635
g2
tp6636
tp6637
I2
s((S'current'
p6638
g2
tp6639
(S'business'
p6640
g5
tp6641
tp6642
I2
s((S'many'
p6643
g2
tp6644
(S'reorganizations'
p6645
g42
tp6646
tp6647
I1
s((S'tight'
p6648
g2
tp6649
(S'budgets'
p6650
g42
tp6651
tp6652
I1
s((S'wind/water/power'
p6653
g2
tp6654
(S'manufacturing'
p6655
g5
tp6656
tp6657
I1
s((S'with..rare'
p6658
g2
tp6659
(S'exceptions'
p6660
g42
tp6661
tp6662
I1
s((S'true'
p6663
g2
tp6664
(S'vision'
p6665
g5
tp6666
tp6667
I1
s((S'not'
p6668
g29
tp6669
(S'guarantee'
p6670
g150
tp6671
tp6672
I1
s((S'good'
p6673
g2
tp6674
(S'teams'
p6675
g42
tp6676
tp6677
I1
s((S'environment'
p6678
g5
tp6679
(S'good'
p6680
g2
tp6681
tp6682
I1
s((S'normal'
p6683
g2
tp6684
(S'retail'
p6685
g5
tp6686
tp6687
I1
s((S'too'
p6688
g29
tp6689
(S'corporate'
p6690
g2
tp6691
tp6692
I1
s((S'not'
p6693
g29
tp6694
(S'respectful'
p6695
g2
tp6696
tp6697
I1
s((S"n't"
p6698
g29
tp6699
(S'agree'
p6700
g150
tp6701
tp6702
I1
s((S'excessive'
p6703
g2
tp6704
(S'employee'
p6705
g5
tp6706
tp6707
I1
s((S'own'
p6708
g2
tp6709
(S'rules'
p6710
g42
tp6711
tp6712
I1
s((S'part-time'
p6713
g2
tp6714
(S'job'
p6715
g5
tp6716
tp6717
I1
s((S"n't"
p6718
g29
tp6719
(S'know'
p6720
g150
tp6721
tp6722
I5
s((S'back'
p6723
g29
tp6724
(S'east'
p6725
g2
tp6726
tp6727
I1
s((S'too'
p6728
g29
tp6729
(S'high'
p6730
g2
tp6731
tp6732
I1
s((S'low'
p6733
g2
tp6734
(S'cost'
p6735
g5
tp6736
tp6737
I1
s((S'ever'
p6738
g29
tp6739
(S'feeling'
p6740
g69
tp6741
tp6742
I1
s((S'great'
p6743
g2
tp6744
(S'gym'
p6745
g5
tp6746
tp6747
I1
s((S'individual'
p6748
g2
tp6749
(S'advance'
p6750
g5
tp6751
tp6752
I1
s((S'international'
p6753
g2
tp6754
(S'bank'
p6755
g5
tp6756
tp6757
I1
s((S'first'
p6758
g29
tp6759
(S'started'
p6760
g176
tp6761
tp6762
I1
s((S'broad'
p6763
g2
tp6764
(S'project'
p6765
g5
tp6766
tp6767
I1
s((S'not'
p6768
g29
tp6769
(S'apply'
p6770
g150
tp6771
tp6772
I1
s((S'not'
p6773
g29
tp6774
(S'good'
p6775
g2
tp6776
tp6777
I2
s((S'other'
p6778
g2
tp6779
(S'various'
p6780
g2
tp6781
tp6782
I1
s((S'too'
p6783
g29
tp6784
(S'process-oriented'
p6785
g2
tp6786
tp6787
I1
s((S'political'
p6788
g2
tp6789
(S'recruting'
p6790
g5
tp6791
tp6792
I1
s((S'very'
p6793
g29
tp6794
(S'casual'
p6795
g2
tp6796
tp6797
I1
s((S'big'
p6798
g2
tp6799
(S'projects'
p6800
g42
tp6801
tp6802
I1
s((S'great'
p6803
g2
tp6804
(S'product'
p6805
g5
tp6806
tp6807
I3
s((S'hierarchal'
p6808
g2
tp6809
(S'structure'
p6810
g5
tp6811
tp6812
I1
s((S'bad'
p6813
g2
tp6814
(S'managment'
p6815
g5
tp6816
tp6817
I1
s((S'sometimes'
p6818
g29
tp6819
(S'maybe'
p6820
g150
tp6821
tp6822
I1
s((S'always'
p6823
g29
tp6824
(S'wrong'
p6825
g2
tp6826
tp6827
I1
s((S'insiders'
p6828
g42
tp6829
(S'and/or'
p6830
g2
tp6831
tp6832
I1
s((S'good'
p6833
g2
tp6834
(S'experiences'
p6835
g42
tp6836
tp6837
I1
s((S'good'
p6838
g2
tp6839
(S'job'
p6840
g5
tp6841
tp6842
I9
s((S'new'
p6843
g2
tp6844
(S'learnings'
p6845
g42
tp6846
tp6847
I1
s((S'great'
p6848
g2
tp6849
(S'flexibility'
p6850
g5
tp6851
tp6852
I1
s((S'many'
p6853
g2
tp6854
(S'circumstances'
p6855
g42
tp6856
tp6857
I1
s((S"n't"
p6858
g29
tp6859
(S'get'
p6860
g150
tp6861
tp6862
I5
s((S'great'
p6863
g2
tp6864
(S'salary'
p6865
g5
tp6866
tp6867
I1
s((S'mutual'
p6868
g2
tp6869
(S'funds'
p6870
g42
tp6871
tp6872
I1
s((S'basic'
p6873
g2
tp6874
(S'understanding'
p6875
g5
tp6876
tp6877
I1
s((S'good'
p6878
g2
tp6879
(S'bonus'
p6880
g5
tp6881
tp6882
I2
s((S'international'
p6883
g2
tp6884
(S'opportunities'
p6885
g42
tp6886
tp6887
I3
s((S'Average'
p6888
g2
tp6889
(S'pay'
p6890
g5
tp6891
tp6892
I1
s((S'Global'
p6893
g2
tp6894
(S'Company'
p6895
g5
tp6896
tp6897
I1
s((S'much'
p6898
g2
tp6899
(S'backstabbing'
p6900
g5
tp6901
tp6902
I1
s((S'Large'
p6903
g2
tp6904
(S'diverse'
p6905
g5
tp6906
tp6907
I1
s((S'roller-coaster'
p6908
g2
tp6909
(S'ride'
p6910
g5
tp6911
tp6912
I1
s((S'significant'
p6913
g2
tp6914
(S'project'
p6915
g5
tp6916
tp6917
I1
s((S'more'
p6918
g1180
tp6919
(S'emphasized'
p6920
g48
tp6921
tp6922
I1
s((S'too'
p6923
g29
tp6924
(S'bloated'
p6925
g48
tp6926
tp6927
I1
s((S'much'
p6928
g2
tp6929
(S'mark-up'
p6930
g5
tp6931
tp6932
I1
s((S'technical'
p6933
g2
tp6934
(S'skills'
p6935
g42
tp6936
tp6937
I1
s((S'group'
p6938
g5
tp6939
(S'due'
p6940
g2
tp6941
tp6942
I1
s((S'not'
p6943
g29
tp6944
(S'promising'
p6945
g69
tp6946
tp6947
I1
s((S"n't"
p6948
g29
tp6949
(S'speak'
p6950
g150
tp6951
tp6952
I1
s((S'good'
p6953
g2
tp6954
(S'projects'
p6955
g42
tp6956
tp6957
I1
s((S'wear'
p6958
g2
tp6959
(S'inform'
p6960
g5
tp6961
tp6962
I1
s((S'serious'
p6963
g2
tp6964
(S'culture'
p6965
g5
tp6966
tp6967
I1
s((S'different'
p6968
g2
tp6969
(S'lanaguages'
p6970
g42
tp6971
tp6972
I1
s((S'very'
p6973
g29
tp6974
(S'exciting'
p6975
g69
tp6976
tp6977
I2
s((S'Extensive'
p6978
g2
tp6979
(S'benefits'
p6980
g42
tp6981
tp6982
I1
s((S'heavily'
p6983
g29
tp6984
(S'dependent'
p6985
g2
tp6986
tp6987
I1
s((S'hard'
p6988
g29
tp6989
(S'working'
p6990
g69
tp6991
tp6992
I1
s((S'Competitive'
p6993
g2
tp6994
(S'salary/benefits'
p6995
g42
tp6996
tp6997
I1
s((S'Bad'
p6998
g2
tp6999
(S'pay'
p7000
g5
tp7001
tp7002
I1
s((S'not'
p7003
g29
tp7004
(S'familiar'
p7005
g2
tp7006
tp7007
I1
s((S'very'
p7008
g29
tp7009
(S'hard'
p7010
g2
tp7011
tp7012
I1
s((S'Long'
p7013
g2
tp7014
(S'term'
p7015
g5
tp7016
tp7017
I1
s((S'On-site'
p7018
g2
tp7019
(S'cafereria'
p7020
g5
tp7021
tp7022
I1
s((S'steady'
p7023
g2
tp7024
(S'hours'
p7025
g42
tp7026
tp7027
I2
s((S'good'
p7028
g2
tp7029
(S'experience'
p7030
g5
tp7031
tp7032
I4
s((S'other'
p7033
g2
tp7034
(S'divisions'
p7035
g42
tp7036
tp7037
I2
s((S'good'
p7038
g2
tp7039
(S'money'
p7040
g5
tp7041
tp7042
I1
s((S'strategic'
p7043
g2
tp7044
(S'focus'
p7045
g5
tp7046
tp7047
I1
s((S'able'
p7048
g2
tp7049
(g1303
g5
tp7050
tp7051
I1
s((S'different'
p7052
g2
tp7053
(S'disciplines'
p7054
g42
tp7055
tp7056
I1
s((S'many'
p7057
g2
tp7058
(S'departments'
p7059
g42
tp7060
tp7061
I1
s((S'bad'
p7062
g2
tp7063
(S'managers'
p7064
g42
tp7065
tp7066
I1
s((S'not'
p7067
g29
tp7068
(S'changed'
p7069
g48
tp7070
tp7071
I1
s((S'frequently'
p7072
g29
tp7073
(S'said'
p7074
g176
tp7075
tp7076
I1
s((S'Not'
p7077
g29
tp7078
(S'treated'
p7079
g48
tp7080
tp7081
I1
s((S'personal'
p7082
g2
tp7083
(S'life'
p7084
g5
tp7085
tp7086
I3
s((S'interesting'
p7087
g2
tp7088
(S'job'
p7089
g5
tp7090
tp7091
I1
s((S'work'
p7092
g5
tp7093
g2356
tp7094
I1
s((S'solid'
p7095
g2
tp7096
(S'support'
p7097
g5
tp7098
tp7099
I1
s((S'not'
p7100
g29
tp7101
(S'exist'
p7102
g150
tp7103
tp7104
I1
s((S'good'
p7105
g2
tp7106
(S'benefit'
p7107
g5
tp7108
tp7109
I3
s((S'just'
p7110
g29
tp7111
(S'cared'
p7112
g176
tp7113
tp7114
I1
s((S'typical'
p7115
g2
tp7116
(S'manufacturing'
p7117
g5
tp7118
tp7119
I1
s((S'few'
p7120
g2
tp7121
(S'management'
p7122
g5
tp7123
tp7124
I1
s((S'retail'
p7125
g2
tp7126
(S'atmosphere'
p7127
g5
tp7128
tp7129
I1
s((S'now'
p7130
g29
tp7131
(S'rocked'
p7132
g176
tp7133
tp7134
I1
s((S'huge'
p7135
g2
tp7136
(S'amount'
p7137
g5
tp7138
tp7139
I1
s((S'various'
p7140
g2
tp7141
(S'units'
p7142
g42
tp7143
tp7144
I1
s((S'financial'
p7145
g2
tp7146
(S'risk'
p7147
g5
tp7148
tp7149
I1
s((S'on-site'
p7150
g2
tp7151
(S'childcare'
p7152
g5
tp7153
tp7154
I1
s((S'not'
p7155
g29
tp7156
(S'comfortable'
p7157
g2
tp7158
tp7159
I1
s((S'good'
p7160
g2
tp7161
(S'entry'
p7162
g5
tp7163
tp7164
I1
s((S'morale'
p7165
g5
tp7166
(S'due'
p7167
g2
tp7168
tp7169
I1
s((S'more'
p7170
g1180
tp7171
(S'available'
p7172
g2
tp7173
tp7174
I1
s((S'great'
p7175
g2
tp7176
(S'employer'
p7177
g5
tp7178
tp7179
I1
s((S'them.I'
p7180
g2
tp7181
(S'think'
p7182
g5
tp7183
tp7184
I1
s((S'critical'
p7185
g2
tp7186
(S'ones'
p7187
g42
tp7188
tp7189
I1
s((S'good'
p7190
g2
tp7191
(S'guidance'
p7192
g5
tp7193
tp7194
I1
s((S'wildly'
p7195
g29
tp7196
(S'depending'
p7197
g69
tp7198
tp7199
I1
s((S'easily'
p7200
g29
tp7201
(S'fixed'
p7202
g48
tp7203
tp7204
I1
s((S'much'
p7205
g2
tp7206
(S'resistance'
p7207
g5
tp7208
tp7209
I1
s((S'early'
p7210
g2
tp7211
(S'responsibility'
p7212
g5
tp7213
tp7214
I1
s((S'Terrible'
p7215
g2
tp7216
(S'support'
p7217
g5
tp7218
tp7219
I1
s((S'High'
p7220
g2
tp7221
(S'stress'
p7222
g5
tp7223
tp7224
I1
s((S'great'
p7225
g2
tp7226
(S'atmosphere'
p7227
g5
tp7228
tp7229
I1
s((S'certain'
p7230
g2
tp7231
(S'times'
p7232
g42
tp7233
tp7234
I1
s((S'just'
p7235
g29
tp7236
(S'wish'
p7237
g2
tp7238
tp7239
I1
s((S'promotion/'
p7240
g2
tp7241
(S'recognition'
p7242
g5
tp7243
tp7244
I1
s((S'+year'
p7245
g2
tp7246
(S'establishment'
p7247
g5
tp7248
tp7249
I1
s((S'new'
p7250
g2
tp7251
(S'suggestion'
p7252
g5
tp7253
tp7254
I1
s((S'intellectual'
p7255
g2
tp7256
(S'challenge'
p7257
g5
tp7258
tp7259
I1
s((S'time-off'
p7260
g2
tp7261
(S'policies'
p7262
g42
tp7263
tp7264
I1
s((S'political'
p7265
g2
tp7266
(S'office'
p7267
g5
tp7268
tp7269
I1
s((S'personal'
p7270
g2
tp7271
(S'phone'
p7272
g5
tp7273
tp7274
I1
s((S'constant'
p7275
g2
tp7276
(S'fear'
p7277
g5
tp7278
tp7279
I1
s((S'not'
p7280
g29
tp7281
(S'encouraged'
p7282
g2
tp7283
tp7284
I1
s((S'Spectacular'
p7285
g2
tp7286
(S'benefits'
p7287
g42
tp7288
tp7289
I1
s((S'many'
p7290
g2
tp7291
(S'change'
p7292
g5
tp7293
tp7294
I1
s((S'properly'
p7295
g29
tp7296
(S'staffed'
p7297
g48
tp7298
tp7299
I1
s((S'poor'
p7300
g2
tp7301
(S'culture/environment'
p7302
g2
tp7303
tp7304
I1
s((S'usual'
p7305
g2
tp7306
(S'days'
p7307
g42
tp7308
tp7309
I1
s((S'retail'
p7310
g2
tp7311
(g1262
g5
tp7312
tp7313
I1
s((S'pretty'
p7314
g5
tp7315
(S'good'
p7316
g2
tp7317
tp7318
I1
s((S'Significant'
p7319
g2
tp7320
(S'opportunity'
p7321
g5
tp7322
tp7323
I1
s((S'proper'
p7324
g2
tp7325
(S'qualifications'
p7326
g42
tp7327
tp7328
I1
s((S'deeply'
p7329
g29
tp7330
(S'rooted'
p7331
g48
tp7332
tp7333
I1
s((S'onsite'
p7334
g2
tp7335
(S'cafeteria'
p7336
g5
tp7337
tp7338
I1
s((S'guilty'
p7339
g2
tp7340
(S'taking'
p7341
g5
tp7342
tp7343
I1
s((S'overall'
p7344
g2
tp7345
(S'environment'
p7346
g5
tp7347
tp7348
I1
s((S'Strong'
p7349
g2
tp7350
(S'desire'
p7351
g5
tp7352
tp7353
I1
s((S'more'
p7354
g1180
tp7355
(S'exciting'
p7356
g2
tp7357
tp7358
I1
s((S'seem'
p7359
g5
tp7360
(S'negligible'
p7361
g2
tp7362
tp7363
I1
s((S'nice'
p7364
g2
tp7365
(S'people'
p7366
g42
tp7367
tp7368
I1
s((S'Too'
p7369
g29
tp7370
(S'bureaucratic'
p7371
g2
tp7372
tp7373
I2
s((S'endless'
p7374
g2
tp7375
(S'supply'
p7376
g5
tp7377
tp7378
I1
s((S'much'
p7379
g29
tp7380
(S'good'
p7381
g2
tp7382
tp7383
I1
s((S'white'
p7384
g2
tp7385
(S'middle'
p7386
g5
tp7387
tp7388
I1
s((S'many'
p7389
g2
tp7390
(S'positions'
p7391
g42
tp7392
tp7393
I1
s((S'senior'
p7394
g2
tp7395
(S'talent'
p7396
g5
tp7397
tp7398
I1
s((S'Not'
p7399
g29
tp7400
(S'given'
p7401
g48
tp7402
tp7403
I1
s((S'Outstanding'
p7404
g2
tp7405
(S'benefits'
p7406
g42
tp7407
tp7408
I1
s((S'bad'
p7409
g2
tp7410
(S'place'
p7411
g5
tp7412
tp7413
I4
s((S'low'
p7414
g2
tp7415
(S'pay'
p7416
g5
tp7417
tp7418
I6
s((S'pretty'
p7419
g29
tp7420
(S'flexible'
p7421
g2
tp7422
tp7423
I2
s((S'great'
p7424
g2
tp7425
(S'opportunities'
p7426
g42
tp7427
tp7428
I4
s((S'pervasive'
p7429
g2
tp7430
(S'politics'
p7431
g42
tp7432
tp7433
I1
s((S'secondary'
p7434
g2
tp7435
(S'mortgage'
p7436
g5
tp7437
tp7438
I1
s((S'own'
p7439
g2
tp7440
(S'department'
p7441
g5
tp7442
tp7443
I1
s((S'so'
p7444
g29
tp7445
(S'long'
p7446
g2
tp7447
tp7448
I1
s((S'much'
p7449
g2
tp7450
(S'smoke'
p7451
g5
tp7452
tp7453
I1
s((S'good'
p7454
g2
tp7455
(S'pay'
p7456
g5
tp7457
tp7458
I8
s((S'red'
p7459
g2
tp7460
(S'tape'
p7461
g5
tp7462
tp7463
I1
s((S'different'
p7464
g2
tp7465
(S'parts'
p7466
g42
tp7467
tp7468
I1
s((S'not'
p7469
g29
tp7470
(S'see'
p7471
g150
tp7472
tp7473
I1
s((S'High'
p7474
g2
tp7475
(S'turn'
p7476
g5
tp7477
tp7478
I1
s((S'Strong'
p7479
g2
tp7480
(S'culture'
p7481
g5
tp7482
tp7483
I1
s((S'average'
p7484
g2
tp7485
(S'pay'
p7486
g5
tp7487
tp7488
I5
s((S'technically'
p7489
g29
tp7490
(S'sound'
p7491
g2
tp7492
tp7493
I1
s((S'current'
p7494
g2
tp7495
(S'employer'
p7496
g5
tp7497
tp7498
I1
s((S'part-time'
p7499
g2
tp7500
(S'hours'
p7501
g42
tp7502
tp7503
I1
s((S'fantastic'
p7504
g2
tp7505
(S'place'
p7506
g5
tp7507
tp7508
I1
s((S'Not'
p7509
g29
tp7510
(S'welcoming'
p7511
g69
tp7512
tp7513
I1
s((S'local'
p7514
g2
tp7515
(S'staff'
p7516
g5
tp7517
tp7518
I1
s((S'only'
p7519
g29
tp7520
(S'interested'
p7521
g2
tp7522
tp7523
I1
s((S'high'
p7524
g2
tp7525
(S'level'
p7526
g5
tp7527
tp7528
I2
s((S'ever-increasing'
p7529
g2
tp7530
(S'drive'
p7531
g2
tp7532
tp7533
I1
s((S'technical'
p7534
g2
tp7535
(S'knowledge'
p7536
g5
tp7537
tp7538
I3
s((S'Many'
p7539
g2
tp7540
(S'Many'
p7541
g2
tp7542
tp7543
I1
s((S'not'
p7544
g29
tp7545
(S'light'
p7546
g2
tp7547
tp7548
I1
s((S'not'
p7549
g29
tp7550
(S'encourage'
p7551
g150
tp7552
tp7553
I1
s((S'good'
p7554
g2
tp7555
(S'training'
p7556
g5
tp7557
tp7558
I3
s((S'wonderful'
p7559
g2
tp7560
(S'start'
p7561
g5
tp7562
tp7563
I1
s((S'many'
p7564
g2
tp7565
(S'processes'
p7566
g42
tp7567
tp7568
I4
s((S'non-exempt'
p7569
g2
tp7570
(S'may'
p7571
g5
tp7572
tp7573
I1
s((S'unrealistic'
p7574
g2
tp7575
(S'sales'
p7576
g42
tp7577
tp7578
I1
s((S'not'
p7579
g29
tp7580
(S'ideal'
p7581
g2
tp7582
tp7583
I1
s((S'sour-tasting'
p7584
g2
tp7585
(S'history'
p7586
g5
tp7587
tp7588
I1
s((S'many'
p7589
g2
tp7590
(S'smoke'
p7591
g5
tp7592
tp7593
I1
s((S'high'
p7594
g2
tp7595
(S'visibility'
p7596
g5
tp7597
tp7598
I1
s((S'direct'
p7599
g2
tp7600
(S'reports'
p7601
g42
tp7602
tp7603
I1
s((S'managerial'
p7604
g2
tp7605
(S'approach'
p7606
g5
tp7607
tp7608
I1
s((S'wide'
p7609
g2
tp7610
(S'range'
p7611
g5
tp7612
tp7613
I1
s((S'something'
p7614
g5
tp7615
(S'new'
p7616
g2
tp7617
tp7618
I2
s((S"n't"
p7619
g29
tp7620
(S'retire'
p7621
g150
tp7622
tp7623
I1
s((S'bad'
p7624
g2
tp7625
(S'decisions'
p7626
g42
tp7627
tp7628
I2
s((S'affordable'
p7629
g2
tp7630
(S'cost'
p7631
g5
tp7632
tp7633
I1
s((S'retail'
p7634
g2
tp7635
(S'talent'
p7636
g5
tp7637
tp7638
I1
s((S'global'
p7639
g2
tp7640
(S'banking'
p7641
g5
tp7642
tp7643
I1
s((S'different'
p7644
g2
tp7645
(S'areas'
p7646
g42
tp7647
tp7648
I1
s((S'very'
p7649
g29
tp7650
(S'large'
p7651
g2
tp7652
tp7653
I3
s((S'Bad'
p7654
g2
tp7655
(S'Location'
p7656
g5
tp7657
tp7658
I1
s((S'Retail'
p7659
g2
tp7660
(S'hours'
p7661
g42
tp7662
tp7663
I1
s((S'other'
p7664
g2
tp7665
(S'technology'
p7666
g5
tp7667
tp7668
I1
s((S'Mechanical'
p7669
g2
tp7670
(S'Engineering'
p7671
g5
tp7672
tp7673
I1
s((S'almost'
p7674
g29
tp7675
(S'impossible'
p7676
g2
tp7677
tp7678
I1
s((S'current'
p7679
g2
tp7680
(S'year'
p7681
g5
tp7682
tp7683
I1
s((S'politically'
p7684
g29
tp7685
(S'correct'
p7686
g2
tp7687
tp7688
I1
s((S'major'
p7689
g2
tp7690
(S'oil'
p7691
g5
tp7692
tp7693
I2
s((S'always'
p7694
g29
tp7695
(S'turbulent'
p7696
g2
tp7697
tp7698
I1
s((S'internal'
p7699
g2
tp7700
(S'systems'
p7701
g42
tp7702
tp7703
I1
s((S'real'
p7704
g2
tp7705
(S'responsibility'
p7706
g5
tp7707
tp7708
I1
s((S'internal'
p7709
g2
tp7710
(S'networks'
p7711
g42
tp7712
tp7713
I1
s((S'good'
p7714
g2
tp7715
(S'feedback'
p7716
g5
tp7717
tp7718
I1
s((S'large'
p7719
g2
tp7720
(S'space'
p7721
g5
tp7722
tp7723
I1
s((S'not'
p7724
g29
tp7725
(S'willing'
p7726
g2
tp7727
tp7728
I1
s((S'friendly'
p7729
g2
tp7730
(S'employees'
p7731
g42
tp7732
tp7733
I1
s((S'not'
p7734
g29
tp7735
(S'premote'
p7736
g150
tp7737
tp7738
I1
s((S'good'
p7739
g2
tp7740
(S'coworkers'
p7741
g42
tp7742
tp7743
I2
s((S'different'
p7744
g2
tp7745
(S'jobs'
p7746
g42
tp7747
tp7748
I1
s((S'upper'
p7749
g2
tp7750
(S'managers'
p7751
g42
tp7752
tp7753
I1
s((S'much'
p7754
g2
tp7755
(S'travel'
p7756
g5
tp7757
tp7758
I1
s((S'legitimately'
p7759
g29
tp7760
(S'sick'
p7761
g2
tp7762
tp7763
I1
s((S'professional'
p7764
g2
tp7765
(S'engineering'
p7766
g5
tp7767
tp7768
I1
s((S'young'
p7769
g2
tp7770
(S'professionals'
p7771
g42
tp7772
tp7773
I1
s((S'great'
p7774
g2
tp7775
(S'understanding'
p7776
g5
tp7777
tp7778
I1
s((S'slow'
p7779
g2
tp7780
(S'presence'
p7781
g5
tp7782
tp7783
I1
s((S'prioritized'
p7784
g2
tp7785
(S'focus'
p7786
g5
tp7787
tp7788
I1
s((S'global'
p7789
g2
tp7790
(S'platform'
p7791
g5
tp7792
tp7793
I1
s((S'well'
p7794
g29
tp7795
(S'developed'
p7796
g176
tp7797
tp7798
I2
s((S'Flexible'
p7799
g2
tp7800
(S'sch'
p7801
g5
tp7802
tp7803
I1
s((S'very'
p7804
g29
tp7805
(S'challenging'
p7806
g69
tp7807
tp7808
I5
s((S'other'
p7809
g2
tp7810
(S'banks'
p7811
g42
tp7812
tp7813
I2
s((S'not'
p7814
g29
tp7815
(S'certain'
p7816
g2
tp7817
tp7818
I1
s((S'only'
p7819
g29
tp7820
(S'say'
p7821
g150
tp7822
tp7823
I1
s((S'organic'
p7824
g2
tp7825
(S'growth'
p7826
g5
tp7827
tp7828
I1
s((S'educational'
p7829
g2
tp7830
(S'opportunities'
p7831
g42
tp7832
tp7833
I1
s((S'never'
p7834
g29
tp7835
(S'clear'
p7836
g2
tp7837
tp7838
I1
s((S'never'
p7839
g29
tp7840
(S'seen'
p7841
g48
tp7842
tp7843
I1
s((S'new'
p7844
g2
tp7845
(S'development'
p7846
g5
tp7847
tp7848
I1
s((S'organizational'
p7849
g2
tp7850
(S'culture'
p7851
g5
tp7852
tp7853
I1
s((S'good'
p7854
g2
tp7855
(S'facilities'
p7856
g42
tp7857
tp7858
I1
s((S'other'
p7859
g2
tp7860
(S'industries'
p7861
g42
tp7862
tp7863
I1
s((S'many'
p7864
g2
tp7865
(S'locations'
p7866
g42
tp7867
tp7868
I1
s((S'actually'
p7869
g29
tp7870
(S'get'
p7871
g150
tp7872
tp7873
I1
s((S'never'
p7874
g29
tp7875
(S'straight'
p7876
g2
tp7877
tp7878
I1
s((S'work/life'
p7879
g2
tp7880
(S'balance'
p7881
g5
tp7882
tp7883
I3
s((S'great'
p7884
g2
tp7885
(S'career'
p7886
g5
tp7887
tp7888
I2
s((S'professional'
p7889
g2
tp7890
(S'experiences'
p7891
g42
tp7892
tp7893
I1
s((S'personal'
p7894
g2
tp7895
(S'bank'
p7896
g5
tp7897
tp7898
I1
s((S'not'
p7899
g29
tp7900
(S'leaving'
p7901
g69
tp7902
tp7903
I1
s((S'many'
p7904
g2
tp7905
(S'supervisors'
p7906
g42
tp7907
tp7908
I1
s((S'positive'
p7909
g2
tp7910
(S'experience'
p7911
g5
tp7912
tp7913
I1
s((S"n't"
p7914
g29
tp7915
(S'supercede'
p7916
g150
tp7917
tp7918
I1
s((S'upward'
p7919
g2
tp7920
(S'once'
p7921
g5
tp7922
tp7923
I1
s((S'financial'
p7924
g2
tp7925
(S'storm'
p7926
g5
tp7927
tp7928
I1
s((S"n't"
p7929
g29
tp7930
(S'working'
p7931
g69
tp7932
tp7933
I1
s((S'aggressively'
p7934
g29
tp7935
(S'take'
p7936
g150
tp7937
tp7938
I1
s((S'technical'
p7939
g2
tp7940
(S'work'
p7941
g5
tp7942
tp7943
I1
s((S'diverse'
p7944
g2
tp7945
(S'employees'
p7946
g42
tp7947
tp7948
I1
s((S'good'
p7949
g2
tp7950
(S'team'
p7951
g5
tp7952
tp7953
I1
s((S'different'
p7954
g2
tp7955
(S'departments'
p7956
g42
tp7957
tp7958
I2
s((S'literally'
p7959
g29
tp7960
(S'nauseating'
p7961
g69
tp7962
tp7963
I1
s((S'Direct'
p7964
g2
tp7965
(S'supervisors'
p7966
g42
tp7967
tp7968
I1
s((S'extremely'
p7969
g29
tp7970
(S'helpful'
p7971
g2
tp7972
tp7973
I3
s((S'.but'
p7974
g2
tp7975
(S'get'
p7976
g5
tp7977
tp7978
I1
s((S'junior'
p7979
g2
tp7980
(S'employee'
p7981
g5
tp7982
tp7983
I1
s((S'internal'
p7984
g2
tp7985
(S'battle'
p7986
g5
tp7987
tp7988
I1
s((S'long'
p7989
g2
tp7990
(S'hours'
p7991
g42
tp7992
tp7993
I6
s((S'little'
p7994
g29
tp7995
(S'overboard'
p7996
g2
tp7997
tp7998
I1
s((S'Financial'
p7999
g2
tp8000
(S'services'
p8001
g42
tp8002
tp8003
I1
s((S'Just'
p8004
g29
tp8005
(S'Started'
p8006
g48
tp8007
tp8008
I1
s((S'personal'
p8009
g2
tp8010
(S'line'
p8011
g5
tp8012
tp8013
I1
s((S'dead'
p8014
g2
tp8015
(S'weight'
p8016
g5
tp8017
tp8018
I1
s((S'vacation'
p8019
g5
tp8020
(S'non-existant'
p8021
g2
tp8022
tp8023
I1
s((S'enable'
p8024
g2
tp8025
(S'growth'
p8026
g5
tp8027
tp8028
I1
s((S'very'
p8029
g29
tp8030
(S'conservative'
p8031
g2
tp8032
tp8033
I1
s((S'full'
p8034
g2
tp8035
(S'time'
p8036
g5
tp8037
tp8038
I2
s(g2083
(S'willing'
p8039
g2
tp8040
tp8041
I1
s((S'usually'
p8042
g29
tp8043
(S'negative'
p8044
g2
tp8045
tp8046
I1
s((S'good'
p8047
g2
tp8048
(S'learning'
p8049
g5
tp8050
tp8051
I3
s((S'ever'
p8052
g29
tp8053
(S'had'
p8054
g48
tp8055
tp8056
I1
s((S'administrative'
p8057
g2
tp8058
(S'work'
p8059
g5
tp8060
tp8061
I1
s((S'not'
p8062
g29
tp8063
(S'employee'
p8064
g150
tp8065
tp8066
I1
s((S'big'
p8067
g2
tp8068
(S'push'
p8069
g5
tp8070
tp8071
I1
s((S'decent'
p8072
g2
tp8073
(S'benefits'
p8074
g42
tp8075
tp8076
I1
s((S'many'
p8077
g2
tp8078
(S'chiefs'
p8079
g42
tp8080
tp8081
I2
s((S'certain'
p8082
g2
tp8083
(S'fields'
p8084
g42
tp8085
tp8086
I1
s((S'great'
p8087
g2
tp8088
(S'sense'
p8089
g5
tp8090
tp8091
I1
s((S'good'
p8092
g2
tp8093
(S'career'
p8094
g5
tp8095
tp8096
I2
s((S'more'
p8097
g1180
tp8098
(S'engineering'
p8099
g69
tp8100
tp8101
I1
s((S'much'
p8102
g29
tp8103
(S'change'
p8104
g150
tp8105
tp8106
I1
s((S'not'
p8107
g29
tp8108
(S'care'
p8109
g150
tp8110
tp8111
I1
s((S'good'
p8112
g2
tp8113
(S'environment'
p8114
g5
tp8115
tp8116
I3
s((S'wonderful'
p8117
g2
tp8118
(S'people'
p8119
g42
tp8120
tp8121
I1
s((S"n't"
p8122
g29
tp8123
(S'mind'
p8124
g150
tp8125
tp8126
I1
s((S'many'
p8127
g2
tp8128
(S'functions'
p8129
g42
tp8130
tp8131
I1
s((S'wonderful'
p8132
g2
tp8133
(S'company'
p8134
g5
tp8135
tp8136
I1
s((S'promotional'
p8137
g2
tp8138
(S'opportunities'
p8139
g42
tp8140
tp8141
I3
s((S'not'
p8142
g29
tp8143
(S'grow'
p8144
g150
tp8145
tp8146
I1
s((S'there'
p8147
g29
tp8148
(S'ranking'
p8149
g69
tp8150
tp8151
I1
s((S'Extremely'
p8152
g29
tp8153
(S'tiring'
p8154
g69
tp8155
tp8156
I1
s((S'however'
p8157
g29
tp8158
(S'balanced'
p8159
g48
tp8160
tp8161
I1
s((S'own'
p8162
g2
tp8163
(S'tools'
p8164
g42
tp8165
tp8166
I1
s((S'very'
p8167
g29
tp8168
(S'humid'
p8169
g2
tp8170
tp8171
I1
s((S'professional'
p8172
g2
tp8173
(S'skills'
p8174
g42
tp8175
tp8176
I1
s((S'wide'
p8177
g2
tp8178
(S'array'
p8179
g5
tp8180
tp8181
I1
s((S'much'
p8182
g2
tp8183
(S'labor'
p8184
g5
tp8185
tp8186
I1
s((S'professional'
p8187
g2
tp8188
(S'positions'
p8189
g42
tp8190
tp8191
I2
s((S'big'
p8192
g2
tp8193
(S'company'
p8194
g5
tp8195
tp8196
I7
s((S'always'
p8197
g29
tp8198
(S'decided'
p8199
g176
tp8200
tp8201
I2
s((S'Extremely'
p8202
g29
tp8203
(S'political'
p8204
g2
tp8205
tp8206
I1
s((S'deplorable'
p8207
g2
tp8208
(S'environment'
p8209
g5
tp8210
tp8211
I1
s((S'potential'
p8212
g2
tp8213
(S'bonus'
p8214
g5
tp8215
tp8216
I1
s((S'current'
p8217
g2
tp8218
(S'reduction'
p8219
g5
tp8220
tp8221
I1
s((S'automotive'
p8222
g2
tp8223
(S'industry'
p8224
g5
tp8225
tp8226
I1
s((S'Family'
p8227
g29
tp8228
(S'oriented'
p8229
g48
tp8230
tp8231
I1
s((S'constant'
p8232
g2
tp8233
(S'threat'
p8234
g5
tp8235
tp8236
I1
s((S"n't"
p8237
g29
tp8238
(S'offer'
p8239
g150
tp8240
tp8241
I1
s((S'different'
p8242
g2
tp8243
(S'problems'
p8244
g42
tp8245
tp8246
I1
s((S'only'
p8247
g2
tp8248
(S'relates'
p8249
g42
tp8250
tp8251
I1
s((S'political'
p8252
g2
tp8253
(S'company'
p8254
g5
tp8255
tp8256
I1
s((S'mechanic'
p8257
g2
tp8258
(S'job'
p8259
g5
tp8260
tp8261
I1
s((S'additional'
p8262
g2
tp8263
(S'compensations'
p8264
g42
tp8265
tp8266
I1
s((S"n't"
p8267
g29
tp8268
(S'needed'
p8269
g48
tp8270
tp8271
I1
s((S'financial'
p8272
g2
tp8273
(S'industry'
p8274
g5
tp8275
tp8276
I1
s((S'Total'
p8277
g2
tp8278
(S'compensation'
p8279
g5
tp8280
tp8281
I1
s((S'sub-par'
p8282
g2
tp8283
(S'relative'
p8284
g2
tp8285
tp8286
I1
s((S'much'
p8287
g2
tp8288
(S'moving'
p8289
g5
tp8290
tp8291
I1
s((S'Great'
p8292
g2
tp8293
(S'place'
p8294
g5
tp8295
tp8296
I1
s((S'small'
p8297
g2
tp8298
(S'enviroment'
p8299
g5
tp8300
tp8301
I1
s((S'really'
p8302
g29
tp8303
(S'care'
p8304
g150
tp8305
tp8306
I1
s((S'not'
p8307
g29
tp8308
(S'challenging'
p8309
g69
tp8310
tp8311
I1
s((S'Just'
p8312
g29
tp8313
(S'started'
p8314
g48
tp8315
tp8316
I1
s((S'totally'
p8317
g29
tp8318
(S'unimportant'
p8319
g2
tp8320
tp8321
I1
s((S'many'
p8322
g2
tp8323
(S'decesions'
p8324
g42
tp8325
tp8326
I1
s((S'rich'
p8327
g2
tp8328
(S'career'
p8329
g5
tp8330
tp8331
I1
s((S'very'
p8332
g29
tp8333
(S'political'
p8334
g2
tp8335
tp8336
I7
s((S'large'
p8337
g2
tp8338
(S'number'
p8339
g5
tp8340
tp8341
I1
s((S'superior'
p8342
g2
tp8343
(S'opportunities'
p8344
g42
tp8345
tp8346
I1
s((S'always'
p8347
g29
tp8348
(S'willing'
p8349
g2
tp8350
tp8351
I1
s((S'such'
p8352
g2
tp8353
(S'experiences'
p8354
g42
tp8355
tp8356
I1
s((S'not'
p8357
g29
tp8358
(S'move'
p8359
g150
tp8360
tp8361
I1
s((S'never'
p8362
g29
tp8363
(S'followed'
p8364
g48
tp8365
tp8366
I1
s((S'many'
p8367
g2
tp8368
(S'expats'
p8369
g42
tp8370
tp8371
I1
s((S'Stable'
p8372
g2
tp8373
(S'business'
p8374
g5
tp8375
tp8376
I1
s((S'Technical'
p8377
g2
tp8378
(S'Sales'
p8379
g42
tp8380
tp8381
I1
s((S'too'
p8382
g29
tp8383
(S'bad'
p8384
g2
tp8385
tp8386
I1
s(g5551
(S'capped'
p8387
g2
tp8388
tp8389
I1
s((S'free'
p8390
g2
tp8391
(S't-shirts'
p8392
g42
tp8393
tp8394
I1
s((S'upper'
p8395
g2
tp8396
(S'ranks'
p8397
g42
tp8398
tp8399
I1
s((S'Mostly'
p8400
g29
tp8401
(S'Satisfied'
p8402
g48
tp8403
tp8404
I1
s((S'relatively'
p8405
g29
tp8406
(S'simple'
p8407
g2
tp8408
tp8409
I1
s((S'quite'
p8410
g29
tp8411
(S'difficult'
p8412
g2
tp8413
tp8414
I1
s((S'much'
p8415
g2
tp8416
(S'access'
p8417
g5
tp8418
tp8419
I1
s((S'great'
p8420
g2
tp8421
(S'setup'
p8422
g5
tp8423
tp8424
I1
s((S'not'
p8425
g29
tp8426
(S'empowered'
p8427
g48
tp8428
tp8429
I1
s((S'very'
p8430
g29
tp8431
(S'limited'
p8432
g48
tp8433
tp8434
I1
s((S'tx'
p8435
g5
tp8436
(S'due'
p8437
g2
tp8438
tp8439
I1
s((S'Many'
p8440
g2
tp8441
(S'people'
p8442
g42
tp8443
tp8444
I1
s((S'relatively'
p8445
g29
tp8446
(S'easy'
p8447
g2
tp8448
tp8449
I1
s((S'big'
p8450
g2
tp8451
(S'sales'
p8452
g42
tp8453
tp8454
I1
s((S'international'
p8455
g2
tp8456
(S'experience'
p8457
g5
tp8458
tp8459
I2
s((S'major'
p8460
g2
tp8461
(S'delays'
p8462
g42
tp8463
tp8464
I1
s((S'approachable'
p8465
g2
tp8466
(S'management'
p8467
g5
tp8468
tp8469
I1
s((S'potential'
p8470
g2
tp8471
(S'jobs'
p8472
g42
tp8473
tp8474
I1
s((S'geographic'
p8475
g2
tp8476
(S'differences'
p8477
g42
tp8478
tp8479
I1
s((S'well'
p8480
g29
tp8481
(S'structured'
p8482
g48
tp8483
tp8484
I1
s((S'nice'
p8485
g2
tp8486
(S'coworkers'
p8487
g42
tp8488
tp8489
I1
s((S'same'
p8490
g2
tp8491
(S'thing'
p8492
g5
tp8493
tp8494
I1
s((S'too'
p8495
g29
tp8496
(S'worried'
p8497
g48
tp8498
tp8499
I1
s((S'low'
p8500
g2
tp8501
(S'employee'
p8502
g5
tp8503
tp8504
I1
s((S'Flexible'
p8505
g2
tp8506
(S'scheduling'
p8507
g5
tp8508
tp8509
I1
s((S"n't"
p8510
g29
tp8511
(S'bad'
p8512
g2
tp8513
tp8514
I1
s((S'very'
p8515
g29
tp8516
(S'high'
p8517
g2
tp8518
tp8519
I2
s((S'high'
p8520
g2
tp8521
(S'demand'
p8522
g5
tp8523
tp8524
I2
s((S'clear'
p8525
g2
tp8526
(S'direction'
p8527
g5
tp8528
tp8529
I1
s((S'educational'
p8530
g2
tp8531
(S'degrees'
p8532
g42
tp8533
tp8534
I1
s((S'poorly'
p8535
g29
tp8536
(S'paid'
p8537
g48
tp8538
tp8539
I1
s((S'good'
p8540
g2
tp8541
(S'atmosphere'
p8542
g5
tp8543
tp8544
I1
s((S'employees'
p8545
g42
tp8546
(S'such'
p8547
g2
tp8548
tp8549
I1
s((S'retail'
p8550
g2
tp8551
(S'side'
p8552
g5
tp8553
tp8554
I2
s((S'considerate'
p8555
g2
tp8556
(S'Managers'
p8557
g42
tp8558
tp8559
I1
s((S'too'
p8560
g29
tp8561
(S'much'
p8562
g2
tp8563
tp8564
I1
s((S'strong'
p8565
g2
tp8566
(S'values'
p8567
g42
tp8568
tp8569
I1
s((S'not'
p8570
g29
tp8571
(S'know'
p8572
g150
tp8573
tp8574
I2
s((S'now'
p8575
g29
tp8576
(S'tired'
p8577
g48
tp8578
tp8579
I1
s((S'still'
p8580
g29
tp8581
(S'required'
p8582
g48
tp8583
tp8584
I1
s((S'good'
p8585
g2
tp8586
(S'people'
p8587
g42
tp8588
tp8589
I13
s((S'low'
p8590
g2
tp8591
(S'salary'
p8592
g5
tp8593
tp8594
I1
s((S'much'
p8595
g29
tp8596
(S'red'
p8597
g48
tp8598
tp8599
I1
s((S'very'
p8600
g29
tp8601
(S'unappreciated'
p8602
g48
tp8603
tp8604
I1
s((S'negative'
p8605
g2
tp8606
(S'light'
p8607
g5
tp8608
tp8609
I1
s((S'easy'
p8610
g2
tp8611
(S'job'
p8612
g5
tp8613
tp8614
I2
s((S'very'
p8615
g29
tp8616
(S'accommodating'
p8617
g69
tp8618
tp8619
I1
s((S'fair'
p8620
g2
tp8621
(S'pay'
p8622
g5
tp8623
tp8624
I1
s((S'very'
p8625
g29
tp8626
(S'underpaid'
p8627
g176
tp8628
tp8629
I1
s((S'previous'
p8630
g2
tp8631
(S'person'
p8632
g5
tp8633
tp8634
I1
s((S'yet'
p8635
g29
tp8636
(S'time-consuming'
p8637
g2
tp8638
tp8639
I1
s((S'many'
p8640
g2
tp8641
(S'control'
p8642
g5
tp8643
tp8644
I1
s((S'Outstanding'
p8645
g2
tp8646
(S'reputation'
p8647
g5
tp8648
tp8649
I1
s((S'quantitative'
p8650
g2
tp8651
(S'factor'
p8652
g5
tp8653
tp8654
I1
s((S'individual'
p8655
g2
tp8656
(S'assignment'
p8657
g5
tp8658
tp8659
I1
s((S'very'
p8660
g29
tp8661
(S'inefficient'
p8662
g2
tp8663
tp8664
I1
s((S'big'
p8665
g2
tp8666
(S'Corporation'
p8667
g5
tp8668
tp8669
I1
s((S'next'
p8670
g2
tp8671
(S'advancement'
p8672
g5
tp8673
tp8674
I1
s((S'tough'
p8675
g2
tp8676
(S'city'
p8677
g5
tp8678
tp8679
I1
s((S'hard'
p8680
g29
tp8681
(S'work'
p8682
g150
tp8683
tp8684
I1
s((S'great'
p8685
g2
tp8686
(g1303
g5
tp8687
tp8688
I1
s((S'o.t'
p8689
g2
tp8690
(g1262
g5
tp8691
tp8692
I1
s((S'not'
p8693
g29
tp8694
(S'diverse'
p8695
g150
tp8696
tp8697
I1
s((S'internal'
p8698
g2
tp8699
(S'issues'
p8700
g42
tp8701
tp8702
I1
s((S'truly'
p8703
g29
tp8704
(S'represented'
p8705
g48
tp8706
tp8707
I1
s((S'geographical'
p8708
g2
tp8709
(S'locations'
p8710
g42
tp8711
tp8712
I1
s((S'not'
p8713
g29
tp8714
(S'easy'
p8715
g2
tp8716
tp8717
I1
s((S'own'
p8718
g2
tp8719
(S'product'
p8720
g5
tp8721
tp8722
I1
s((S'general'
p8723
g2
tp8724
(S'insurance'
p8725
g5
tp8726
tp8727
I1
s((S'basic'
p8728
g2
tp8729
(S'things'
p8730
g42
tp8731
tp8732
I1
s((S'poor'
p8733
g2
tp8734
g6254
tp8735
I1
s((S'great'
p8736
g2
tp8737
(S'deal'
p8738
g5
tp8739
tp8740
I3
s((S'sharp'
p8741
g2
tp8742
(S'people'
p8743
g42
tp8744
tp8745
I1
s((S'not-so-great'
p8746
g2
tp8747
(S'pay'
p8748
g5
tp8749
tp8750
I1
s((S'much'
p8751
g2
tp8752
(S'politics'
p8753
g42
tp8754
tp8755
I1
s.