(dp0
(S'extremely'
p1
S'helpful'
p2
tp3
(lp4
I0
aF3.0
aI0
aI1
as(S'very'
p5
S'beneficial'
p6
tp7
(lp8
I0
aI0
aI1
aI1
as(S'Personal'
p9
S'banker'
p10
tp11
(lp12
I0
aF3.0
aI0
aI1
as(S'retail'
p13
S'job'
p14
tp15
(lp16
I0
aI0
aI1
aI1
as(S'pleasant'
p17
S'place'
p18
tp19
(lp20
I0
aF2.0579700000000001
aI0
aI1
as(S'different'
p21
S'organizations'
p22
tp23
(lp24
I0
aF2.0579700000000001
aI0
aI1
as(S'low'
p25
S'pay'
p26
tp27
(lp28
I0
aI2
aI2
aI4
as(S'Generous'
p29
S'vacation'
p30
tp31
(lp32
I0
aI0
aF1.9855100000000001
aI1
as(S'ever'
p33
S'received'
p34
tp35
(lp36
I0
aF1.0434800000000002
aI0
aI1
as(S'basic'
p37
S'understanding'
p38
tp39
(lp40
I0
aF2.0579700000000001
aI0
aI1
as(S'corporate'
p41
S'level'
p42
tp43
(lp44
I0
aF2.0579700000000001
aI1
aI2
as(S'large'
p45
S'companies'
p46
tp47
(lp48
I0
aI0
aI2
aI2
as(S'global'
p49
S'organization'
p50
tp51
(lp52
I0
aF2.0579700000000001
aI0
aI1
as(S'great'
p53
S'atmosphere'
p54
tp55
(lp56
I0
aF2.0579700000000001
aI0
aI1
as(S'Not'
p57
S'bad'
p58
tp59
(lp60
I0
aF1.0434800000000002
aI0
aI1
as(S'there'
p61
S'longer.They'
p62
tp63
(lp64
I0
aI1
aI0
aI1
as(S'noticeable'
p65
S'favoritism'
p66
tp67
(lp68
I0
aI0
aI1
aI1
as(S'new'
p69
S'features'
p70
tp71
(lp72
I0
aI0
aI1
aI1
as(S'not'
p73
S'believe'
p74
tp75
(lp76
I0
aI1
aI0
aI1
as(S'easily'
p77
S'fixed'
p78
tp79
(lp80
I0
aI0
aI1
aI1
as(S'other'
p81
S'opportunities'
p82
tp83
(lp84
I0
aF3.0
aI0
aI1
as(S"n't"
p85
S'feel'
p86
tp87
(lp88
I0
aI0
aI1
aI1
as(S'big'
p89
S'recognition'
p90
tp91
(lp92
I0
aF1.0434800000000002
aI0
aI1
as(S'senior'
p93
S'managers'
p94
tp95
(lp96
I0
aI0
aI1
aI1
as(S'then'
p97
S'give'
p98
tp99
(lp100
I0
aF1.0434800000000002
aI0
aI1
as(S'hierarchal'
p101
S'structure'
p102
tp103
(lp104
I0
aI0
aI1
aI1
as(S'too'
p105
S'academic'
p106
tp107
(lp108
I0
aI0
aI1
aI1
as(S'pragmatic'
p109
S'approach'
p110
tp111
(lp112
I0
aF3.0
aI0
aI1
as(S'always'
p113
S'changing'
p114
tp115
(lp116
I0
aI0
aI2
aI2
as(S'good'
p117
S'opportunities'
p118
tp119
(lp120
I0
aF3.1014500000000003
aI0
aI2
as(S'good'
p121
S'potenital'
p122
tp123
(lp124
I0
aI0
aI1
aI1
as(S'very'
p125
S'nurturing'
p126
tp127
(lp128
I0
aF2.0579700000000001
aI0
aI1
as(S'great'
p129
S'environment'
p130
tp131
(lp132
I0
aF1.0434800000000002
aI0
aI1
as(S'low'
p133
S'moral'
p134
tp135
(lp136
I0
aI0
aI1
aI1
as(S'not'
p137
S'having'
p138
tp139
(lp140
I0
aF1.0434800000000002
aI0
aI1
as(S'large'
p141
S'company'
p142
tp143
(lp144
I0
aF6.2318900000000017
aI1
aI6
as(S'global'
p145
S'companies'
p146
tp147
(lp148
I0
aI0
aF0.97101000000000015
aI1
as(S'Highly'
p149
S'unstable'
p150
tp151
(lp152
I0
aI0
aF0.97101000000000015
aI1
as(S'first'
p153
S'company'
p154
tp155
(lp156
I0
aF1.0434800000000002
aI0
aI1
as(S'*Great'
p157
S'benefits'
p158
tp159
(lp160
I0
aF1.0434800000000002
aI0
aI1
as(S'good'
p161
S'raises'
p162
tp163
(lp164
I0
aI0
aI1
aI1
as(S'too'
p165
S'many'
p166
tp167
(lp168
I0
aF1.0434800000000002
aF0.97101000000000015
aI2
as(S'numbingly'
p169
S'dull'
p170
tp171
(lp172
I0
aI1
aI0
aI1
as(S'first'
p173
S'joined'
p174
tp175
(lp176
I0
aF1.0434800000000002
aI0
aI1
as(S'much'
p177
S'smoke'
p178
tp179
(lp180
I0
aI0
aF0.97101000000000015
aI1
as(S'many'
p181
S'reorganizations'
p182
tp183
(lp184
I0
aI0
aI1
aI1
as(S'educational'
p185
S'experience'
p186
tp187
(lp188
I0
aF2.0579700000000001
aI0
aI1
as(S'much'
p189
S'travel'
p190
tp191
(lp192
I0
aI0
aI1
aI1
as(S'hard'
p193
S'work'
p194
tp195
(lp196
I0
aI0
aF1.9710100000000002
aI2
as(S'bad'
p197
S'time'
p198
tp199
(lp200
I0
aI0
aI1
aI1
as(S'good'
p201
S'teams'
p202
tp203
(lp204
I0
aF3.0
aI0
aI1
as(S'many'
p205
S'decesions'
p206
tp207
(lp208
I0
aI0
aI1
aI1
as(S'Huge'
p209
S'organization'
p210
tp211
(lp212
I0
aI0
aI1
aI1
as(S'Important'
p213
S'decisions'
p214
tp215
(lp216
I0
aI0
aI1
aI1
as(S'great'
p217
S'flexibility'
p218
tp219
(lp220
I0
aF1.0434800000000002
aI0
aI1
as(S'optimal'
p221
S'rate'
p222
tp223
(lp224
I0
aI0
aI1
aI1
as(S'bad'
p225
S'press'
p226
tp227
(lp228
I0
aI0
aI1
aI1
as(S'Flexible'
p229
S'scheduling'
p230
tp231
(lp232
I0
aF1.0434800000000002
aI0
aI1
as(S'well'
p233
S'organized'
p234
tp235
(lp236
I0
aI0
aI1
aI1
as(S'great'
p237
S'gym'
p238
tp239
(lp240
I0
aF2.0579700000000001
aI0
aI1
as(S'high'
p241
S'level'
p242
tp243
(lp244
I0
aI0
aI2
aI2
as(S'much'
p245
S'resistance'
p246
tp247
(lp248
I0
aI0
aF0.97101000000000015
aI1
as(S'Incredible'
p249
S'jump'
p250
tp251
(lp252
I0
aF2.0579700000000001
aI0
aI1
as(S'not'
p253
S'empowered'
p254
tp255
(lp256
I0
aI0
aI1
aI1
as(S'internally'
p257
S'focused'
p258
tp259
(lp260
I0
aF1.0434800000000002
aI2
aI3
as(S'many'
p261
S'business'
p262
tp263
(lp264
I0
aF1.0434800000000002
aI0
aI1
as(S'Many'
p265
S'people'
p266
tp267
(lp268
I0
aI0
aF0.97101000000000015
aI1
as(S'constantly'
p269
S'pushed'
p270
tp271
(lp272
I0
aI0
aI1
aI1
as(S'new'
p273
S'projects'
p274
tp275
(lp276
I0
aI1
aI0
aI1
as(S'very'
p277
S'impersonal'
p278
tp279
(lp280
I0
aI1
aI0
aI1
as(S'annual'
p281
S'bonus'
p282
tp283
(lp284
I0
aI0
aI1
aI1
as(S'stressful'
p285
S'environment'
p286
tp287
(lp288
I0
aF2.0579700000000001
aI0
aI1
as(S'solid'
p289
S'fundamentals'
p290
tp291
(lp292
I0
aF2.0579700000000001
aI0
aI1
as(S'utterly'
p293
S'opaque'
p294
tp295
(lp296
I0
aI0
aI1
aI1
as(S'senior'
p297
S'talent'
p298
tp299
(lp300
I0
aF1.0434800000000002
aI0
aI1
as(S'new'
p301
S'systems'
p302
tp303
(lp304
I0
aF3.0
aI0
aI1
as(S'not'
p305
S'move'
p306
tp307
(lp308
I0
aF1.0434800000000002
aI0
aI1
as(S'many'
p309
S'levels'
p310
tp311
(lp312
I0
aI0
aI2
aI2
as(S'not'
p313
S'contribute'
p314
tp315
(lp316
I0
aI0
aF1.9855100000000001
aI1
as(S'incredible'
p317
S'talent'
p318
tp319
(lp320
I0
aI0
aF0.97101000000000015
aI1
as(S'Large'
p321
S'company'
p322
tp323
(lp324
I0
aF6.2029000000000014
aI0
aI4
as(S'fantastic'
p325
S'place'
p326
tp327
(lp328
I0
aF1.0434800000000002
aI0
aI1
as(S'flexible'
p329
S'working'
p330
tp331
(lp332
I0
aF3.1014500000000003
aF0.97101000000000015
aI3
as(S'Global'
p333
S'leader'
p334
tp335
(lp336
I0
aF1.0434800000000002
aI0
aI1
as(S'other'
p337
S'Banks'
p338
tp339
(lp340
I0
aI0
aI1
aI1
as(S'great'
p341
S'salary'
p342
tp343
(lp344
I0
aF1.0434800000000002
aI0
aI1
as(S'Strong'
p345
S'culture'
p346
tp347
(lp348
I0
aI0
aI1
aI1
as(S'sales'
p349
S'Part-time'
p350
tp351
(lp352
I0
aI0
aI1
aI1
as(S'bad'
p353
S'decisions'
p354
tp355
(lp356
I0
aI0
aI1
aI1
as(S'time-off'
p357
S'policies'
p358
tp359
(lp360
I0
aF1.0434800000000002
aI0
aI1
as(S'very'
p361
S'strict'
p362
tp363
(lp364
I0
aI0
aI1
aI1
as(S'Corporate'
p365
S'politics'
p366
tp367
(lp368
I0
aI0
aI1
aI1
as(S'worth'
p369
S'putting'
p370
tp371
(lp372
I0
aF1.0434800000000002
aI0
aI1
as(S'offer'
p373
S'many'
p374
tp375
(lp376
I0
aF3.0
aI0
aI1
as(S'very'
p377
S'busy'
p378
tp379
(lp380
I0
aI0
aI1
aI1
as(S'low'
p381
S'salary'
p382
tp383
(lp384
I0
aI1
aI0
aI1
as(S'seem'
p385
S'negligible'
p386
tp387
(lp388
I0
aI0
aI1
aI1
as(S'first'
p389
S'job'
p390
tp391
(lp392
I0
aF1.0434800000000002
aI0
aI1
as(S'deplorable'
p393
S'environment'
p394
tp395
(lp396
I0
aI0
aF0.97101000000000015
aI1
as(S'equal'
p397
S'Opportunities'
p398
tp399
(lp400
I0
aF3.0
aI0
aI1
as(S"n't"
p401
S'selling'
p402
tp403
(lp404
I0
aI0
aI1
aI1
as(S'Enormously'
p405
S'challenged'
p406
tp407
(lp408
I0
aI0
aF0.97101000000000015
aI1
as(S'very'
p409
S'average'
p410
tp411
(lp412
I0
aI0
aI1
aI1
as(S'solid'
p413
S'corporation'
p414
tp415
(lp416
I0
aF2.0579700000000001
aI0
aI1
as(S'reasonable'
p417
S'pay'
p418
tp419
(lp420
I0
aF2.0579700000000001
aI0
aI1
as(S'little'
p421
S'interest'
p422
tp423
(lp424
I0
aI1
aI0
aI1
as(S'lucky'
p425
S'enough'
p426
tp427
(lp428
I0
aF1.0434800000000002
aI1
aI2
as(S'very'
p429
S'challenging'
p430
tp431
(lp432
I0
aF1.0434800000000002
aI1
aI2
as(S'much'
p433
S'change'
p434
tp435
(lp436
I0
aI0
aI1
aI1
as(S'Long'
p437
S'hours'
p438
tp439
(lp440
I0
aF2.0579700000000001
aI1
aI2
as(S'conceptual'
p441
S'things'
p442
tp443
(lp444
I0
aF2.0579700000000001
aI0
aI1
as(S'bad'
p445
S'managment'
p446
tp447
(lp448
I0
aI0
aF0.97101000000000015
aI1
as(S'Not'
p449
S'open'
p450
tp451
(lp452
I0
aI1
aI0
aI1
as(S'cutthroat'
p453
S'approach'
p454
tp455
(lp456
I0
aF2.0579700000000001
aI0
aI1
as(S'free'
p457
S'benefits'
p458
tp459
(lp460
I0
aF2.0579700000000001
aI0
aI1
as(S'Too'
p461
S'bueraucratic'
p462
tp463
(lp464
I0
aI0
aI1
aI1
as(S'medical'
p465
S'support'
p466
tp467
(lp468
I0
aF1.0434800000000002
aI0
aI1
as(S'Sometimes'
p469
S'felt'
p470
tp471
(lp472
I0
aI0
aI1
aI1
as(S'group'
p473
S'due'
p474
tp475
(lp476
I0
aF2.0579700000000001
aI0
aI1
as(S'quite'
p477
S'top-down'
p478
tp479
(lp480
I0
aI0
aI1
aI1
as(S'well'
p481
S'rounded'
p482
tp483
(lp484
I0
aF1.0434800000000002
aI0
aI1
as(S'different'
p485
S'problems'
p486
tp487
(lp488
I0
aF3.0
aI0
aI1
as(S'really'
p489
S'liked'
p490
tp491
(lp492
I0
aF1.0434800000000002
aI0
aI1
as(S'endless'
p493
S'potential'
p494
tp495
(lp496
I0
aF3.0
aI0
aI1
as(S'relatively'
p497
S'speaking'
p498
tp499
(lp500
I0
aF2.0579700000000001
aI0
aI1
as(S'clear'
p501
S'set'
p502
tp503
(lp504
I0
aI0
aI1
aI1
as(S'not'
p505
S'micromanaged'
p506
tp507
(lp508
I0
aF3.0
aI0
aI1
as(S'not-so-great'
p509
S'pay'
p510
tp511
(lp512
I0
aF2.0579700000000001
aI0
aI1
as(S'conservative'
p513
S'culture'
p514
tp515
(lp516
I0
aF1.0434800000000002
aI0
aI1
as(S'same'
p517
S'thing'
p518
tp519
(lp520
I0
aI1
aI0
aI1
as(S'literally'
p521
S'nauseating'
p522
tp523
(lp524
I0
aI1
aI0
aI1
as(S'pervasive'
p525
S'politics'
p526
tp527
(lp528
I0
aI0
aI1
aI1
as(S'not'
p529
S'look'
p530
tp531
(lp532
I0
aI0
aI1
aI1
as(S'other'
p533
S'banks'
p534
tp535
(lp536
I0
aI0
aF1.9710100000000002
aI2
as(S'overall'
p537
S'attitude'
p538
tp539
(lp540
I0
aI0
aI1
aI1
as(S'Little'
p541
S'advancement'
p542
tp543
(lp544
I0
aI0
aI1
aI1
as(S'global'
p545
S'platform'
p546
tp547
(lp548
I0
aF1.0434800000000002
aI0
aI1
as(S'international'
p549
S'opportunities'
p550
tp551
(lp552
I0
aF2.0579700000000001
aI0
aI1
as(S'hours'
p553
S'-Extra'
p554
tp555
(lp556
I0
aF2.0579700000000001
aI0
aI1
as(S'High'
p557
S'attrition'
p558
tp559
(lp560
I0
aI1
aI0
aI1
as(S'many'
p561
S'opportunities'
p562
tp563
(lp564
I0
aF8.0869600000000013
aI1
aI5
as(S'.but'
p565
S'get'
p566
tp567
(lp568
I0
aF1.0434800000000002
aI0
aI1
as(S'great'
p569
S'palce'
p570
tp571
(lp572
I0
aI0
aF1.9855100000000001
aI1
as(S'too'
p573
S'competitive'
p574
tp575
(lp576
I0
aF1.0434800000000002
aI0
aI1
as(S'Other'
p577
S'Engineers'
p578
tp579
(lp580
I0
aF1.0434800000000002
aI0
aI1
as(S'many'
p581
S'times'
p582
tp583
(lp584
I0
aF2.0579700000000001
aI0
aI1
as(S'Bad'
p585
S'atmosphere'
p586
tp587
(lp588
I0
aI1
aI0
aI1
as(S'different'
p589
S'projects'
p590
tp591
(lp592
I0
aF1.0434800000000002
aI0
aI1
as(S'Often'
p593
S'understaffed'
p594
tp595
(lp596
I0
aI0
aI1
aI1
as(S'perhaps'
p597
S'raising'
p598
tp599
(lp600
I0
aI0
aI1
aI1
as(S'good'
p601
S'rate'
p602
tp603
(lp604
I0
aF3.0
aI0
aI1
as(S'very'
p605
S'slow'
p606
tp607
(lp608
I0
aI1
aI1
aI2
as(S"n't"
p609
S'know'
p610
tp611
(lp612
I0
aI0
aI2
aI2
as(S'-Poor'
p613
S'Management'
p614
tp615
(lp616
I0
aI0
aI1
aI1
as(S'free'
p617
S'uniforms'
p618
tp619
(lp620
I0
aF1.0434800000000002
aI0
aI1
as(S'high'
p621
S'yield'
p622
tp623
(lp624
I0
aF2.0579700000000001
aI0
aI1
as(S'low'
p625
S'level'
p626
tp627
(lp628
I0
aI0
aI1
aI1
as(S'great'
p629
S'benefits'
p630
tp631
(lp632
I0
aF11.391310000000002
aF1.9420200000000003
aI10
as(S'corporate'
p633
S'levels'
p634
tp635
(lp636
I0
aI0
aI1
aI1
as(S'few'
p637
S'years'
p638
tp639
(lp640
I0
aF2.0579700000000001
aI3
aI4
as(S'good'
p641
S'years'
p642
tp643
(lp644
I0
aI0
aI1
aI1
as(S'never'
p645
S'clear'
p646
tp647
(lp648
I0
aI1
aI0
aI1
as(S'not'
p649
S'doing'
p650
tp651
(lp652
I0
aI0
aI1
aI1
as(S'good'
p653
S'management'
p654
tp655
(lp656
I0
aF1.0434800000000002
aI0
aI1
as(S'REALLY'
p657
S'bad'
p658
tp659
(lp660
I0
aI0
aI1
aI1
as(S'Personal'
p661
S'Banker'
p662
tp663
(lp664
I0
aF3.1014500000000003
aI0
aI2
as(S'steady'
p665
S'hours'
p666
tp667
(lp668
I0
aI0
aF0.97101000000000015
aI1
as(S'many'
p669
S'employees'
p670
tp671
(lp672
I0
aI0
aF1.9710100000000002
aI2
as(S'well'
p673
S'located'
p674
tp675
(lp676
I0
aF1.0434800000000002
aI0
aI1
as(S'long'
p677
S'term'
p678
tp679
(lp680
I0
aI0
aI1
aI1
as(S'good'
p681
S'bye'
p682
tp683
(lp684
I0
aI0
aI1
aI1
as(S'Too'
p685
S'much'
p686
tp687
(lp688
I0
aI1
aI2
aI3
as(S'High'
p689
S'turn'
p690
tp691
(lp692
I0
aI0
aI1
aI1
as(S'bit'
p693
S'low'
p694
tp695
(lp696
I0
aI0
aI1
aI1
as(S'not'
p697
S'see'
p698
tp699
(lp700
I0
aI0
aI1
aI1
as(S'Innovative'
p701
S'company'
p702
tp703
(lp704
I0
aF2.0579700000000001
aI0
aI1
as(S'good'
p705
S'vacation'
p706
tp707
(lp708
I0
aI0
aF0.97101000000000015
aI1
as(S'many'
p709
S'systems'
p710
tp711
(lp712
I0
aI0
aI2
aI2
as(S'not'
p713
S'regret'
p714
tp715
(lp716
I0
aF2.0579700000000001
aI0
aI1
as(S'too'
p717
S'process-oriented'
p718
tp719
(lp720
I0
aI0
aI1
aI1
as(S'personal'
p721
S'line'
p722
tp723
(lp724
I0
aI0
aF0.97101000000000015
aI1
as(S'many'
p725
S'breaks'
p726
tp727
(lp728
I0
aF1.0434800000000002
aI0
aI1
as(S'emphasis'
p729
S'non-value'
p730
tp731
(lp732
I0
aI0
aI1
aI1
as(S'High'
p733
S'compensation'
p734
tp735
(lp736
I0
aF2.0579700000000001
aI0
aI1
as(S'Long'
p737
S'work'
p738
tp739
(lp740
I0
aI0
aI2
aI2
as(S'strategic'
p741
S'focus'
p742
tp743
(lp744
I0
aF2.0579700000000001
aI0
aI1
as(S'financial'
p745
S'crises'
p746
tp747
(lp748
I0
aI0
aI1
aI1
as(S'many'
p749
S'locations'
p750
tp751
(lp752
I0
aF1.0434800000000002
aI0
aI1
as(S"n't"
p753
S'agree'
p754
tp755
(lp756
I0
aI1
aI0
aI1
as(S'well'
p757
S'thought'
p758
tp759
(lp760
I0
aF2.0579700000000001
aI0
aI1
as(S'good'
p761
S'place'
p762
tp763
(lp764
I0
aF5.0869600000000004
aF5.8695500000000003
aI8
as(S'Positive'
p765
S'experience'
p766
tp767
(lp768
I0
aF2.0579700000000001
aI0
aI1
as(S'Extremely'
p769
S'tiring'
p770
tp771
(lp772
I0
aI0
aF0.97101000000000015
aI1
as(S'highly'
p773
S'prevalent'
p774
tp775
(lp776
I0
aI0
aI1
aI1
as(S'not'
p777
S'satisfactory'
p778
tp779
(lp780
I0
aI0
aI1
aI1
as(S"n't"
p781
S'understand'
p782
tp783
(lp784
I0
aI0
aI1
aI1
as(S'-Old'
p785
S'Cash'
p786
tp787
(lp788
I0
aI0
aI1
aI1
as(S'different'
p789
S'department'
p790
tp791
(lp792
I0
aI0
aI1
aI1
as(S'important'
p793
S'decision'
p794
tp795
(lp796
I0
aI0
aI1
aI1
as(S'frugal'
p797
S'environment'
p798
tp799
(lp800
I0
aF3.0
aI0
aI1
as(S'internal'
p801
S'issues'
p802
tp803
(lp804
I0
aI0
aI1
aI1
as(S'low'
p805
S'base'
p806
tp807
(lp808
I0
aI0
aI1
aI1
as(S'huge'
p809
S'amount'
p810
tp811
(lp812
I0
aI0
aI1
aI1
as(S'much'
p813
g729
tp814
(lp815
I0
aI0
aI1
aI1
as(S'non-management'
p816
S'employees'
p817
tp818
(lp819
I0
aI0
aF1.9855100000000001
aI1
as(S'low'
p820
S'cost'
p821
tp822
(lp823
I0
aF2.0579700000000001
aI0
aI1
as(S'minutes'
p824
S'later'
p825
tp826
(lp827
I0
aI0
aI1
aI1
as(S'Continuously'
p828
S'trying'
p829
tp830
(lp831
I0
aF1.0434800000000002
aI0
aI1
as(S'many'
p832
S'cons'
p833
tp834
(lp835
I0
aI0
aI2
aI2
as(S'Long'
p836
S'working'
p837
tp838
(lp839
I0
aI0
aI1
aI1
as(S'Self-imposed'
p840
S'leaving'
p841
tp842
(lp843
I0
aI0
aI1
aI1
as(S'nice'
p844
S'co-workers'
p845
tp846
(lp847
I0
aF2.0579700000000001
aI0
aI1
as(S'Daily'
p848
S'Uncontrolled'
p849
tp850
(lp851
I0
aI0
aF0.97101000000000015
aI1
as(S'many'
p852
S'problems'
p853
tp854
(lp855
I0
aI0
aI1
aI1
as(S'minimum'
p856
S'wage'
p857
tp858
(lp859
I0
aI1
aI0
aI1
as(S'fast'
p860
S'moving'
p861
tp862
(lp863
I0
aF1.0434800000000002
aI0
aI1
as(S'Highly'
p864
S'competitive'
p865
tp866
(lp867
I0
aI1
aI0
aI1
as(S'very'
p868
S'welcoming'
p869
tp870
(lp871
I0
aF3.0
aI0
aI1
as(S'even'
p872
S'having'
p873
tp874
(lp875
I0
aI0
aI1
aI1
as(S'very'
p876
S'humid'
p877
tp878
(lp879
I0
aI0
aI1
aI1
as(S'medical'
p880
S'condition'
p881
tp882
(lp883
I0
aI0
aI1
aI1
as(S'tech'
p884
S'new'
p885
tp886
(lp887
I0
aF2.0579700000000001
aI0
aI1
as(S'good'
p888
S'guidance'
p889
tp890
(lp891
I0
aI0
aF0.97101000000000015
aI1
as(S'little'
p892
S'autonomy'
p893
tp894
(lp895
I0
aI0
aI1
aI1
as(S'Outside'
p896
S'vendor'
p897
tp898
(lp899
I0
aI0
aF1.9855100000000001
aI1
as(S'big'
p900
S'company'
p901
tp902
(lp903
I0
aF3.1014500000000003
aI3
aI5
as(S'easy'
p904
S'job'
p905
tp906
(lp907
I0
aF4.0434800000000006
aI0
aI2
as(S'very'
p908
S'rewarding'
p909
tp910
(lp911
I0
aF2.0579700000000001
aI0
aI1
as(S'white'
p912
S'middle'
p913
tp914
(lp915
I0
aI0
aI1
aI1
as(S'early'
p916
S'responsibility'
p917
tp918
(lp919
I0
aF2.0579700000000001
aI0
aI1
as(S'leads.Your'
p920
S'hard'
p921
tp922
(lp923
I0
aI1
aI0
aI1
as(S'corporate'
p924
S'politics'
p925
tp926
(lp927
I0
aI1
aI0
aI1
as(S'very'
p928
S'exciting'
p929
tp930
(lp931
I0
aF2.0579700000000001
aI0
aI1
as(S'good'
p932
S'rewards'
p933
tp934
(lp935
I0
aI0
aF0.97101000000000015
aI1
as(S'easy'
p936
S'sales'
p937
tp938
(lp939
I0
aF2.0579700000000001
aI0
aI1
as(S'actual'
p940
S'client'
p941
tp942
(lp943
I0
aF2.0579700000000001
aI0
aI1
as(S'new'
p944
S'cool'
p945
tp946
(lp947
I0
aF1.0434800000000002
aI0
aI1
as(S'real'
p948
S'input'
p949
tp950
(lp951
I0
aF1.0434800000000002
aI0
aI1
as(S'large'
p952
S'banks'
p953
tp954
(lp955
I0
aF1.0434800000000002
aI0
aI1
as(S'great'
p956
S'team'
p957
tp958
(lp959
I0
aF2.0579700000000001
aI0
aI1
as(S'not'
p960
S'allow'
p961
tp962
(lp963
I0
aI0
aI1
aI1
as(S'possibly'
p964
S'spend'
p965
tp966
(lp967
I0
aI0
aF0.97101000000000015
aI1
as(S'still'
p968
S'striving'
p969
tp970
(lp971
I0
aF2.0579700000000001
aI0
aI1
as(S'affordable'
p972
S'cost'
p973
tp974
(lp975
I0
aF1.0434800000000002
aI0
aI1
as(S'quite'
p976
S'miserable'
p977
tp978
(lp979
I0
aI0
aI1
aI1
as(S'good'
p980
S'sense'
p981
tp982
(lp983
I0
aF1.0434800000000002
aI0
aI1
as(S'professional'
p984
S'growth'
p985
tp986
(lp987
I0
aF2.0579700000000001
aI0
aI1
as(S'slow'
p988
S'moving'
p989
tp990
(lp991
I0
aI0
aI2
aI2
as(S'great'
p992
S'upside'
p993
tp994
(lp995
I0
aF2.0579700000000001
aI0
aI1
as(S'corporate'
p996
S'companies'
p997
tp998
(lp999
I0
aF1.0434800000000002
aI0
aI1
as(S'personal'
p1000
S'experiences'
p1001
tp1002
(lp1003
I0
aF3.0
aI0
aI1
as(S'national'
p1004
S'brands'
p1005
tp1006
(lp1007
I0
aF2.0579700000000001
aI0
aI1
as(S'Never'
p1008
S'ending'
p1009
tp1010
(lp1011
I0
aI0
aI1
aI1
as(S'too'
p1012
S'bad'
p1013
tp1014
(lp1015
I0
aF2.0579700000000001
aI0
aI1
as(S'TIght/small'
p1016
S'working'
p1017
tp1018
(lp1019
I0
aI0
aI1
aI1
as(S'completely'
p1020
S'in-house'
p1021
tp1022
(lp1023
I0
aI0
aI1
aI1
as(S'not'
p1024
S'familiar'
p1025
tp1026
(lp1027
I0
aI0
aI1
aI1
as(S'different'
p1028
S'regulations'
p1029
tp1030
(lp1031
I0
aF1.0434800000000002
aI0
aI1
as(S'good'
p1032
S'training'
p1033
tp1034
(lp1035
I0
aF4.1449300000000004
aI0
aI3
as(S'clear'
p1036
S'vision'
p1037
tp1038
(lp1039
I0
aF1.0434800000000002
aI0
aI1
as(S'Many'
p1040
S'opportunities'
p1041
tp1042
(lp1043
I0
aF1.0434800000000002
aI0
aI1
as(S'poorly'
p1044
S'paid'
p1045
tp1046
(lp1047
I0
aI1
aI0
aI1
as(S'new'
p1048
S'stuff'
p1049
tp1050
(lp1051
I0
aI0
aF0.97101000000000015
aI1
as(S'slow'
p1052
S'salary'
p1053
tp1054
(lp1055
I0
aI0
aI1
aI1
as(S'retail'
p1056
S'stores'
p1057
tp1058
(lp1059
I0
aF2.0579700000000001
aI0
aI1
as(S'flexible'
p1060
S'hours'
p1061
tp1062
(lp1063
I0
aF7.1449300000000004
aF0.97101000000000015
aI5
as(S'negative'
p1064
S'news'
p1065
tp1066
(lp1067
I0
aI0
aI1
aI1
as(S'average'
p1068
S'salary'
p1069
tp1070
(lp1071
I0
aF2.0579700000000001
aI0
aI1
as(S'not'
p1072
S'changed'
p1073
tp1074
(lp1075
I0
aI0
aF0.97101000000000015
aI1
as(S'not'
p1076
S'perfect'
p1077
tp1078
(lp1079
I0
aF1.0434800000000002
aI0
aI1
as(S'senior'
p1080
S'manager'
p1081
tp1082
(lp1083
I0
aI1
aI1
aI2
as(S'Fantastic'
p1084
S'environment'
p1085
tp1086
(lp1087
I0
aF2.0579700000000001
aI0
aI1
as(S'constant'
p1088
S'schedule'
p1089
tp1090
(lp1091
I0
aI0
aI1
aI1
as(S'ever'
p1092
S'met'
p1093
tp1094
(lp1095
I0
aI0
aI1
aI1
as(S'too'
p1096
S'dragging'
p1097
tp1098
(lp1099
I0
aI0
aI1
aI1
as(S'lateral'
p1100
S'mobility'
p1101
tp1102
(lp1103
I0
aI1
aI0
aI1
as(S"n't"
p1104
S'find'
p1105
tp1106
(lp1107
I0
aI1
aI0
aI1
as(S'Various'
p1108
S'strategy'
p1109
tp1110
(lp1111
I0
aF2.0579700000000001
aI0
aI1
as(S'limited'
p1112
S'experience'
p1113
tp1114
(lp1115
I0
aI0
aI1
aI1
as(S'great'
p1116
S'health'
p1117
tp1118
(lp1119
I0
aI0
aF0.97101000000000015
aI1
as(S'great'
p1120
S'place'
p1121
tp1122
(lp1123
I0
aF8.1594200000000008
aI0
aI4
as(S"n't"
p1124
S'supportive'
p1125
tp1126
(lp1127
I0
aI0
aI1
aI1
as(S'economic'
p1128
S'downturn'
p1129
tp1130
(lp1131
I0
aI0
aI1
aI1
as(S"n't"
p1132
S'push'
p1133
tp1134
(lp1135
I0
aI0
aI1
aI1
as(S'only'
p1136
S'knew'
p1137
tp1138
(lp1139
I0
aF3.0
aI0
aI1
as(S'very'
p1140
S'flexible'
p1141
tp1142
(lp1143
I0
aF3.1014500000000003
aI0
aI2
as(S'good'
p1144
S'work-life'
p1145
tp1146
(lp1147
I0
aF2.0869600000000004
aI0
aI2
as(S'additional'
p1148
S'compensations'
p1149
tp1150
(lp1151
I0
aI0
aI1
aI1
as(S'high'
p1152
S'talent'
p1153
tp1154
(lp1155
I0
aI0
aI1
aI1
as(S'not'
p1156
S'premote'
p1157
tp1158
(lp1159
I0
aI1
aI0
aI1
as(S'always'
p1160
S'good'
p1161
tp1162
(lp1163
I0
aI0
aF0.97101000000000015
aI1
as(S'comfortable'
p1164
S'living'
p1165
tp1166
(lp1167
I0
aF2.0579700000000001
aI0
aI1
as(S'namely'
p1168
S'computing'
p1169
tp1170
(lp1171
I0
aF1.0434800000000002
aI0
aI1
as(S'other'
p1172
S'employers'
p1173
tp1174
(lp1175
I0
aF2.0579700000000001
aI0
aI1
as(S'many'
p1176
S'chiefs'
p1177
tp1178
(lp1179
I0
aF1.0434800000000002
aI0
aI1
as(S'such'
p1180
S'experiences'
p1181
tp1182
(lp1183
I0
aI0
aI1
aI1
as(S'many'
p1184
S'circumstances'
p1185
tp1186
(lp1187
I0
aF2.0579700000000001
aI0
aI1
as(S'ever'
p1188
S'worked'
p1189
tp1190
(lp1191
I0
aF3.0
aI0
aI1
as(S'great'
p1192
S'systems'
p1193
tp1194
(lp1195
I0
aF1.0434800000000002
aI0
aI1
as(S'primary'
p1196
S'decision-making'
p1197
tp1198
(lp1199
I0
aI0
aI1
aI1
as(S'something'
p1200
S'new'
p1201
tp1202
(lp1203
I0
aF6.0
aI0
aI2
as(S'4-day'
p1204
S'work'
p1205
tp1206
(lp1207
I0
aF1.0434800000000002
aI0
aI1
as(S'many'
p1208
S'years'
p1209
tp1210
(lp1211
I0
aI0
aI1
aI1
as(S'not'
p1212
S'increase'
p1213
tp1214
(lp1215
I0
aI1
aI0
aI1
as(S'many'
p1216
S'policies'
p1217
tp1218
(lp1219
I0
aI0
aI1
aI1
as(S"n't"
p1220
S'use'
p1221
tp1222
(lp1223
I0
aI0
aF1.9855100000000001
aI1
as(S"n't"
p1224
S'do'
p1225
tp1226
(lp1227
I0
aI0
aI1
aI1
as(S'upper'
p1228
S'ranks'
p1229
tp1230
(lp1231
I0
aF2.0579700000000001
aI0
aI1
as(S'not'
p1232
S'go'
p1233
tp1234
(lp1235
I0
aI0
aI1
aI1
as(S'large'
p1236
S'systems'
p1237
tp1238
(lp1239
I0
aI0
aF0.97101000000000015
aI1
as(S'generally'
p1240
S'proud'
p1241
tp1242
(lp1243
I0
aF1.0434800000000002
aI0
aI1
as(S'senior'
p1244
S'leadership'
p1245
tp1246
(lp1247
I0
aI0
aI1
aI1
as(S'outside'
p1248
S'oblagations'
p1249
tp1250
(lp1251
I0
aF2.0579700000000001
aI0
aI1
as(S'too'
p1252
S'hierarchi'
p1253
tp1254
(lp1255
I0
aF1.0434800000000002
aI0
aI1
as(S'quantitative'
p1256
S'factor'
p1257
tp1258
(lp1259
I0
aI0
aI1
aI1
as(S'high'
p1260
S'energy'
p1261
tp1262
(lp1263
I0
aF3.0
aI0
aI1
as(S'short'
p1264
S'period'
p1265
tp1266
(lp1267
I0
aI0
aI1
aI1
as(S'wonderful'
p1268
S'place'
p1269
tp1270
(lp1271
I0
aF1.0434800000000002
aI0
aI1
as(S'retail'
p1272
S'portion'
p1273
tp1274
(lp1275
I0
aI0
aI1
aI1
as(S'great'
p1276
S'store'
p1277
tp1278
(lp1279
I0
aF1.0434800000000002
aI0
aI1
as(S'great'
p1280
S'work'
p1281
tp1282
(lp1283
I0
aF2.0579700000000001
aI0
aI1
as(S'constant'
p1284
S'access'
p1285
tp1286
(lp1287
I0
aF2.0579700000000001
aI0
aI1
as(S'very'
p1288
S'boring'
p1289
tp1290
(lp1291
I0
aI0
aI1
aI1
as(S'formal'
p1292
S'education'
p1293
tp1294
(lp1295
I0
aF1.0434800000000002
aI0
aI1
as(S'good'
p1296
S'manager'
p1297
tp1298
(lp1299
I0
aF2.0579700000000001
aF0.97101000000000015
aI2
as(S'constantly'
p1300
S'threatened'
p1301
tp1302
(lp1303
I0
aF1.0434800000000002
aI0
aI1
as(S'male'
p1304
S'managers'
p1305
tp1306
(lp1307
I0
aI0
aI1
aI1
as(S'many'
p1308
S'supervisors'
p1309
tp1310
(lp1311
I0
aI1
aI0
aI1
as(S'them.I'
p1312
S'think'
p1313
tp1314
(lp1315
I0
aI1
aI0
aI1
as(S'long'
p1316
S'time'
p1317
tp1318
(lp1319
I0
aI0
aF2.9710100000000002
aI3
as(S'strong'
p1320
S'skill'
p1321
tp1322
(lp1323
I0
aI0
aF0.97101000000000015
aI1
as(S'partly'
p1324
S'dictated'
p1325
tp1326
(lp1327
I0
aI1
aI0
aI1
as(S'great'
p1328
S'compensation'
p1329
tp1330
(lp1331
I0
aF2.0579700000000001
aI0
aI1
as(S'sucks'
p1332
S'bad'
p1333
tp1334
(lp1335
I0
aI0
aI1
aI1
as(S'are'
p1336
S'nice'
p1337
tp1338
(lp1339
I0
aI0
aF0.97101000000000015
aI1
as(S'poor'
p1340
S'management'
p1341
tp1342
(lp1343
I0
aF3.1014500000000003
aF0.97101000000000015
aI3
as(S'('
p1344
S'i.e'
p1345
tp1346
(lp1347
I0
aI0
aF0.97101000000000015
aI1
as(S'different'
p1348
S'jobs'
p1349
tp1350
(lp1351
I0
aF1.0434800000000002
aI0
aI1
as(S'other'
p1352
S'bank'
p1353
tp1354
(lp1355
I0
aI0
aF0.97101000000000015
aI1
as(S'retail'
p1356
S'side'
p1357
tp1358
(lp1359
I0
aI0
aI2
aI2
as(S'potential'
p1360
S'bonus'
p1361
tp1362
(lp1363
I0
aF3.0
aI0
aI1
as(S'actual'
p1364
S'company'
p1365
tp1366
(lp1367
I0
aI0
aI1
aI1
as(S'pretty'
p1368
S'flexible'
p1369
tp1370
(lp1371
I0
aF2.0579700000000001
aI0
aI1
as(S'Corporate'
p1372
S'benefits'
p1373
tp1374
(lp1375
I0
aF2.0579700000000001
aI0
aI1
as(S'overall'
p1376
S'departmentalize'
p1377
tp1378
(lp1379
I0
aI0
aI1
aI1
as(S'cool'
p1380
S'manager'
p1381
tp1382
(lp1383
I0
aF2.0579700000000001
aI0
aI1
as(S'tough'
p1384
S'profit'
p1385
tp1386
(lp1387
I0
aI0
aI1
aI1
as(S'-Great'
p1388
S'team'
p1389
tp1390
(lp1391
I0
aF2.0579700000000001
aI0
aI1
as(S'own'
p1392
S'pacequot'
p1393
tp1394
(lp1395
I0
aF3.0
aI0
aI1
as(S'lifelong'
p1396
S'friends'
p1397
tp1398
(lp1399
I0
aI0
aF2.9565200000000003
aI2
as(S'similar'
p1400
S'positions'
p1401
tp1402
(lp1403
I0
aI0
aI1
aI1
as(S'good'
p1404
S'benefit'
p1405
tp1406
(lp1407
I0
aF1.0434800000000002
aF0.97101000000000015
aI2
as(g142
S'such'
p1408
tp1409
(lp1410
I0
aF1.0434800000000002
aI0
aI1
as(S'add'
p1411
S'expenses'
p1412
tp1413
(lp1414
I0
aI0
aF1.9855100000000001
aI1
as(S'corporate'
p1415
S'strategy'
p1416
tp1417
(lp1418
I0
aF1.0434800000000002
aI0
aI1
as(S'not'
p1419
S'employee'
p1420
tp1421
(lp1422
I0
aI0
aF0.97101000000000015
aI1
as(S'not'
p1423
S'renowned'
p1424
tp1425
(lp1426
I0
aI0
aI1
aI1
as(S'conservative'
p1427
S'risk'
p1428
tp1429
(lp1430
I0
aF2.0579700000000001
aI0
aI1
as(S'enough'
p1431
S'work'
p1432
tp1433
(lp1434
I0
aI0
aI1
aI1
as(S'great'
p1435
S'networking'
p1436
tp1437
(lp1438
I0
aF2.0579700000000001
aI0
aI1
as(S'new'
p1439
S'technology'
p1440
tp1441
(lp1442
I0
aF2.0579700000000001
aF0.97101000000000015
aI2
as(S'never'
p1443
S'satisfied'
p1444
tp1445
(lp1446
I0
aI0
aI1
aI1
as(S'own'
p1447
S'department'
p1448
tp1449
(lp1450
I0
aI0
aF0.97101000000000015
aI1
as(S'short'
p1451
S'term'
p1452
tp1453
(lp1454
I0
aF1.0434800000000002
aI1
aI2
as(S'individual'
p1455
S'growth'
p1456
tp1457
(lp1458
I0
aF3.0
aI0
aI1
as(S'executive'
p1459
S'turnover'
p1460
tp1461
(lp1462
I0
aI0
aI1
aI1
as(S'different'
p1463
S'numbers'
p1464
tp1465
(lp1466
I0
aI0
aI1
aI1
as(S'innovative'
p1467
S'products'
p1468
tp1469
(lp1470
I0
aI0
aF0.97101000000000015
aI1
as(S'most'
p1471
S'admired'
p1472
tp1473
(lp1474
I0
aF1.0434800000000002
aI0
aI1
as(S'new'
p1475
S'technologies'
p1476
tp1477
(lp1478
I0
aF2.0579700000000001
aI0
aI1
as(g853
S'detrimental'
p1479
tp1480
(lp1481
I0
aI0
aI1
aI1
as(S"n't"
p1482
S'take'
p1483
tp1484
(lp1485
I0
aI0
aF1.9855100000000001
aI1
as(S'major'
p1486
S'delays'
p1487
tp1488
(lp1489
I0
aI0
aI1
aI1
as(S'French'
p1490
g1344
tp1491
(lp1492
I0
aI0
aI1
aI1
as(S'high'
p1493
S'turnover'
p1494
tp1495
(lp1496
I0
aI0
aI1
aI1
as(S'many'
p1497
S'people'
p1498
tp1499
(lp1500
I0
aF4.0
aF3.9565200000000003
aI5
as(S'certain'
p1501
S'departments'
p1502
tp1503
(lp1504
I0
aI0
aI1
aI1
as(S'personal'
p1505
S'life'
p1506
tp1507
(lp1508
I0
aF1.0434800000000002
aI1
aI2
as(S'Financial'
p1509
S'services'
p1510
tp1511
(lp1512
I0
aF1.0434800000000002
aI0
aI1
as(S'broad'
p1513
S'arrangement'
p1514
tp1515
(lp1516
I0
aF2.0579700000000001
aI0
aI1
as(S'Poorly'
p1517
S'managed'
p1518
tp1519
(lp1520
I0
aI1
aF1.9855100000000001
aI2
as(S'accessible'
p1521
S'leadership'
p1522
tp1523
(lp1524
I0
aF2.0579700000000001
aI0
aI1
as(S'continuous'
p1525
S'pay'
p1526
tp1527
(lp1528
I0
aI1
aI0
aI1
as(S'many'
p1529
S'changes'
p1530
tp1531
(lp1532
I0
aI0
aI1
aI1
as(S'geographic'
p1533
S'locations'
p1534
tp1535
(lp1536
I0
aF3.0
aI0
aI1
as(S'large'
p1537
S'corporation'
p1538
tp1539
(lp1540
I0
aF1.0434800000000002
aI0
aI1
as(S'extremely'
p1541
S'knowledgable'
p1542
tp1543
(lp1544
I0
aF2.0579700000000001
aI0
aI1
as(S'human'
p1545
S'level'
p1546
tp1547
(lp1548
I0
aI0
aI1
aI1
as(S'Always'
p1549
S'changing'
p1550
tp1551
(lp1552
I0
aI0
aI1
aI1
as(S'too'
p1553
S'focused'
p1554
tp1555
(lp1556
I0
aI0
aI1
aI1
as(S'other'
p1557
S'divisions'
p1558
tp1559
(lp1560
I0
aI1
aI0
aI1
as(S'making/closing'
p1561
S'sales'
p1562
tp1563
(lp1564
I0
aI0
aI1
aI1
as(S'corporate'
p1565
S'structure'
p1566
tp1567
(lp1568
I0
aF2.0579700000000001
aI0
aI1
as(S"n't"
p1569
S'speak'
p1570
tp1571
(lp1572
I0
aI0
aI1
aI1
as(S'current'
p1573
S'business'
p1574
tp1575
(lp1576
I0
aI2
aI0
aI2
as(S'work/life'
p1577
S'balance'
p1578
tp1579
(lp1580
I0
aF3.0
aI0
aI1
as(S'constantly'
p1581
S'learning'
p1582
tp1583
(lp1584
I0
aF2.0579700000000001
aI0
aI1
as(S'lifestyle'
p1585
S'flexible'
p1586
tp1587
(lp1588
I0
aF3.0
aI0
aI1
as(S'terrible'
p1589
S')'
p1590
tp1591
(lp1592
I0
aI1
aI0
aI1
as(S'different'
p1593
S'departments'
p1594
tp1595
(lp1596
I0
aF2.0579700000000001
aI0
aI1
as(S'good'
p1597
S'benefits'
p1598
tp1599
(lp1600
I0
aF23.521750000000004
aF1.9855100000000001
aI15
as(S'always'
p1601
S'turbulent'
p1602
tp1603
(lp1604
I0
aF1.0434800000000002
aI0
aI1
as(S'overall'
p1605
S'experience'
p1606
tp1607
(lp1608
I0
aF1.0434800000000002
aI0
aI1
as(S'Work-life'
p1609
S'balance'
p1610
tp1611
(lp1612
I0
aF1.0434800000000002
aI0
aI1
as(S'many'
p1613
S'layers'
p1614
tp1615
(lp1616
I0
aI0
aI2
aI2
as(S'definitely'
p1617
S'superior'
p1618
tp1619
(lp1620
I0
aI1
aI0
aI1
as(S'different'
p1621
S'opportunities'
p1622
tp1623
(lp1624
I0
aF2.0579700000000001
aI0
aI1
as(S'way'
p1625
S'possible'
p1626
tp1627
(lp1628
I0
aF3.0
aI0
aI1
as(S'quick'
p1629
S'hiring'
p1630
tp1631
(lp1632
I0
aI0
aF0.97101000000000015
aI1
as(S'Terrible'
p1633
S'support'
p1634
tp1635
(lp1636
I0
aI0
aI1
aI1
as(S'negative'
p1637
S'aspects'
p1638
tp1639
(lp1640
I0
aI0
aI1
aI1
as(S'still'
p1641
S'treat'
p1642
tp1643
(lp1644
I0
aF1.0434800000000002
aI0
aI1
as(S'friendly'
p1645
S'employees'
p1646
tp1647
(lp1648
I0
aF3.0
aI0
aI1
as(S'technical'
p1649
S'support'
p1650
tp1651
(lp1652
I0
aF2.0579700000000001
aI0
aI1
as(S'eventually'
p1653
S'leaving'
p1654
tp1655
(lp1656
I0
aI0
aI1
aI1
as(S'even'
p1657
S'start'
p1658
tp1659
(lp1660
I0
aI0
aI1
aI1
as(S'Too'
p1661
S'many'
p1662
tp1663
(lp1664
I0
aI1
aI1
aI2
as(S'profitable'
p1665
S'company'
p1666
tp1667
(lp1668
I0
aF1.0434800000000002
aI0
aI1
as(S'other'
p1669
S'employees'
p1670
tp1671
(lp1672
I0
aF2.0579700000000001
aI0
aI1
as(S'main'
p1673
S'attractions'
p1674
tp1675
(lp1676
I0
aF2.0579700000000001
aI0
aI1
as(S'few'
p1677
S'opportunities'
p1678
tp1679
(lp1680
I0
aF1.0434800000000002
aI0
aI1
as(S'self-serving'
p1681
S'agendas'
p1682
tp1683
(lp1684
I0
aI0
aI1
aI1
as(S'many'
p1685
S'control'
p1686
tp1687
(lp1688
I0
aF1.0434800000000002
aI0
aI1
as(S'local'
p1689
S'branches'
p1690
tp1691
(lp1692
I0
aI0
aI1
aI1
as(S'great'
p1693
S'friends'
p1694
tp1695
(lp1696
I0
aF3.0
aI0
aI1
as(S'Spectacular'
p1697
S'benefits'
p1698
tp1699
(lp1700
I0
aF3.0
aI0
aI1
as(S"n't"
p1701
S'pay'
p1702
tp1703
(lp1704
I0
aI0
aI1
aI1
as(S'more'
p1705
S'enjoyable'
p1706
tp1707
(lp1708
I0
aF3.0
aI0
aI1
as(S'well'
p1709
S'run'
p1710
tp1711
(lp1712
I0
aI0
aI1
aI1
as(S'acceptable'
p1713
S'place'
p1714
tp1715
(lp1716
I0
aF1.0434800000000002
aI0
aI1
as(S'unfair'
p1717
S'advantage'
p1718
tp1719
(lp1720
I0
aI0
aI1
aI1
as(S'wear'
p1721
S'inform'
p1722
tp1723
(lp1724
I0
aI0
aI1
aI1
as(S'upper'
p1725
S'management'
p1726
tp1727
(lp1728
I0
aI1
aI3
aI4
as(S'verbal'
p1729
S'abuse'
p1730
tp1731
(lp1732
I0
aI1
aI0
aI1
as(S'Many'
p1733
S'employees'
p1734
tp1735
(lp1736
I0
aI0
aI1
aI1
as(S'fundamental'
p1737
S'training'
p1738
tp1739
(lp1740
I0
aI0
aF0.97101000000000015
aI1
as(S'Technical'
p1741
S'Sales'
p1742
tp1743
(lp1744
I0
aF2.0579700000000001
aI0
aI1
as(S'-Ignorant/impatient/rude'
p1745
S'customers'
p1746
tp1747
(lp1748
I0
aI0
aI1
aI1
as(S'full'
p1749
S'time'
p1750
tp1751
(lp1752
I0
aF1.0434800000000002
aI0
aI1
as(S'real'
p1753
S'dedication'
p1754
tp1755
(lp1756
I0
aI0
aI1
aI1
as(S'good'
p1757
S'job'
p1758
tp1759
(lp1760
I0
aF2.0579700000000001
aI1
aI2
as(S'irregular'
p1761
S'hours'
p1762
tp1763
(lp1764
I0
aI0
aI1
aI1
as(S'most'
p1765
S'beneficial'
p1766
tp1767
(lp1768
I0
aF3.0
aI0
aI1
as(S'large-scale'
p1769
S'projects'
p1770
tp1771
(lp1772
I0
aF3.0
aI0
aI1
as(S'tremendous'
p1773
S'benefit'
p1774
tp1775
(lp1776
I0
aF1.0434800000000002
aI0
aI1
as(S'late'
p1777
S'payments'
p1778
tp1779
(lp1780
I0
aI0
aI1
aI1
as(S'not'
p1781
S'easy'
p1782
tp1783
(lp1784
I0
aF1.0434800000000002
aI0
aI1
as(S'additional'
p1785
S'effort'
p1786
tp1787
(lp1788
I0
aI0
aI1
aI1
as(S'too'
p1789
S'corporate'
p1790
tp1791
(lp1792
I0
aI0
aI1
aI1
as(S'good'
p1793
S'incentive'
p1794
tp1795
(lp1796
I0
aF2.0579700000000001
aI0
aI1
as(S'top'
p1797
S'tiers'
p1798
tp1799
(lp1800
I0
aI0
aI1
aI1
as(S'high'
p1801
S'compensation'
p1802
tp1803
(lp1804
I0
aI0
aF1.9855100000000001
aI1
as(S'not'
p1805
S'encourage'
p1806
tp1807
(lp1808
I0
aI1
aI0
aI1
as(S'particular'
p1809
S'dept'
p1810
tp1811
(lp1812
I0
aF3.0
aI0
aI1
as(S'retail'
p1813
S'employees'
p1814
tp1815
(lp1816
I0
aI0
aI1
aI1
as(S'Unmatched'
p1817
S'suite'
p1818
tp1819
(lp1820
I0
aI0
aF0.97101000000000015
aI1
as(S'mostly'
p1821
S'lateral'
p1822
tp1823
(lp1824
I0
aF1.0434800000000002
aI0
aI1
as(S'recent'
p1825
S'graduates'
p1826
tp1827
(lp1828
I0
aI0
aF0.97101000000000015
aI1
as(S'unrealistic'
p1829
S'sales'
p1830
tp1831
(lp1832
I0
aI0
aI1
aI1
as(S'expensive'
p1833
S'cafeteria,'
p1834
tp1835
(lp1836
I0
aI0
aI1
aI1
as(S'global'
p1837
S'counterparts'
p1838
tp1839
(lp1840
I0
aF1.0434800000000002
aI0
aI1
as(S'not'
p1841
S'appreciate'
p1842
tp1843
(lp1844
I0
aI0
aF1.9710100000000002
aI2
as(S'more'
p1845
S'complicated'
p1846
tp1847
(lp1848
I0
aI0
aI1
aI1
as(S'high'
p1849
S'visibility'
p1850
tp1851
(lp1852
I0
aF2.0579700000000001
aI0
aI1
as(S'bad'
p1853
S'location'
p1854
tp1855
(lp1856
I0
aI0
aI1
aI1
as(S'intern'
p1857
S'activities'
p1858
tp1859
(lp1860
I0
aI0
aI1
aI1
as(S'compartmentalized'
p1861
S'culture'
p1862
tp1863
(lp1864
I0
aI0
aI1
aI1
as(S'other'
p1865
S'technology'
p1866
tp1867
(lp1868
I0
aI0
aI1
aI1
as(S'Junior-level'
p1869
S'pay'
p1870
tp1871
(lp1872
I0
aI0
aI1
aI1
as(S'good'
p1873
S'salary'
p1874
tp1875
(lp1876
I0
aF1.0434800000000002
aI0
aI1
as(S'able'
p1877
g1344
tp1878
(lp1879
I0
aF2.0579700000000001
aI0
aI1
as(S'casual'
p1880
S'workplace'
p1881
tp1882
(lp1883
I0
aI0
aF0.97101000000000015
aI1
as(S'good'
p1884
g1344
tp1885
(lp1886
I0
aI0
aF0.97101000000000015
aI1
as(S'Repetitive'
p1887
S'work'
p1888
tp1889
(lp1890
I0
aI0
aI1
aI1
as(S'creative'
p1891
S'people'
p1892
tp1893
(lp1894
I0
aF1.0434800000000002
aI0
aI1
as(S'4-day'
p1895
S'workweek'
p1896
tp1897
(lp1898
I0
aF1.0434800000000002
aI0
aI1
as(S'social'
p1899
S'work'
p1900
tp1901
(lp1902
I0
aF2.0579700000000001
aI0
aI1
as(S"n't"
p1903
S'go'
p1904
tp1905
(lp1906
I0
aI0
aI1
aI1
as(S'bad'
p1907
S'place'
p1908
tp1909
(lp1910
I0
aF5.1594200000000008
aF0.97101000000000015
aI4
as(S'solid'
p1911
S'strategy'
p1912
tp1913
(lp1914
I0
aI0
aI1
aI1
as(S'so'
p1915
S'large'
p1916
tp1917
(lp1918
I0
aI0
aI1
aI1
as(S'regional'
p1919
S'level'
p1920
tp1921
(lp1922
I0
aI0
aI1
aI1
as(S'Stable'
p1923
S'company'
p1924
tp1925
(lp1926
I0
aF1.0434800000000002
aI0
aI1
as(S'organizational'
p1927
S'culture'
p1928
tp1929
(lp1930
I0
aF3.0
aI0
aI1
as(S'Not'
p1931
S'willing'
p1932
tp1933
(lp1934
I0
aI0
aI1
aI1
as(S'cult-like'
p1935
S'place'
p1936
tp1937
(lp1938
I0
aI0
aF1.9855100000000001
aI1
as(S'minor'
p1939
S'drawbacks'
p1940
tp1941
(lp1942
I0
aF1.0434800000000002
aI0
aI1
as(S"n't"
p1943
S'have'
p1944
tp1945
(lp1946
I0
aI0
aI4
aI4
as(S'very'
p1947
S'solid'
p1948
tp1949
(lp1950
I0
aF2.0579700000000001
aI0
aI1
as(S'Direct'
p1951
S'supervisors'
p1952
tp1953
(lp1954
I0
aF1.0434800000000002
aI0
aI1
as(S'not'
p1955
S'promising'
p1956
tp1957
(lp1958
I0
aF1.0434800000000002
aI0
aI1
as(S'big'
p1959
S'companies'
p1960
tp1961
(lp1962
I0
aI0
aI1
aI1
as(S'fantastic'
p1963
S'resume'
p1964
tp1965
(lp1966
I0
aF1.0434800000000002
aI0
aI1
as(S'Not'
p1967
S'flexible'
p1968
tp1969
(lp1970
I0
aI0
aI1
aI1
as(S'financial'
p1971
S'businesses'
p1972
tp1973
(lp1974
I0
aF1.0434800000000002
aI0
aI1
as(S'free'
p1975
S't-shirts'
p1976
tp1977
(lp1978
I0
aI0
aF1.9855100000000001
aI1
as(S'Large'
p1979
S'corporation'
p1980
tp1981
(lp1982
I0
aF1.0434800000000002
aI0
aI1
as(S'technical'
p1983
S'knowledge'
p1984
tp1985
(lp1986
I0
aF3.0579700000000001
aI0
aI2
as(S'company'
p1987
S'due'
p1988
tp1989
(lp1990
I0
aI0
aI1
aI1
as(S'high'
p1991
S'standards'
p1992
tp1993
(lp1994
I0
aF3.0
aI0
aI1
as(S'many'
p1995
S'things'
p1996
tp1997
(lp1998
I0
aF1.0434800000000002
aI1
aI2
as(S'internal'
p1999
S'opportunities'
p2000
tp2001
(lp2002
I0
aF2.0579700000000001
aI0
aI1
as(S'much'
p2003
S'room'
p2004
tp2005
(lp2006
I0
aI0
aI1
aI1
as(S'not'
p2007
S'apply'
p2008
tp2009
(lp2010
I0
aI0
aI1
aI1
as(S'great'
p2011
S'customer'
p2012
tp2013
(lp2014
I0
aI0
aF0.97101000000000015
aI1
as(S'too'
p2015
S'nice'
p2016
tp2017
(lp2018
I0
aI0
aI1
aI1
as(S'yet'
p2019
S'time-consuming'
p2020
tp2021
(lp2022
I0
aF1.0434800000000002
aI0
aI1
as(S'always'
p2023
S'willing'
p2024
tp2025
(lp2026
I0
aF3.0
aI0
aI1
as(S'other'
p2027
S'firms'
p2028
tp2029
(lp2030
I0
aI0
aI2
aI2
as(S'Strong'
p2031
S'debt'
p2032
tp2033
(lp2034
I0
aF2.0579700000000001
aI0
aI1
as(S'not'
p2035
S'great'
p2036
tp2037
(lp2038
I0
aI0
aF3.9855100000000001
aI3
as(S'great'
p2039
S'people'
p2040
tp2041
(lp2042
I0
aF16.275370000000002
aI0
aI9
as(S'actually'
p2043
S'get'
p2044
tp2045
(lp2046
I0
aI0
aI1
aI1
as(S'impossible'
p2047
S'describe'
p2048
tp2049
(lp2050
I0
aF3.0
aI0
aI1
as(S'ever'
p2051
S'feeling'
p2052
tp2053
(lp2054
I0
aF3.0
aI0
aI1
as(S'firm-wide'
p2055
S'vision'
p2056
tp2057
(lp2058
I0
aF1.0434800000000002
aI0
aI1
as(S'own'
p2059
S'employees'
p2060
tp2061
(lp2062
I0
aI1
aI0
aI1
as(S'Flexible'
p2063
S'environment'
p2064
tp2065
(lp2066
I0
aF2.0579700000000001
aI0
aI1
as(S'corporate'
p2067
S'management'
p2068
tp2069
(lp2070
I0
aI0
aI1
aI1
as(S'European'
p2071
S'culture'
p2072
tp2073
(lp2074
I0
aF2.0579700000000001
aI0
aI1
as(S'Too'
p2075
S'big'
p2076
tp2077
(lp2078
I0
aI0
aI1
aI1
as(S'Economic'
p2079
S'climate'
p2080
tp2081
(lp2082
I0
aI0
aI1
aI1
as(S'few'
p2083
S'management'
p2084
tp2085
(lp2086
I0
aI0
aI1
aI1
as(S'only'
p2087
S'interested'
p2088
tp2089
(lp2090
I0
aI0
aI1
aI1
as(S'terrible'
p2091
S'company'
p2092
tp2093
(lp2094
I0
aI0
aF0.97101000000000015
aI1
as(S'very'
p2095
S'rude'
p2096
tp2097
(lp2098
I0
aI0
aI1
aI1
as(S'Ridiculous'
p2099
S'salary'
p2100
tp2101
(lp2102
I0
aI1
aI0
aI1
as(S'different'
p2103
S'personalities'
p2104
tp2105
(lp2106
I0
aI0
aI1
aI1
as(S'Flexible'
p2107
S'schedule'
p2108
tp2109
(lp2110
I0
aF1.0434800000000002
aI0
aI1
as(S'unbelievably'
p2111
S'rude'
p2112
tp2113
(lp2114
I0
aI1
aI0
aI1
as(S'difficult'
p2115
S'move'
p2116
tp2117
(lp2118
I0
aI0
aI1
aI1
as(S'good'
p2119
S'entry'
p2120
tp2121
(lp2122
I0
aF1.0434800000000002
aI0
aI1
as(S'reasonable'
p2123
S'mission'
p2124
tp2125
(lp2126
I0
aF2.0579700000000001
aI0
aI1
as(S'ongoing'
p2127
S'training'
p2128
tp2129
(lp2130
I0
aF1.0434800000000002
aI0
aI1
as(S'manner'
p2131
S'similar'
p2132
tp2133
(lp2134
I0
aI1
aI0
aI1
as(S'ever-increasing'
p2135
S'drive'
p2136
tp2137
(lp2138
I0
aI0
aI1
aI1
as(S'many'
p2139
S'positions'
p2140
tp2141
(lp2142
I0
aI0
aI1
aI1
as(S'-Slow'
p2143
S'Summers'
p2144
tp2145
(lp2146
I0
aI0
aI1
aI1
as(S'not'
p2147
S'good'
p2148
tp2149
(lp2150
I0
aI0
aI1
aI1
as(S'next'
p2151
S'reduction'
p2152
tp2153
(lp2154
I0
aI1
aI0
aI1
as(S'second'
p2155
S'shift'
p2156
tp2157
(lp2158
I0
aF1.0434800000000002
aI0
aI1
as(S'very'
p2159
S'fair'
p2160
tp2161
(lp2162
I0
aI0
aF0.97101000000000015
aI1
as(S'social'
p2163
S'aspect'
p2164
tp2165
(lp2166
I0
aI0
aI1
aI1
as(S'very'
p2167
S'stressful'
p2168
tp2169
(lp2170
I0
aF1.0434800000000002
aI1
aI2
as(S'financial'
p2171
S'institutions'
p2172
tp2173
(lp2174
I0
aF2.0579700000000001
aI0
aI1
as(S'Overly'
p2175
S'conservative'
p2176
tp2177
(lp2178
I0
aI0
aI1
aI1
as(S'international'
p2179
S'bank'
p2180
tp2181
(lp2182
I0
aF2.0579700000000001
aI0
aI1
as(S'however'
p2183
S'balanced'
p2184
tp2185
(lp2186
I0
aI0
aF0.97101000000000015
aI1
as(S'Strong'
p2187
S'Brands'
p2188
tp2189
(lp2190
I0
aF2.0579700000000001
aI0
aI1
as(S'very'
p2191
S'common'
p2192
tp2193
(lp2194
I0
aI0
aI1
aI1
as(S'very'
p2195
S'inconsistent'
p2196
tp2197
(lp2198
I0
aI0
aF0.97101000000000015
aI1
as(S'generally'
p2199
S'understanding'
p2200
tp2201
(lp2202
I0
aF2.0579700000000001
aI0
aI1
as(S'Not'
p2203
S'welcoming'
p2204
tp2205
(lp2206
I0
aI0
aI1
aI1
as(S'supportive'
p2207
S'environment'
p2208
tp2209
(lp2210
I0
aF2.0579700000000001
aI0
aI1
as(S'huge'
p2211
S'company'
p2212
tp2213
(lp2214
I0
aI0
aI1
aI1
as(S'little'
p2215
S'room'
p2216
tp2217
(lp2218
I0
aF1.0434800000000002
aI0
aI1
as(S'own'
p2219
S'tools'
p2220
tp2221
(lp2222
I0
aI0
aI1
aI1
as(S'Not'
p2223
S'given'
p2224
tp2225
(lp2226
I0
aI0
aI1
aI1
as(S'individual'
p2227
S'employee'
p2228
tp2229
(lp2230
I0
aI0
aI1
aI1
as(S'too'
p2231
S'boring'
p2232
tp2233
(lp2234
I0
aF1.0434800000000002
aI0
aI1
as(S'very'
p2235
S'inefficient'
p2236
tp2237
(lp2238
I0
aI0
aI1
aI1
as(S"n't"
p2239
S'see'
p2240
tp2241
(lp2242
I0
aI0
aI1
aI1
as(S'Reasonable'
p2243
S'production'
p2244
tp2245
(lp2246
I0
aF3.0
aI0
aI1
as(S'useful'
p2247
S'skill'
p2248
tp2249
(lp2250
I0
aF1.0434800000000002
aI0
aI1
as(S'many'
p2251
S'functions'
p2252
tp2253
(lp2254
I0
aI0
aI1
aI1
as(S'normal'
p2255
S'retail'
p2256
tp2257
(lp2258
I0
aI0
aI1
aI1
as(S'first'
p2259
S'experience'
p2260
tp2261
(lp2262
I0
aF1.0434800000000002
aI0
aI1
as(S'skilled'
p2263
S'positions'
p2264
tp2265
(lp2266
I0
aI1
aI0
aI1
as(S'High'
p2267
S'Stress'
p2268
tp2269
(lp2270
I0
aI0
aI1
aI1
as(S'-Workable'
p2271
g553
tp2272
(lp2273
I0
aF2.0579700000000001
aI0
aI1
as(S'little'
p2274
S'movemoent'
p2275
tp2276
(lp2277
I0
aF1.0434800000000002
aI0
aI1
as(S'great'
p2278
S'vacation'
p2279
tp2280
(lp2281
I0
aF1.0434800000000002
aI0
aI1
as(S'own'
p2282
g1344
tp2283
(lp2284
I0
aI1
aI0
aI1
as(S'many'
p2285
S'places'
p2286
tp2287
(lp2288
I0
aF1.0434800000000002
aI0
aI1
as(S'onsite'
p2289
S'gym'
p2290
tp2291
(lp2292
I0
aF1.0434800000000002
aI0
aI1
as(S'free'
p2293
S'products'
p2294
tp2295
(lp2296
I0
aI0
aF0.97101000000000015
aI1
as(S'employees'
p2297
S'other'
p2298
tp2299
(lp2300
I0
aI0
aI1
aI1
as(S'retail'
p2301
S'veterans'
p2302
tp2303
(lp2304
I0
aF1.0434800000000002
aI0
aI1
as(S'periods'
p2305
S'due'
p2306
tp2307
(lp2308
I0
aI0
aI1
aI1
as(S'casual'
p2309
S'environment'
p2310
tp2311
(lp2312
I0
aF2.0579700000000001
aI0
aI1
as(S'good'
p2313
S'work/life'
p2314
tp2315
(lp2316
I0
aF3.1014500000000003
aI0
aI2
as(S'Horrible'
p2317
S'morale'
p2318
tp2319
(lp2320
I0
aI0
aI1
aI1
as(S'never'
p2321
S'been'
p2322
tp2323
(lp2324
I0
aF3.0
aI0
aI1
as(S'direct'
p2325
S'management'
p2326
tp2327
(lp2328
I0
aI0
aI1
aI1
as(S'just'
p2329
S'wish'
p2330
tp2331
(lp2332
I0
aF2.0579700000000001
aI0
aI1
as(S'very'
p2333
S'difficult'
p2334
tp2335
(lp2336
I0
aI0
aI2
aI2
as(S'very'
p2337
S'clear'
p2338
tp2339
(lp2340
I0
aI0
aI1
aI1
as(S'not'
p2341
S'French'
p2342
tp2343
(lp2344
I0
aI1
aI1
aI2
as(S'good'
p2345
S'compensation'
p2346
tp2347
(lp2348
I0
aF2.0579700000000001
aI0
aI1
as(S'Benefits'
p2349
S'such'
p2350
tp2351
(lp2352
I0
aF2.0579700000000001
aI0
aI1
as(S'not'
p2353
S'want'
p2354
tp2355
(lp2356
I0
aF2.0579700000000001
aI0
aI1
as(S'stressful'
p2357
S'place'
p2358
tp2359
(lp2360
I0
aF1.0434800000000002
aI0
aI1
as(S'outstanding'
p2361
S'product'
p2362
tp2363
(lp2364
I0
aF1.0434800000000002
aI0
aI1
as(S'poor'
p2365
S'training'
p2366
tp2367
(lp2368
I0
aI0
aI1
aI1
as(S'overwork/overstressed'
p2369
S'environment'
p2370
tp2371
(lp2372
I0
aI1
aI0
aI1
as(S'not'
p2373
S'know'
p2374
tp2375
(lp2376
I0
aI0
aF0.97101000000000015
aI1
as(S'good'
p2377
S'work'
p2378
tp2379
(lp2380
I0
aF2.0869600000000004
aF0.97101000000000015
aI3
as(S'other'
p2381
S'departments'
p2382
tp2383
(lp2384
I0
aI1
aI0
aI1
as(S'nice'
p2385
S'coworkers'
p2386
tp2387
(lp2388
I0
aF1.0434800000000002
aI0
aI1
as(S'well'
p2389
S'managed'
p2390
tp2391
(lp2392
I0
aF3.0
aI0
aI1
as(S'traditional'
p2393
S'market'
p2394
tp2395
(lp2396
I0
aI0
aI1
aI1
as(S'not'
p2397
S'working'
p2398
tp2399
(lp2400
I0
aI0
aI1
aI1
as(S'interesting'
p2401
S'projects'
p2402
tp2403
(lp2404
I0
aF1.0434800000000002
aI0
aI1
as(S'bureaucratic'
p2405
S'political'
p2406
tp2407
(lp2408
I0
aI0
aI1
aI1
as(S'current'
p2409
S'reduction'
p2410
tp2411
(lp2412
I0
aI0
aI1
aI1
as(S'low'
p2413
S'employee'
p2414
tp2415
(lp2416
I0
aI0
aI1
aI1
as(S'only'
p2417
S'pro'
p2418
tp2419
(lp2420
I0
aI0
aF0.97101000000000015
aI1
as(S'first'
p2421
S'opportunity'
p2422
tp2423
(lp2424
I0
aI0
aI1
aI1
as(S'signifcant'
p2425
S'opportunity'
p2426
tp2427
(lp2428
I0
aF1.0434800000000002
aI0
aI1
as(S'common'
p2429
S'sense'
p2430
tp2431
(lp2432
I0
aI0
aI1
aI1
as(S'especially'
p2433
S'concerning'
p2434
tp2435
(lp2436
I0
aI0
aI1
aI1
as(S'comparable'
p2437
S'positions'
p2438
tp2439
(lp2440
I0
aI0
aI1
aI1
as(S'-Arrogant'
p2441
S'management'
p2442
tp2443
(lp2444
I0
aI1
aI0
aI1
as(S'especially'
p2445
S'procurement'
p2446
tp2447
(lp2448
I0
aI0
aI1
aI1
as(S'not'
p2449
S'reward'
p2450
tp2451
(lp2452
I0
aI0
aI1
aI1
as(S'many'
p2453
S'smoke'
p2454
tp2455
(lp2456
I0
aI1
aI0
aI1
as(S'great'
p2457
S'products'
p2458
tp2459
(lp2460
I0
aF1.0434800000000002
aI0
aI1
as(S'dysfunctional'
p2461
S'parts'
p2462
tp2463
(lp2464
I0
aI0
aI1
aI1
as(S'relatively'
p2465
S'easy'
p2466
tp2467
(lp2468
I0
aF1.0434800000000002
aI0
aI1
as(S'usually'
p2469
S'negative'
p2470
tp2471
(lp2472
I0
aI0
aI1
aI1
as(S'different'
p2473
S'backgrounds'
p2474
tp2475
(lp2476
I0
aI0
aF0.97101000000000015
aI1
as(S'real'
p2477
S'movement'
p2478
tp2479
(lp2480
I0
aI0
aI1
aI1
as(S'not'
p2481
S'able'
p2482
tp2483
(lp2484
I0
aI1
aI0
aI1
as(S'Significant'
p2485
S'opportunity'
p2486
tp2487
(lp2488
I0
aF1.0434800000000002
aI0
aI1
as(S'-Solid'
p2489
S'time'
p2490
tp2491
(lp2492
I0
aI0
aF0.97101000000000015
aI1
as(S'great'
p2493
S'experience'
p2494
tp2495
(lp2496
I0
aF2.0579700000000001
aI0
aI1
as(S'now'
p2497
S'treated'
p2498
tp2499
(lp2500
I0
aI1
aI0
aI1
as(S'great'
p2501
S'management'
p2502
tp2503
(lp2504
I0
aF2.0579700000000001
aI0
aI1
as(S'individual'
p2505
S'assignment'
p2506
tp2507
(lp2508
I0
aI0
aI1
aI1
as(S'mutual'
p2509
S'funds'
p2510
tp2511
(lp2512
I0
aF2.0579700000000001
aI0
aI1
as(S'geographical'
p2513
S'locations'
p2514
tp2515
(lp2516
I0
aF2.0579700000000001
aI0
aI1
as(S'large'
p2517
S'number'
p2518
tp2519
(lp2520
I0
aF2.0579700000000001
aI0
aI1
as(S'good'
p2521
S'company'
p2522
tp2523
(lp2524
I0
aF10.318840000000002
aI1
aI7
as(S'middle'
p2525
S'management'
p2526
tp2527
(lp2528
I0
aI0
aI1
aI1
as(S'retail'
p2529
S'level'
p2530
tp2531
(lp2532
I0
aF2.0579700000000001
aI0
aI1
as(S'great'
p2533
S'ideas'
p2534
tp2535
(lp2536
I0
aI0
aF0.97101000000000015
aI1
as(S'autocratic'
p2537
S'culture'
p2538
tp2539
(lp2540
I0
aI1
aI0
aI1
as(S'new'
p2541
S'changes'
p2542
tp2543
(lp2544
I0
aI0
aI1
aI1
as(S'other'
p2545
S'companies'
p2546
tp2547
(lp2548
I0
aI0
aI2
aI2
as(S'promotional'
p2549
S'opportunities'
p2550
tp2551
(lp2552
I0
aI0
aI2
aI2
as(S'ever-changing'
p2553
S'leadership'
p2554
tp2555
(lp2556
I0
aF1.0434800000000002
aI0
aI1
as(S'lines.Your'
p2557
S'clothing'
p2558
tp2559
(lp2560
I0
aI1
aI0
aI1
as(S'lateral'
p2561
S'movement'
p2562
tp2563
(lp2564
I0
aF2.0579700000000001
aI0
aI1
as(S'professional'
p2565
S'support'
p2566
tp2567
(lp2568
I0
aF3.0
aI0
aI1
as(S'real'
p2569
S'education'
p2570
tp2571
(lp2572
I0
aF1.0434800000000002
aI0
aI1
as(S'Large'
p2573
S'amounts'
p2574
tp2575
(lp2576
I0
aI0
aI1
aI1
as(S'different'
p2577
S'steps'
p2578
tp2579
(lp2580
I0
aI0
aI1
aI1
as(S'Large'
p2581
S'Company'
p2582
tp2583
(lp2584
I0
aF2.0869600000000004
aI0
aI2
as(S'Not'
p2585
S'treated'
p2586
tp2587
(lp2588
I0
aI0
aF1.9855100000000001
aI1
as(S'not'
p2589
S'bitter'
p2590
tp2591
(lp2592
I0
aI1
aI0
aI1
as(S'silo'
p2593
S'oriented'
p2594
tp2595
(lp2596
I0
aI0
aI1
aI1
as(S'sharp'
p2597
S'people'
p2598
tp2599
(lp2600
I0
aF1.0434800000000002
aI0
aI1
as(S'national'
p2601
S'projects'
p2602
tp2603
(lp2604
I0
aF1.0434800000000002
aI0
aI1
as(S'so'
p2605
S'big'
p2606
tp2607
(lp2608
I0
aF1.0434800000000002
aI0
aI1
as(S'local'
p2609
S'management'
p2610
tp2611
(lp2612
I0
aF2.0579700000000001
aI0
aI1
as(S'adequate'
p2613
S'breaks'
p2614
tp2615
(lp2616
I0
aF2.0579700000000001
aI0
aI1
as(S'much'
p2617
S'bureaucracy'
p2618
tp2619
(lp2620
I0
aF4.1449300000000004
aI1
aI4
as(S'technical'
p2621
S'training'
p2622
tp2623
(lp2624
I0
aF3.0
aI0
aI1
as(S'good'
p2625
S'start'
p2626
tp2627
(lp2628
I0
aF2.0579700000000001
aI0
aI1
as(S'training'
p2629
S'available'
p2630
tp2631
(lp2632
I0
aF3.0
aI0
aI1
as(S'slow'
p2633
S'decision'
p2634
tp2635
(lp2636
I0
aI0
aI1
aI1
as(S'very'
p2637
S'unappreciated'
p2638
tp2639
(lp2640
I0
aF1.0434800000000002
aI0
aI1
as(S'too'
p2641
S'frequent'
p2642
tp2643
(lp2644
I0
aI0
aI1
aI1
as(S'great'
p2645
S'healthcare'
p2646
tp2647
(lp2648
I0
aF3.0
aI0
aI1
as(S'poor'
p2649
S'global'
p2650
tp2651
(lp2652
I0
aI0
aI1
aI1
as(S'good'
p2653
S'pay'
p2654
tp2655
(lp2656
I0
aF9.2753600000000009
aI0
aI5
as(S'good'
p2657
S'starting'
p2658
tp2659
(lp2660
I0
aF1.0434800000000002
aI0
aI1
as(S"n't"
p2661
S'get'
p2662
tp2663
(lp2664
I0
aF3.0
aF3.9855100000000001
aI4
as(S'overall'
p2665
S'environment'
p2666
tp2667
(lp2668
I0
aI0
aI1
aI1
as(S'fresh'
p2669
S'blood'
p2670
tp2671
(lp2672
I0
aF2.0579700000000001
aI0
aI1
as(S"n't"
p2673
S'hired'
p2674
tp2675
(lp2676
I0
aI0
aI1
aI1
as(S'Never'
p2677
S'got'
p2678
tp2679
(lp2680
I0
aI1
aI0
aI1
as(S'free'
p2681
S'food'
p2682
tp2683
(lp2684
I0
aI0
aI1
aI1
as(S'new'
p2685
S'tools'
p2686
tp2687
(lp2688
I0
aI1
aI0
aI1
as(S'future'
p2689
S'career'
p2690
tp2691
(lp2692
I0
aF2.0579700000000001
aI0
aI1
as(S'Oddly'
p2693
S'Dysfunctional'
p2694
tp2695
(lp2696
I0
aF1.0434800000000002
aI0
aI1
as(S'Inter-group'
p2697
S'interactions'
p2698
tp2699
(lp2700
I0
aF2.0579700000000001
aI0
aI1
as(S'new'
p2701
S'hires'
p2702
tp2703
(lp2704
I0
aF3.0
aI0
aI1
as(S'great'
p2705
S'bonuses'
p2706
tp2707
(lp2708
I0
aI0
aI1
aI1
as(S'very'
p2709
S'hard'
p2710
tp2711
(lp2712
I0
aI0
aI1
aI1
as(S'flexible'
p2713
S'work'
p2714
tp2715
(lp2716
I0
aF6.1014499999999998
aI0
aI3
as(S'long'
p2717
S'working'
p2718
tp2719
(lp2720
I0
aF1.0434800000000002
aI0
aI1
as(S'Competitive'
p2721
S'pay'
p2722
tp2723
(lp2724
I0
aF2.0579700000000001
aI0
aI1
as(S'new'
p2725
S'reward'
p2726
tp2727
(lp2728
I0
aI0
aF0.97101000000000015
aI1
as(S'many'
p2729
S'change'
p2730
tp2731
(lp2732
I0
aI0
aI1
aI1
as(S'high'
p2733
g884
tp2734
(lp2735
I0
aF2.0579700000000001
aI0
aI1
as(S'other'
p2736
S'industries'
p2737
tp2738
(lp2739
I0
aI0
aI1
aI1
as(S'corporate'
p2740
S'interference'
p2741
tp2742
(lp2743
I0
aI1
aI0
aI1
as(S'weak'
p2744
S'management'
p2745
tp2746
(lp2747
I0
aI0
aI1
aI1
as(S'second'
p2748
S'year'
p2749
tp2750
(lp2751
I0
aF1.0434800000000002
aI0
aI1
as(S'Organizational'
p2752
S'change'
p2753
tp2754
(lp2755
I0
aI0
aI1
aI1
as(S'huge'
p2756
S'organization'
p2757
tp2758
(lp2759
I0
aI0
aI1
aI1
as(S'great'
p2760
S'pay'
p2761
tp2762
(lp2763
I0
aI0
aF0.97101000000000015
aI1
as(S'many'
p2764
S'initiatives'
p2765
tp2766
(lp2767
I0
aI0
aI1
aI1
as(S'good'
p2768
S'team'
p2769
tp2770
(lp2771
I0
aI0
aF1.9855100000000001
aI1
as(S'Incentive'
p2772
S'structure'
p2773
tp2774
(lp2775
I0
aI0
aI1
aI1
as(S'senior'
p2776
S'management'
p2777
tp2778
(lp2779
I0
aF2.0579700000000001
aI2
aI3
as(S'often'
p2780
S'unreasonable'
p2781
tp2782
(lp2783
I0
aI0
aI1
aI1
as(S'Retail'
p2784
S'hours'
p2785
tp2786
(lp2787
I0
aI0
aI1
aI1
as(S'good'
p2788
S'exposure'
p2789
tp2790
(lp2791
I0
aF1.0434800000000002
aI0
aI1
as(S'interesting'
p2792
S'work'
p2793
tp2794
(lp2795
I0
aF8.1884100000000011
aI0
aI5
as(S'many'
p2796
S'smart'
p2797
tp2798
(lp2799
I0
aF1.0434800000000002
aI0
aI1
as(S'small'
p2800
S'enviroment'
p2801
tp2802
(lp2803
I0
aI0
aI1
aI1
as(S'not'
p2804
S'be'
p2805
tp2806
(lp2807
I0
aF1.0434800000000002
aI1
aI2
as(S'same'
p2808
S'people'
p2809
tp2810
(lp2811
I0
aI0
aI1
aI1
as(S'blocks'
p2812
S'green'
p2813
tp2814
(lp2815
I0
aI0
aI1
aI1
as(S'depts'
p2816
S'such'
p2817
tp2818
(lp2819
I0
aI0
aI1
aI1
as(S'necessary'
p2820
S'skills'
p2821
tp2822
(lp2823
I0
aI1
aI0
aI1
as(S'highly'
p2824
S'coveted'
p2825
tp2826
(lp2827
I0
aF1.0434800000000002
aI0
aI1
as(S'intellectual'
p2828
S'challenge'
p2829
tp2830
(lp2831
I0
aI0
aI1
aI1
as(S'corporate'
p2832
S'culture'
p2833
tp2834
(lp2835
I0
aF3.0
aI2
aI3
as(S'big'
p2836
S'sales'
p2837
tp2838
(lp2839
I0
aI0
aI1
aI1
as(S'global'
p2840
S'economy'
p2841
tp2842
(lp2843
I0
aI0
aI1
aI1
as(S'new'
p2844
S'skills'
p2845
tp2846
(lp2847
I0
aF1.0434800000000002
aI0
aI1
as(S'different'
p2848
S'lanaguages'
p2849
tp2850
(lp2851
I0
aF2.0579700000000001
aI0
aI1
as(S'social'
p2852
S'life'
p2853
tp2854
(lp2855
I0
aI0
aI2
aI2
as(S'political'
p2856
S'office'
p2857
tp2858
(lp2859
I0
aI1
aI0
aI1
as(S'responsive'
p2860
S'bosses'
p2861
tp2862
(lp2863
I0
aF3.0
aI0
aI1
as(S'professional'
p2864
S'development'
p2865
tp2866
(lp2867
I0
aF1.0434800000000002
aI0
aI1
as(S'usual'
p2868
S'days'
p2869
tp2870
(lp2871
I0
aF1.0434800000000002
aI0
aI1
as(S'service'
p2872
S'possible'
p2873
tp2874
(lp2875
I0
aF3.0
aI0
aI1
as(S'great'
p2876
S'product'
p2877
tp2878
(lp2879
I0
aF2.0579700000000001
aI0
aI1
as(S'good'
p2880
S'environment'
p2881
tp2882
(lp2883
I0
aF2.0579700000000001
aI0
aI1
as(S'Stable'
p2884
S'business'
p2885
tp2886
(lp2887
I0
aF2.0579700000000001
aI0
aI1
as(S'flexible'
p2888
S'scheules'
p2889
tp2890
(lp2891
I0
aF2.0579700000000001
aI0
aI1
as(S'great'
p2892
S'opportunities'
p2893
tp2894
(lp2895
I0
aF8.057970000000001
aI0
aI3
as(S'just'
p2896
S'cared'
p2897
tp2898
(lp2899
I0
aI1
aI0
aI1
as(S'long'
p2900
S'hours'
p2901
tp2902
(lp2903
I0
aF2.0579700000000001
aI3
aI4
as(S'very'
p2904
S'competitive'
p2905
tp2906
(lp2907
I0
aI0
aF4.9855099999999997
aI4
as(S'laid'
p2908
S'back'
p2909
tp2910
(lp2911
I0
aI0
aF0.97101000000000015
aI1
as(S'open'
p2912
S'culture'
p2913
tp2914
(lp2915
I0
aF2.0579700000000001
aI0
aI1
as(S'global'
p2916
S'work'
p2917
tp2918
(lp2919
I0
aF1.0434800000000002
aI0
aI1
as(S'great'
p2920
S'care'
p2921
tp2922
(lp2923
I0
aF3.0
aI0
aI1
as(S'good'
p2924
S'terms'
p2925
tp2926
(lp2927
I0
aI1
aI0
aI1
as(S'daily'
p2928
S'basis'
p2929
tp2930
(lp2931
I0
aI1
aI0
aI1
as(S'too'
p2932
S'stressful'
p2933
tp2934
(lp2935
I0
aF1.0434800000000002
aI0
aI1
as(S'many'
p2936
S'resources'
p2937
tp2938
(lp2939
I0
aF2.0579700000000001
aI0
aI1
as(S'managers.And'
p2940
S'department'
p2941
tp2942
(lp2943
I0
aI1
aI0
aI1
as(S'Consistently'
p2944
S'good'
p2945
tp2946
(lp2947
I0
aF3.0
aI0
aI1
as(S'terrible'
p2948
S'audit'
p2949
tp2950
(lp2951
I0
aI0
aI1
aI1
as(S'nice'
p2952
S'place'
p2953
tp2954
(lp2955
I0
aF3.0
aI0
aI1
as(S'great'
p2956
S'brands'
p2957
tp2958
(lp2959
I0
aF3.1014500000000003
aI0
aI2
as(S'reputable'
p2960
S'company'
p2961
tp2962
(lp2963
I0
aF2.0579700000000001
aI0
aI1
as(S'Strong'
p2964
S'desire'
p2965
tp2966
(lp2967
I0
aF2.0579700000000001
aI0
aI1
as(S'not'
p2968
S'light'
p2969
tp2970
(lp2971
I0
aI0
aI1
aI1
as(S'much'
p2972
S'backstabbing'
p2973
tp2974
(lp2975
I0
aI1
aI0
aI1
as(S'own'
p2976
S'product'
p2977
tp2978
(lp2979
I0
aI0
aF0.97101000000000015
aI1
as(S'slow'
p2980
S'summers'
p2981
tp2982
(lp2983
I0
aI0
aI1
aI1
as(S'not'
p2984
S'worth'
p2985
tp2986
(lp2987
I0
aI0
aF1.9855100000000001
aI1
as(S'good'
p2988
S'working'
p2989
tp2990
(lp2991
I0
aF6.1014499999999998
aI0
aI3
as(S'only'
p2992
S'relates'
p2993
tp2994
(lp2995
I0
aF1.0434800000000002
aI0
aI1
as(S'recently'
p2996
S'read'
p2997
tp2998
(lp2999
I0
aI0
aI1
aI1
as(S'genuinely'
p3000
S'interested'
p3001
tp3002
(lp3003
I0
aF2.0579700000000001
aI0
aI1
as(S'Ever-changing'
p3004
S'career'
p3005
tp3006
(lp3007
I0
aF1.0434800000000002
aI0
aI1
as(S'Not'
p3008
S'engaging'
p3009
tp3010
(lp3011
I0
aI0
aI1
aI1
as(S'steadily'
p3012
S'declined'
p3013
tp3014
(lp3015
I0
aI0
aF2.9855100000000001
aI2
as(S'very'
p3016
S'big'
p3017
tp3018
(lp3019
I0
aI0
aI1
aI1
as(S'so'
p3020
S'deep'
p3021
tp3022
(lp3023
I0
aI0
aI1
aI1
as(S'not'
p3024
S'replacing'
p3025
tp3026
(lp3027
I0
aI1
aI0
aI1
as(S'hourly'
p3028
S'pay'
p3029
tp3030
(lp3031
I0
aF1.0434800000000002
aI0
aI1
as(S'great'
p3032
S'understanding'
p3033
tp3034
(lp3035
I0
aF3.0
aI0
aI1
as(S'People'
p3036
S'friendly'
p3037
tp3038
(lp3039
I0
aF2.0579700000000001
aI0
aI1
as(S'hard'
p3040
S'working'
p3041
tp3042
(lp3043
I0
aF1.0434800000000002
aI0
aI1
as(S'pretty'
p3044
S'good'
p3045
tp3046
(lp3047
I0
aF3.1014500000000003
aI0
aI2
as(S'clear'
p3048
S'career'
p3049
tp3050
(lp3051
I0
aF2.0579700000000001
aI0
aI1
as(S'cool'
p3052
S'people'
p3053
tp3054
(lp3055
I0
aF2.0579700000000001
aF1.9855100000000001
aI2
as(S'very'
p3056
S'mundane'
p3057
tp3058
(lp3059
I0
aF2.0579700000000001
aI0
aI1
as(S'technically'
p3060
S'sound'
p3061
tp3062
(lp3063
I0
aF2.0579700000000001
aI0
aI1
as(S'large'
p3064
S'swings'
p3065
tp3066
(lp3067
I0
aF3.0
aI0
aI1
as(S'business/department'
p3068
S'otherwise'
p3069
tp3070
(lp3071
I0
aI0
aI1
aI1
as(S'own'
p3072
S'rules'
p3073
tp3074
(lp3075
I0
aI0
aI1
aI1
as(S'many'
p3076
S'work'
p3077
tp3078
(lp3079
I0
aI0
aI1
aI1
as(S'too'
p3080
S'bloated'
p3081
tp3082
(lp3083
I0
aF2.0579700000000001
aI0
aI1
as(S'then'
p3084
S'many'
p3085
tp3086
(lp3087
I0
aI0
aI1
aI1
as(S'monthly'
p3088
S'service'
p3089
tp3090
(lp3091
I0
aI0
aF0.97101000000000015
aI1
as(S'current'
p3092
S'leadership'
p3093
tp3094
(lp3095
I0
aI0
aF0.97101000000000015
aI1
as(S'real'
p3096
S'career'
p3097
tp3098
(lp3099
I0
aI1
aI0
aI1
as(S"n't"
p3100
S'working'
p3101
tp3102
(lp3103
I0
aI0
aI1
aI1
as(S'not'
p3104
S'listen'
p3105
tp3106
(lp3107
I0
aI1
aI0
aI1
as(S'Not'
p3108
S'rewarding'
p3109
tp3110
(lp3111
I0
aI0
aI1
aI1
as(S'executive'
p3112
S'level'
p3113
tp3114
(lp3115
I0
aI0
aI1
aI1
as(S'bit'
p3116
S'ambiguous'
p3117
tp3118
(lp3119
I0
aI0
aI1
aI1
as(S'nice'
p3120
S'people'
p3121
tp3122
(lp3123
I0
aF1.0434800000000002
aI0
aI1
as(S'friendly'
p3124
S'company'
p3125
tp3126
(lp3127
I0
aI0
aI1
aI1
as(S'very'
p3128
S'good'
p3129
tp3130
(lp3131
I0
aF3.1014500000000003
aI1
aI3
as(S'centers'
p3132
S'available'
p3133
tp3134
(lp3135
I0
aI0
aI1
aI1
as(S'international'
p3136
S'teaching'
p3137
tp3138
(lp3139
I0
aF1.0434800000000002
aI0
aI1
as(S'not'
p3140
S'found'
p3141
tp3142
(lp3143
I0
aI0
aI1
aI1
as(S'part-time'
p3144
S'hours'
p3145
tp3146
(lp3147
I0
aF1.0434800000000002
aI0
aI1
as(S'great'
p3148
S'co-workers'
p3149
tp3150
(lp3151
I0
aF2.0869600000000004
aI0
aI2
as(S'general'
p3152
S'insurance'
p3153
tp3154
(lp3155
I0
aF2.0579700000000001
aI0
aI1
as(S'few'
p3156
S'pockets'
p3157
tp3158
(lp3159
I0
aF1.0434800000000002
aI0
aI1
as(S'corporate'
p3160
S'america'
p3161
tp3162
(lp3163
I0
aF2.0579700000000001
aI0
aI1
as(S'hourly'
p3164
S'salary'
p3165
tp3166
(lp3167
I0
aF2.0579700000000001
aI0
aI1
as(S'Highly'
p3168
S'talented'
p3169
tp3170
(lp3171
I0
aF3.0
aI0
aI1
as(S'other'
p3172
S'various'
p3173
tp3174
(lp3175
I0
aI0
aI1
aI1
as(S'different'
p3176
S'business'
p3177
tp3178
(lp3179
I0
aF1.0434800000000002
aI0
aI1
as(S'Casual'
p3180
S'environment'
p3181
tp3182
(lp3183
I0
aF1.0434800000000002
aI0
aI1
as(S'financial'
p3184
S'industry'
p3185
tp3186
(lp3187
I0
aF3.0
aI0
aI1
as(S'own'
p3188
S'paycheck'
p3189
tp3190
(lp3191
I0
aI0
aF0.97101000000000015
aI1
as(S'salary'
p3192
S'competitive'
p3193
tp3194
(lp3195
I0
aF1.0434800000000002
aI0
aI1
as(S'negative'
p3196
S'outcomes'
p3197
tp3198
(lp3199
I0
aI0
aI1
aI1
as(S'not'
p3200
S'challenging'
p3201
tp3202
(lp3203
I0
aI1
aI0
aI1
as(S'technical'
p3204
S'software'
p3205
tp3206
(lp3207
I0
aF2.0579700000000001
aI0
aI1
as(S'great'
p3208
S'visibility'
p3209
tp3210
(lp3211
I0
aF2.0579700000000001
aI0
aI1
as(S'Short'
p3212
S'contracts'
p3213
tp3214
(lp3215
I0
aI0
aI1
aI1
as(S'supportive'
p3216
S'company'
p3217
tp3218
(lp3219
I0
aF3.0
aI0
aI1
as(S'always'
p3220
S'decided'
p3221
tp3222
(lp3223
I0
aI0
aI1
aI1
as(S'global'
p3224
S'experience'
p3225
tp3226
(lp3227
I0
aF2.0579700000000001
aI0
aI1
as(S'even'
p3228
S'simple'
p3229
tp3230
(lp3231
I0
aI0
aI1
aI1
as(S'wide'
p3232
S'array'
p3233
tp3234
(lp3235
I0
aF2.0579700000000001
aI0
aI1
as(S'average'
p3236
S'pay'
p3237
tp3238
(lp3239
I0
aF6.1594199999999999
aI0
aI4
as(S'even'
p3240
S'ask'
p3241
tp3242
(lp3243
I0
aI1
aI0
aI1
as(S'full'
p3244
S'motivation'
p3245
tp3246
(lp3247
I0
aF3.0
aI0
aI1
as(S'strong'
p3248
S'fiefdoms'
p3249
tp3250
(lp3251
I0
aI1
aI0
aI1
as(S'top'
p3252
S'talent'
p3253
tp3254
(lp3255
I0
aF1.0434800000000002
aI0
aI1
as(S'organic'
p3256
S'growth'
p3257
tp3258
(lp3259
I0
aI0
aI1
aI1
as(S'little'
p3260
S'time'
p3261
tp3262
(lp3263
I0
aI0
aI1
aI1
as(S'financial'
p3264
S'risk'
p3265
tp3266
(lp3267
I0
aF1.0434800000000002
aI0
aI1
as(S'probably'
p3268
S'need'
p3269
tp3270
(lp3271
I0
aI0
aI1
aI1
as(S'not'
p3272
S'comfortable'
p3273
tp3274
(lp3275
I0
aI0
aI1
aI1
as(S'Large'
p3276
S'organization'
p3277
tp3278
(lp3279
I0
aI0
aI1
aI1
as(S'great'
p3280
S'location'
p3281
tp3282
(lp3283
I0
aF2.0579700000000001
aI0
aI1
as(S'few'
p3284
S'vacation'
p3285
tp3286
(lp3287
I0
aI0
aI1
aI1
as(S'constant'
p3288
S'reorganizations'
p3289
tp3290
(lp3291
I0
aF1.0434800000000002
aI0
aI1
as(g350
S'capped'
p3292
tp3293
(lp3294
I0
aI0
aI1
aI1
as(S'great'
p3295
S'company'
p3296
tp3297
(lp3298
I0
aF16.318840000000002
aI0
aI8
as(S'not'
p3299
S'take'
p3300
tp3301
(lp3302
I0
aI1
aI0
aI1
as(S'uncapped'
p3303
S'commission'
p3304
tp3305
(lp3306
I0
aI0
aI1
aI1
as(S'more'
p3307
S'political'
p3308
tp3309
(lp3310
I0
aI0
aI1
aI1
as(S'huge'
p3311
S'selection'
p3312
tp3313
(lp3314
I0
aI0
aI1
aI1
as(S'typical'
p3315
S'manufacturing'
p3316
tp3317
(lp3318
I0
aI0
aI1
aI1
as(S'equitable'
p3319
S'compensation'
p3320
tp3321
(lp3322
I0
aF2.0579700000000001
aI0
aI1
as(S'new'
p3323
S'learnings'
p3324
tp3325
(lp3326
I0
aF2.0579700000000001
aI0
aI1
as(S'benefits'
p3327
S'relative'
p3328
tp3329
(lp3330
I0
aF2.0579700000000001
aI0
aI1
as(S'good'
p3331
S'reputation'
p3332
tp3333
(lp3334
I0
aF1.0434800000000002
aI0
aI1
as(S'actually'
p3335
S'decent'
p3336
tp3337
(lp3338
I0
aI0
aF1.9855100000000001
aI1
as(S'top'
p3339
S'notch'
p3340
tp3341
(lp3342
I0
aF5.1594200000000008
aF0.97101000000000015
aI4
as(S'good'
p3343
S'went'
p3344
tp3345
(lp3346
I0
aI0
aF1.9855100000000001
aI1
as(S'very'
p3347
S'French-heavy'
p3348
tp3349
(lp3350
I0
aI0
aI1
aI1
as(S'corporate'
p3351
S'position'
p3352
tp3353
(lp3354
I0
aI0
aI1
aI1
as(S'good'
p3355
S'Company'
p3356
tp3357
(lp3358
I0
aF2.0579700000000001
aI0
aI1
as(S'good'
p3359
S'ending'
p3360
tp3361
(lp3362
I0
aI0
aF0.97101000000000015
aI1
as(S'back'
p3363
S'east'
p3364
tp3365
(lp3366
I0
aF1.0434800000000002
aI0
aI1
as(S'full'
p3367
S'services'
p3368
tp3369
(lp3370
I0
aF1.0434800000000002
aI0
aI1
as(S'global'
p3371
S'banking'
p3372
tp3373
(lp3374
I0
aF3.0
aI0
aI1
as(S'Mostly'
p3375
S'Satisfied'
p3376
tp3377
(lp3378
I0
aF2.0579700000000001
aI0
aI1
as(S'always'
p3379
S'do'
p3380
tp3381
(lp3382
I0
aI0
aI1
aI1
as(S'good'
p3383
S'prospect'
p3384
tp3385
(lp3386
I0
aF3.0
aI0
aI1
as(S'good'
p3387
S'support'
p3388
tp3389
(lp3390
I0
aF2.0579700000000001
aI0
aI1
as(S'great'
p3391
S'training'
p3392
tp3393
(lp3394
I0
aF1.0434800000000002
aI0
aI1
as(S'High'
p3395
S'stress'
p3396
tp3397
(lp3398
I0
aI0
aI1
aI1
as(S'well'
p3399
S'known'
p3400
tp3401
(lp3402
I0
aF1.0434800000000002
aI0
aI1
as(S'solid'
p3403
S'pay'
p3404
tp3405
(lp3406
I0
aF2.0579700000000001
aI0
aI1
as(S'mental'
p3407
S'instability'
p3408
tp3409
(lp3410
I0
aI1
aI0
aI1
as(S'operations'
p3411
S'chaotic'
p3412
tp3413
(lp3414
I0
aI0
aI1
aI1
as(S'sometimes'
p3415
S'be'
p3416
tp3417
(lp3418
I0
aI0
aI1
aI1
as(S"n't"
p3419
S'supercede'
p3420
tp3421
(lp3422
I0
aF1.0434800000000002
aI0
aI1
as(S'upper'
p3423
S'managers'
p3424
tp3425
(lp3426
I0
aI0
aF0.97101000000000015
aI1
as(S'so'
p3427
S'amazing'
p3428
tp3429
(lp3430
I0
aF2.0579700000000001
aI0
aI1
as(S'good'
p3431
S'people'
p3432
tp3433
(lp3434
I0
aF3.1014500000000003
aF2.9420200000000003
aI5
as(S'Extremely'
p3435
S'political'
p3436
tp3437
(lp3438
I0
aI1
aI0
aI1
as(S'interesting'
p3439
S'position'
p3440
tp3441
(lp3442
I0
aI0
aF0.97101000000000015
aI1
as(S'stable'
p3443
S'job'
p3444
tp3445
(lp3446
I0
aF1.0434800000000002
aI0
aI1
as(S'inflexible'
p3447
S'schedules'
p3448
tp3449
(lp3450
I0
aI0
aI1
aI1
as(S"n't"
p3451
S'seem'
p3452
tp3453
(lp3454
I0
aI0
aI1
aI1
as(S'global'
p3455
S'company'
p3456
tp3457
(lp3458
I0
aF2.0579700000000001
aI1
aI2
as(S'strategic'
p3459
S'direction'
p3460
tp3461
(lp3462
I0
aI0
aI1
aI1
as(S'many'
p3463
S'processes'
p3464
tp3465
(lp3466
I0
aI0
aI1
aI1
as(S'always'
p3467
S'wrong'
p3468
tp3469
(lp3470
I0
aI1
aI0
aI1
as(S'solid'
p3471
S'support'
p3472
tp3473
(lp3474
I0
aF1.0434800000000002
aI0
aI1
as(g134
S'hard'
p3475
tp3476
(lp3477
I0
aI0
aI1
aI1
as(S'Huge'
p3478
S'engineering'
p3479
tp3480
(lp3481
I0
aF3.0
aI0
aI1
as(S'constant'
p3482
S'fear'
p3483
tp3484
(lp3485
I0
aI1
aI0
aI1
as(S'little'
p3486
S'hectic'
p3487
tp3488
(lp3489
I0
aI0
aI1
aI1
as(S'very'
p3490
S'casual'
p3491
tp3492
(lp3493
I0
aF2.0579700000000001
aI0
aI1
as(S'technologically'
p3494
S'advanced'
p3495
tp3496
(lp3497
I0
aF1.0434800000000002
aI0
aI1
as(S'good'
p3498
S'pay-masters'
p3499
tp3500
(lp3501
I0
aI0
aI1
aI1
as(S'retail'
p3502
S'atmosphere'
p3503
tp3504
(lp3505
I0
aI0
aI1
aI1
as(S'flexible'
p3506
S'schedules'
p3507
tp3508
(lp3509
I0
aF3.1014500000000003
aI0
aI2
as(S'exact'
p3510
S'path'
p3511
tp3512
(lp3513
I0
aI0
aI1
aI1
as(S'many'
p3514
S'categories'
p3515
tp3516
(lp3517
I0
aF1.0434800000000002
aI0
aI1
as(S'strong'
p3518
S'relationships'
p3519
tp3520
(lp3521
I0
aF2.0579700000000001
aI0
aI1
as(S'Still'
p3522
S'struggling'
p3523
tp3524
(lp3525
I0
aI0
aI1
aI1
as(S'recreational'
p3526
S'facilities'
p3527
tp3528
(lp3529
I0
aI0
aI1
aI1
as(S'sometimes'
p3530
S'make'
p3531
tp3532
(lp3533
I0
aI0
aI1
aI1
as(S'charitable'
p3534
S'contributions'
p3535
tp3536
(lp3537
I0
aI0
aF0.97101000000000015
aI1
as(S'constant'
p3538
S'ability'
p3539
tp3540
(lp3541
I0
aF2.0579700000000001
aI0
aI1
as(S'ample'
p3542
S'opportunity'
p3543
tp3544
(lp3545
I0
aF3.0
aI0
aI1
as(S'same'
p3546
S'vision'
p3547
tp3548
(lp3549
I0
aI0
aI1
aI1
as(S'sour-tasting'
p3550
S'history'
p3551
tp3552
(lp3553
I0
aI0
aI1
aI1
as(S'too'
p3554
S'decentralized'
p3555
tp3556
(lp3557
I0
aI0
aI1
aI1
as(S"n't"
p3558
S'be'
p3559
tp3560
(lp3561
I0
aI0
aF1.9855100000000001
aI1
as(S'there'
p3562
S'ranking'
p3563
tp3564
(lp3565
I0
aF1.0434800000000002
aI0
aI1
as(S'fast'
p3566
S'promotions'
p3567
tp3568
(lp3569
I0
aF2.0579700000000001
aI0
aI1
as(S'few'
p3570
S'days'
p3571
tp3572
(lp3573
I0
aI0
aI1
aI1
as(S'investigative'
p3574
S'challenge'
p3575
tp3576
(lp3577
I0
aF1.0434800000000002
aI0
aI1
as(S'tough'
p3578
S'city'
p3579
tp3580
(lp3581
I0
aI0
aI1
aI1
as(S'more'
p3582
S'concerned'
p3583
tp3584
(lp3585
I0
aI0
aI1
aI1
as(S'so'
p3586
S'great'
p3587
tp3588
(lp3589
I0
aF1.0434800000000002
aI0
aI1
as(S'enough'
p3590
S'time'
p3591
tp3592
(lp3593
I0
aF1.0434800000000002
aI1
aI2
as(S'many'
p3594
S'layoffs'
p3595
tp3596
(lp3597
I0
aF1.0434800000000002
aI0
aI1
as(S'Large'
p3598
S'size'
p3599
tp3600
(lp3601
I0
aI0
aI1
aI1
as(S'much'
p3602
S'labor'
p3603
tp3604
(lp3605
I0
aI1
aI0
aI1
as(S'sometimes'
p3606
S'slow'
p3607
tp3608
(lp3609
I0
aI0
aI1
aI1
as(S'flexible'
p3610
S'schedule'
p3611
tp3612
(lp3613
I0
aF2.0869600000000004
aI0
aI2
as(S'third'
p3614
S'party'
p3615
tp3616
(lp3617
I0
aI0
aI1
aI1
as(S'Looks'
p3618
S'good'
p3619
tp3620
(lp3621
I0
aF2.0579700000000001
aI0
aI1
as(S'forward'
p3622
S'leaning'
p3623
tp3624
(lp3625
I0
aI0
aF0.97101000000000015
aI1
as(S'terrible'
p3626
S'computer'
p3627
tp3628
(lp3629
I0
aI0
aI1
aI1
as(S'great'
p3630
S'teams'
p3631
tp3632
(lp3633
I0
aF1.0434800000000002
aI0
aI1
as(S'Constantly'
p3634
S'changing'
p3635
tp3636
(lp3637
I0
aI0
aF0.97101000000000015
aI1
as(S'never'
p3638
S'had'
p3639
tp3640
(lp3641
I0
aI0
aI1
aI1
as(S'professional'
p3642
S'positions'
p3643
tp3644
(lp3645
I0
aF2.0579700000000001
aI0
aI1
as(S'great'
p3646
S'hiring'
p3647
tp3648
(lp3649
I0
aF1.0434800000000002
aI0
aI1
as(S'rough'
p3650
S'patch'
p3651
tp3652
(lp3653
I0
aI0
aF0.97101000000000015
aI1
as(S'work-life'
p3654
S'balance'
p3655
tp3656
(lp3657
I0
aF2.0579700000000001
aI1
aI2
as(S'not'
p3658
S'think'
p3659
tp3660
(lp3661
I0
aI0
aI1
aI1
as(S'very'
p3662
S'political'
p3663
tp3664
(lp3665
I0
aF2.0434800000000002
aI1
aI3
as(S'strong'
p3666
S'brands'
p3667
tp3668
(lp3669
I0
aF2.0579700000000001
aI0
aI1
as(S'internal'
p3670
S'funding'
p3671
tp3672
(lp3673
I0
aI0
aI1
aI1
as(S'stupid'
p3674
S'Cashiers'
p3675
tp3676
(lp3677
I0
aI1
aI0
aI1
as(S'sometimes'
p3678
S'maybe'
p3679
tp3680
(lp3681
I0
aI0
aI1
aI1
as(S'comfortable'
p3682
S'work'
p3683
tp3684
(lp3685
I0
aF3.0
aF0.97101000000000015
aI2
as(S'less'
p3686
S'compared'
p3687
tp3688
(lp3689
I0
aI0
aI1
aI1
as(S'else'
p3690
S'acquired'
p3691
tp3692
(lp3693
I0
aI0
aI1
aI1
as(S'Work/life'
p3694
S'balance'
p3695
tp3696
(lp3697
I0
aI0
aI1
aI1
as(S'different'
p3698
S'parts'
p3699
tp3700
(lp3701
I0
aF2.0579700000000001
aI0
aI1
as(S'good'
p3702
S'culture'
p3703
tp3704
(lp3705
I0
aF2.0579700000000001
aI0
aI1
as(S'high'
p3706
S'amount'
p3707
tp3708
(lp3709
I0
aF1.0434800000000002
aI0
aI1
as(S'sub-par'
p3710
S'relative'
p3711
tp3712
(lp3713
I0
aI0
aI1
aI1
as(S'personal'
p3714
S'experience'
p3715
tp3716
(lp3717
I0
aI0
aI1
aI1
as(S'fair'
p3718
S'pay'
p3719
tp3720
(lp3721
I0
aF2.0579700000000001
aI0
aI1
as(S'never'
p3722
S'seen'
p3723
tp3724
(lp3725
I0
aI1
aI0
aI1
as(S'bad'
p3726
S'exsperince'
p3727
tp3728
(lp3729
I0
aI1
aI0
aI1
as(S'Corporate'
p3730
S'training'
p3731
tp3732
(lp3733
I0
aF2.0579700000000001
aI0
aI1
as(S'immediate'
p3734
S'manager'
p3735
tp3736
(lp3737
I0
aI0
aI1
aI1
as(S'other'
p3738
S'jobs'
p3739
tp3740
(lp3741
I0
aI0
aF0.97101000000000015
aI1
as(S'really'
p3742
S'care'
p3743
tp3744
(lp3745
I0
aF1.0434800000000002
aI0
aI1
as(S'too'
p3746
S'big'
p3747
tp3748
(lp3749
I0
aI0
aI1
aI1
as(S'continuously'
p3750
S'cut'
p3751
tp3752
(lp3753
I0
aI0
aI1
aI1
as(S'retail'
p3754
S'jobs'
p3755
tp3756
(lp3757
I0
aF2.0579700000000001
aI0
aI1
as(S'many'
p3758
S'field'
p3759
tp3760
(lp3761
I0
aI0
aI1
aI1
as(S'Too'
p3762
S'large'
p3763
tp3764
(lp3765
I0
aI0
aI1
aI1
as(S'many'
p3766
S'expats'
p3767
tp3768
(lp3769
I0
aI0
aI1
aI1
as(S"n't"
p3770
S'mesh'
p3771
tp3772
(lp3773
I0
aI0
aI1
aI1
as(S'internal'
p3774
S'systems'
p3775
tp3776
(lp3777
I0
aI0
aI1
aI1
as(S'just'
p3778
S'So-SO'
p3779
tp3780
(lp3781
I0
aF1.0434800000000002
aI0
aI1
as(S'good'
p3782
S'experience'
p3783
tp3784
(lp3785
I0
aF4.0434800000000006
aI0
aI2
as(S'top'
p3786
S'bank'
p3787
tp3788
(lp3789
I0
aF2.0579700000000001
aI0
aI1
as(S'strong'
p3790
S'values'
p3791
tp3792
(lp3793
I0
aF1.0434800000000002
aI0
aI1
as(S'bureaucratic'
p3794
S'decision'
p3795
tp3796
(lp3797
I0
aI0
aI1
aI1
as(S'appropriate'
p3798
S'position'
p3799
tp3800
(lp3801
I0
aF3.0
aI0
aI1
as(S'reliable'
p3802
S'company'
p3803
tp3804
(lp3805
I0
aF2.0579700000000001
aI0
aI1
as(S'inwardly'
p3806
S'focused'
p3807
tp3808
(lp3809
I0
aF1.0434800000000002
aI0
aI1
as(S'there'
p3810
S'was'
p3811
tp3812
(lp3813
I0
aI0
aI1
aI1
as(S'high'
p3814
S'demand'
p3815
tp3816
(lp3817
I0
aI1
aI1
aI2
as(S'many'
p3818
S'deadweight'
p3819
tp3820
(lp3821
I0
aI0
aI1
aI1
as(S'very'
p3822
S'large'
p3823
tp3824
(lp3825
I0
aI0
aI1
aI1
as(S'enable'
p3826
S'growth'
p3827
tp3828
(lp3829
I0
aF2.0579700000000001
aI0
aI1
as(S'junior'
p3830
S'employee'
p3831
tp3832
(lp3833
I0
aI0
aI1
aI1
as(S'excessive'
p3834
S'employee'
p3835
tp3836
(lp3837
I0
aF1.0434800000000002
aI0
aI1
as(S'significant'
p3838
S'self'
p3839
tp3840
(lp3841
I0
aF1.0434800000000002
aI0
aI1
as(S'sometime'
p3842
S'reimberse'
p3843
tp3844
(lp3845
I0
aF2.0579700000000001
aI0
aI1
as(S'so'
p3846
S'long'
p3847
tp3848
(lp3849
I0
aF1.0434800000000002
aI0
aI1
as(S'very'
p3850
S'conservative'
p3851
tp3852
(lp3853
I0
aI0
aI1
aI1
as(S'not'
p3854
S'embrace'
p3855
tp3856
(lp3857
I0
aF2.0579700000000001
aI0
aI1
as(S'broad'
p3858
S'array'
p3859
tp3860
(lp3861
I0
aF1.0434800000000002
aI0
aI1
as(S'good'
p3862
S'employer'
p3863
tp3864
(lp3865
I0
aI0
aF1.9855100000000001
aI1
as(S'great'
p3866
S'deal'
p3867
tp3868
(lp3869
I0
aF1.0434800000000002
aI0
aI1
as(S'new'
p3870
S'suggestion'
p3871
tp3872
(lp3873
I0
aI0
aI1
aI1
as(S'vastly'
p3874
S'eroded'
p3875
tp3876
(lp3877
I0
aF1.0434800000000002
aI0
aI1
as(S'high'
p3878
S'school'
p3879
tp3880
(lp3881
I0
aI1
aI0
aI1
as(S'sometimes'
p3882
S'hindering'
p3883
tp3884
(lp3885
I0
aI0
aI1
aI1
as(S'reactive'
p3886
S'management'
p3887
tp3888
(lp3889
I0
aI0
aI1
aI1
as(S'political'
p3890
S'game'
p3891
tp3892
(lp3893
I0
aI1
aI0
aI1
as(S'individual'
p3894
S'peers'
p3895
tp3896
(lp3897
I0
aF2.0579700000000001
aI0
aI1
as(S'good'
p3898
S'restauration'
p3899
tp3900
(lp3901
I0
aF1.0434800000000002
aI0
aI1
as(S'technical'
p3902
S'side'
p3903
tp3904
(lp3905
I0
aI0
aI1
aI1
as(S'unstoppable'
p3906
S'downward'
p3907
tp3908
(lp3909
I0
aF1.0434800000000002
aI0
aI1
as(S'different'
p3910
S'cultures'
p3911
tp3912
(lp3913
I0
aF2.0579700000000001
aI0
aI1
as(S'hires'
p3914
S'-All'
p3915
tp3916
(lp3917
I0
aI1
aI0
aI1
as(S'overall'
p3918
S'culture'
p3919
tp3920
(lp3921
I0
aF1.0434800000000002
aI0
aI1
as(S'poor'
p3922
S'culture/environment'
p3923
tp3924
(lp3925
I0
aI1
aI0
aI1
as(S'heavily'
p3926
S'dependent'
p3927
tp3928
(lp3929
I0
aI0
aI1
aI1
as(S"n't"
p3930
S'mind'
p3931
tp3932
(lp3933
I0
aI0
aF0.97101000000000015
aI1
as(S'wonderful'
p3934
g1344
tp3935
(lp3936
I0
aF1.0434800000000002
aI0
aI1
as(S'Global'
p3937
S'company'
p3938
tp3939
(lp3940
I0
aF2.0579700000000001
aI0
aI1
as(S'great'
p3941
S'working'
p3942
tp3943
(lp3944
I0
aF2.0579700000000001
aI1
aI2
as(S'privacy'
p3945
S'available'
p3946
tp3947
(lp3948
I0
aI0
aI1
aI1
as(S'economic'
p3949
S'events'
p3950
tp3951
(lp3952
I0
aI0
aI1
aI1
as(S'same'
p3953
S'position'
p3954
tp3955
(lp3956
I0
aI0
aI1
aI1
as(S'other'
p3957
S'shops'
p3958
tp3959
(lp3960
I0
aI0
aI1
aI1
as(S'poor'
p3961
S'managers'
p3962
tp3963
(lp3964
I0
aI0
aI1
aI1
as(S'certain'
p3965
S'fields'
p3966
tp3967
(lp3968
I0
aI0
aI1
aI1
as(S'too'
p3969
S'matrixed'
p3970
tp3971
(lp3972
I0
aF2.0579700000000001
aI0
aI1
as(S'certain'
p3973
S'time'
p3974
tp3975
(lp3976
I0
aI0
aI1
aI1
as(S'not'
p3977
S'focus'
p3978
tp3979
(lp3980
I0
aI0
aI1
aI1
as(S'good'
p3981
S'facilities'
p3982
tp3983
(lp3984
I0
aF1.0434800000000002
aI0
aI1
as(S"n't"
p3985
S'like'
p3986
tp3987
(lp3988
I0
aI0
aF0.97101000000000015
aI1
as(S'really'
p3989
S'difficult'
p3990
tp3991
(lp3992
I0
aI0
aI1
aI1
as(S'always'
p3993
S'preferable'
p3994
tp3995
(lp3996
I0
aI0
aI1
aI1
as(S'not'
p3997
S'compensate'
p3998
tp3999
(lp4000
I0
aI0
aI1
aI1
as(S'considerate'
p4001
S'Managers'
p4002
tp4003
(lp4004
I0
aF2.0579700000000001
aI0
aI1
as(S'Medical'
p4005
S'benefits'
p4006
tp4007
(lp4008
I0
aI0
aI1
aI1
as(S'very'
p4009
S'limited'
p4010
tp4011
(lp4012
I0
aF2.0579700000000001
aI0
aI1
as(S'underqualified'
p4013
S'people'
p4014
tp4015
(lp4016
I0
aF1.0434800000000002
aI0
aI1
as(S'German'
p4017
S'workers'
p4018
tp4019
(lp4020
I0
aI0
aF0.97101000000000015
aI1
as(S'only'
p4021
S'offered'
p4022
tp4023
(lp4024
I0
aI0
aI1
aI1
as(S'Overall'
p4025
S'Software'
p4026
tp4027
(lp4028
I0
aF1.0434800000000002
aI0
aI1
as(S'much'
p4029
S'red'
p4030
tp4031
(lp4032
I0
aI0
aI1
aI1
as(S'new'
p4033
S'products'
p4034
tp4035
(lp4036
I0
aF3.0
aI0
aI1
as(S'wide'
p4037
S'variety'
p4038
tp4039
(lp4040
I0
aF1.0434800000000002
aF0.97101000000000015
aI2
as(S'retail'
p4041
g1590
tp4042
(lp4043
I0
aI0
aI1
aI1
as(S'good'
p4044
g3036
tp4045
(lp4046
I0
aF2.0579700000000001
aI0
aI1
as(S'Overall'
p4047
S'good'
p4048
tp4049
(lp4050
I0
aF2.0579700000000001
aI0
aI1
as(S'very'
p4051
S'high'
p4052
tp4053
(lp4054
I0
aI0
aI1
aI1
as(S'good'
p4055
S'value'
p4056
tp4057
(lp4058
I0
aF2.0579700000000001
aI0
aI1
as(S'good/bad'
p4059
S'feedback'
p4060
tp4061
(lp4062
I0
aI1
aI0
aI1
as.