(dp0
((S'worth'
p1
S'JJ'
p2
tp3
(S'mentioning'
p4
S'NN'
p5
tp6
tp7
(lp8
I0
aI0
aI1
as((S'fundamental'
p9
g2
tp10
(S'training'
p11
g5
tp12
tp13
(lp14
I0
aI0
aI1
as((S"n't"
p15
S'RB'
p16
tp17
(S'mind'
p18
S'VB'
p19
tp20
tp21
(lp22
I0
aI0
aI1
as((S'good'
p23
g2
tp24
(S'employer'
p25
g5
tp26
tp27
(lp28
I0
aI1
aI0
as((S'Always'
p29
g16
tp30
(S'working'
p31
S'VBG'
p32
tp33
tp34
(lp35
I0
aI1
aI0
as((S'low'
p36
g2
tp37
(S'morale'
p38
g5
tp39
tp40
(lp41
I0
aI1
aI0
as((S'extra'
p42
g2
tp43
(S'day'
p44
g5
tp45
tp46
(lp47
I0
aI0
aI1
as((S'not'
p48
g16
tp49
(S'respectful'
p50
g2
tp51
tp52
(lp53
I0
aI1
aI0
as((S'always'
p54
g16
tp55
(S'good'
p56
g2
tp57
tp58
(lp59
I0
aI0
aI1
as((S'personal'
p60
g2
tp61
(S'communication'
p62
g5
tp63
tp64
(lp65
I0
aI1
aI0
as((S"n't"
p66
g16
tp67
(S'know'
p68
g19
tp69
tp70
(lp71
I0
aI1
aI1
as((S'little'
p72
g2
tp73
(S'interest'
p74
g5
tp75
tp76
(lp77
I0
aI1
aI0
as((S'old'
p78
g2
tp79
(S'school'
p80
g5
tp81
tp82
(lp83
I0
aI1
aI0
as((S'highly'
p84
g16
tp85
(S'valued'
p86
S'VBN'
p87
tp88
tp89
(lp90
I0
aI0
aI1
as((S'high'
p91
g2
tp92
(S'compensation'
p93
g5
tp94
tp95
(lp96
I0
aI0
aI1
as((S'own'
p97
g2
tp98
(S'('
p99
g5
tp100
tp101
(lp102
I0
aI1
aI0
as((S'global'
p103
g2
tp104
(S'companies'
p105
S'NNS'
p106
tp107
tp108
(lp109
I0
aI0
aI1
as((S'High'
p110
g2
tp111
(S'Stress'
p112
g5
tp113
tp114
(lp115
I0
aI2
aI0
as((S'very'
p116
g16
tp117
(S'strong'
p118
g2
tp119
tp120
(lp121
I0
aI1
aI0
as((S'great'
p122
g2
tp123
(S'product'
p124
g5
tp125
tp126
(lp127
I0
aI0
aI1
as((S"n't"
p128
g16
tp129
(S'reward'
p130
g19
tp131
tp132
(lp133
I0
aI1
aI0
as((S'always'
p134
g16
tp135
(S'wrong'
p136
g2
tp137
tp138
(lp139
I0
aI1
aI0
as((S'great'
p140
g2
tp141
(S'health'
p142
g5
tp143
tp144
(lp145
I0
aI0
aI1
as((S'tactical'
p146
g2
tp147
(S'operations'
p148
g106
tp149
tp150
(lp151
I0
aI1
aI0
as((S'different'
p152
g2
tp153
(S'part'
p154
g5
tp155
tp156
(lp157
I0
aI1
aI0
as((S'hard'
p158
g2
tp159
(S'work'
p160
g5
tp161
tp162
(lp163
I0
aI1
aI0
as((S'large'
p164
g2
tp165
(S'systems'
p166
g106
tp167
tp168
(lp169
I0
aI0
aI1
as((S'bad'
p170
g2
tp171
(S'apples'
p172
g106
tp173
tp174
(lp175
I0
aI1
aI0
as((S'own'
p176
g2
tp177
(S'department'
p178
g5
tp179
tp180
(lp181
I0
aI0
aI1
as((S'little'
p182
g2
tp183
(S'reward'
p184
g5
tp185
tp186
(lp187
I0
aI1
aI0
as((S'good'
p188
g2
tp189
(S'bonus'
p190
g5
tp191
tp192
(lp193
I0
aI0
aI1
as((S"n't"
p194
g16
tp195
(S'agree'
p196
g19
tp197
tp198
(lp199
I0
aI1
aI0
as((S'corporate'
p200
g2
tp201
(S'politics'
p202
g106
tp203
tp204
(lp205
I0
aI1
aI0
as((S'new'
p206
g2
tp207
(S'projects'
p208
g106
tp209
tp210
(lp211
I0
aI1
aI0
as((S'significant'
p212
g2
tp213
(S'increments'
p214
g106
tp215
tp216
(lp217
I0
aI1
aI0
as((S'much'
p218
g2
tp219
(S'backstabbing'
p220
g5
tp221
tp222
(lp223
I0
aI1
aI0
as((S'great'
p224
g2
tp225
(S'pay'
p226
g5
tp227
tp228
(lp229
I0
aI0
aI1
as((S'new'
p230
g2
tp231
(S'tools'
p232
g106
tp233
tp234
(lp235
I0
aI1
aI0
as((S'flexible'
p236
g2
tp237
(S'work'
p238
g5
tp239
tp240
(lp241
I0
aI1
aI0
as((S'flexible'
p242
g2
tp243
(S'working'
p244
g5
tp245
tp246
(lp247
I0
aI0
aI1
as((S'in-house'
p248
g2
tp249
(S'union'
p250
g5
tp251
tp252
(lp253
I0
aI0
aI1
as((S'much'
p254
g2
tp255
(S'mark-up'
p256
g5
tp257
tp258
(lp259
I0
aI1
aI0
as((S'lateral'
p260
g2
tp261
(S'mobility'
p262
g5
tp263
tp264
(lp265
I0
aI1
aI0
as((S"n't"
p266
g16
tp267
(S'take'
p268
g19
tp269
tp270
(lp271
I0
aI1
aI0
as((S'other'
p272
g2
tp273
(S'banks'
p274
g106
tp275
tp276
(lp277
I0
aI1
aI0
as((S'necessary'
p278
g2
tp279
(S'skills'
p280
g106
tp281
tp282
(lp283
I0
aI1
aI0
as((S'-Arrogant'
p284
g2
tp285
(S'management'
p286
g5
tp287
tp288
(lp289
I0
aI1
aI0
as((S'serious'
p290
g2
tp291
(S'culture'
p292
g5
tp293
tp294
(lp295
I0
aI1
aI0
as((S'quick'
p296
g2
tp297
(S'hiring'
p298
g5
tp299
tp300
(lp301
I0
aI0
aI1
as((S'bad'
p302
g2
tp303
(S'exsperince'
p304
g5
tp305
tp306
(lp307
I0
aI1
aI0
as((S'Highly'
p308
g16
tp309
(S'competitive'
p310
g2
tp311
tp312
(lp313
I0
aI1
aI0
as((S'stressful'
p314
g2
tp315
(S'environment'
p316
g5
tp317
tp318
(lp319
I0
aI1
aI0
as((S'possibly'
p320
g16
tp321
(S'spend'
p322
g19
tp323
tp324
(lp325
I0
aI0
aI1
as((S'much'
p326
g2
tp327
(S'advancement'
p328
g5
tp329
tp330
(lp331
I0
aI1
aI0
as((S'strong'
p332
g2
tp333
(S'fiefdoms'
p334
g106
tp335
tp336
(lp337
I0
aI1
aI0
as((S'forward'
p338
g16
tp339
(S'leaning'
p340
g32
tp341
tp342
(lp343
I0
aI0
aI1
as((S'Bad'
p344
g2
tp345
(S'pay'
p346
g5
tp347
tp348
(lp349
I0
aI1
aI0
as((S'steady'
p350
g2
tp351
(S'hours'
p352
g106
tp353
tp354
(lp355
I0
aI0
aI1
as((S'now'
p356
g16
tp357
(S'treated'
p358
g87
tp359
tp360
(lp361
I0
aI1
aI0
as((S'daily'
p362
g2
tp363
(S'basis'
p364
g5
tp365
tp366
(lp367
I0
aI1
aI0
as((S'different'
p368
g2
tp369
(S'disciplines'
p370
g106
tp371
tp372
(lp373
I0
aI0
aI1
as((S'bad'
p374
g2
tp375
(S'managers'
p376
g106
tp377
tp378
(lp379
I0
aI1
aI0
as((S"n't"
p380
g16
tp381
(S'see'
p382
g19
tp383
tp384
(lp385
I0
aI1
aI0
as((S'single'
p386
g2
tp387
(S'aspect'
p388
g5
tp389
tp390
(lp391
I0
aI1
aI0
as((S'very'
p392
g16
tp393
(S'inconsistent'
p394
g2
tp395
tp396
(lp397
I0
aI1
aI0
as((S'not'
p398
g16
tp399
(S'great'
p400
g2
tp401
tp402
(lp403
I0
aI0
aI1
as((S'good'
p404
g2
tp405
(S'Benefits'
p406
g106
tp407
tp408
(lp409
I0
aI0
aI1
as((S'verbal'
p410
g2
tp411
(S'abuse'
p412
g5
tp413
tp414
(lp415
I0
aI1
aI0
as((S'not'
p416
g16
tp417
(S'recieved'
p418
g87
tp419
tp420
(lp421
I0
aI1
aI0
as((S'good'
p422
g2
tp423
(S'benefit'
p424
g5
tp425
tp426
(lp427
I0
aI0
aI1
as((S'competitive'
p428
g2
tp429
(S'pay'
p430
g5
tp431
tp432
(lp433
I0
aI0
aI1
as((S'just'
p434
g16
tp435
(S'cared'
p436
S'VBD'
p437
tp438
tp439
(lp440
I0
aI1
aI0
as((S'various'
p441
g2
tp442
(S'units'
p443
g106
tp444
tp445
(lp446
I0
aI0
aI1
as((S'Bad'
p447
g2
tp448
(S'atmosphere'
p449
g5
tp450
tp451
(lp452
I0
aI1
aI0
as((S'too'
p453
g16
tp454
(S'heavy'
p455
g2
tp456
tp457
(lp458
I0
aI1
aI0
as((S'now'
p459
g16
tp460
(S'rocked'
p461
g437
tp462
tp463
(lp464
I0
aI1
aI0
as((S'comfortable'
p465
g2
tp466
(S'work'
p467
g5
tp468
tp469
(lp470
I0
aI0
aI1
as((S'glorious'
p471
g2
tp472
(S'past'
p473
g5
tp474
tp475
(lp476
I0
aI1
aI0
as((S'good'
p477
g2
tp478
(S'ending'
p479
g5
tp480
tp481
(lp482
I0
aI1
aI0
as((S'personal'
p483
g2
tp484
(S'phone'
p485
g5
tp486
tp487
(lp488
I0
aI1
aI0
as((S'other'
p489
g2
tp490
(S'bank'
p491
g5
tp492
tp493
(lp494
I0
aI0
aI1
as((S'wrong'
p495
g2
tp496
(S'people'
p497
g106
tp498
tp499
(lp500
I0
aI1
aI0
as((S"n't"
p501
g16
tp502
(S'walk'
p503
g19
tp504
tp505
(lp506
I0
aI1
aI0
as((S'them.I'
p507
g2
tp508
(S'think'
p509
g5
tp510
tp511
(lp512
I0
aI1
aI0
as((S'good'
p513
g2
tp514
(S'guidance'
p515
g5
tp516
tp517
(lp518
I0
aI0
aI1
as((S'much'
p519
g2
tp520
(S'resistance'
p521
g5
tp522
tp523
(lp524
I0
aI1
aI0
as((S'very'
p525
g16
tp526
(S'impersonal'
p527
g2
tp528
tp529
(lp530
I0
aI1
aI0
as((S'individual'
p531
g2
tp532
(S'contributors'
p533
g106
tp534
tp535
(lp536
I0
aI1
aI0
as((S'not'
p537
g16
tp538
(S'appreciate'
p539
g19
tp540
tp541
(lp542
I0
aI1
aI0
as((S'personal'
p543
g2
tp544
(S'life'
p545
g5
tp546
tp547
(lp548
I0
aI1
aI0
as((S'current'
p549
g2
tp550
(S'year'
p551
g5
tp552
tp553
(lp554
I0
aI1
aI0
as((S'-Some'
p555
g2
tp556
(S'smart'
p557
g5
tp558
tp559
(lp560
I0
aI0
aI1
as((S'much'
p561
g2
tp562
(S'work'
p563
g5
tp564
tp565
(lp566
I0
aI1
aI0
as((S'too'
p567
g16
tp568
(S'afraid'
p569
g437
tp570
tp571
(lp572
I0
aI1
aI0
as((S'new'
p573
g2
tp574
(S'ideas'
p575
g106
tp576
tp577
(lp578
I0
aI1
aI0
as((S'political'
p579
g2
tp580
(S'office'
p581
g5
tp582
tp583
(lp584
I0
aI1
aI0
as((S'constant'
p585
g2
tp586
(S'fear'
p587
g5
tp588
tp589
(lp590
I0
aI1
aI0
as((S"n't"
p591
g16
tp592
(S'work'
p593
g19
tp594
tp595
(lp596
I0
aI1
aI0
as((S'great'
p597
g2
tp598
(S'palce'
p599
g5
tp600
tp601
(lp602
I0
aI1
aI0
as((S'however'
p603
g16
tp604
(S'balanced'
p605
g87
tp606
tp607
(lp608
I0
aI0
aI1
as((S'internal'
p609
g2
tp610
(S'battle'
p611
g5
tp612
tp613
(lp614
I0
aI1
aI0
as((S'poor'
p615
g2
tp616
(S'culture/environment'
p617
g2
tp618
tp619
(lp620
I0
aI1
aI0
as((S'Free-Fire'
p621
g2
tp622
(S'Zone'
p623
g5
tp624
tp625
(lp626
I0
aI1
aI0
as((S'Politically'
p627
g16
tp628
(S'focused'
p629
g87
tp630
tp631
(lp632
I0
aI1
aI0
as((S'never'
p633
g16
tp634
(S'straight'
p635
g2
tp636
tp637
(lp638
I0
aI1
aI0
as((S'comparable'
p639
g2
tp640
(S'auto'
p641
g5
tp642
tp643
(lp644
I0
aI1
aI0
as((S'nice'
p645
g2
tp646
(S'bonus'
p647
g5
tp648
tp649
(lp650
I0
aI0
aI1
as((S'not'
p651
g16
tp652
(S'bitter'
p653
g2
tp654
tp655
(lp656
I0
aI1
aI0
as((S'cool'
p657
g2
tp658
(S'people'
p659
g106
tp660
tp661
(lp662
I0
aI0
aI1
as((S'not'
p663
g16
tp664
(S'follow'
p665
g19
tp666
tp667
(lp668
I0
aI1
aI0
as((S'onsite'
p669
g2
tp670
(S'cafeteria'
p671
g5
tp672
tp673
(lp674
I0
aI0
aI1
as((S"n't"
p675
g16
tp676
(S'find'
p677
g19
tp678
tp679
(lp680
I0
aI1
aI0
as((S'Constantly'
p681
g16
tp682
(S'changing'
p683
g32
tp684
tp685
(lp686
I0
aI1
aI0
as((S'great'
p687
g2
tp688
(S'people'
p689
g106
tp690
tp691
(lp692
I0
aI2
aI0
as((S'great'
p693
g2
tp694
(S'experience'
p695
g5
tp696
tp697
(lp698
I0
aI0
aI1
as((S'bad'
p699
g2
tp700
(S'department'
p701
g5
tp702
tp703
(lp704
I0
aI1
aI0
as((S'good'
p705
g2
tp706
(S'location'
p707
g5
tp708
tp709
(lp710
I0
aI0
aI1
as((S'REALLY'
p711
g16
tp712
(S'nice'
p713
g2
tp714
tp715
(lp716
I0
aI0
aI1
as((S'many'
p717
g2
tp718
(S'employees'
p719
g106
tp720
tp721
(lp722
I0
aI0
aI1
as((S'technical'
p723
g2
tp724
(S'knowledge'
p725
g5
tp726
tp727
(lp728
I0
aI2
aI0
as((S'partly'
p729
g16
tp730
(S'dictated'
p731
g87
tp732
tp733
(lp734
I0
aI1
aI0
as((S'strong'
p735
g2
tp736
(S'skill'
p737
g5
tp738
tp739
(lp740
I0
aI0
aI1
as((S'global'
p741
g2
tp742
(S'company'
p743
g5
tp744
tp745
(lp746
I0
aI1
aI1
as((S'not'
p747
g16
tp748
(S'get'
p749
g19
tp750
tp751
(lp752
I0
aI1
aI0
as((S'great'
p753
g2
tp754
(S'products'
p755
g106
tp756
tp757
(lp758
I0
aI1
aI0
as((S"n't"
p759
g16
tp760
(S'like'
p761
g19
tp762
tp763
(lp764
I0
aI0
aI1
as((S'terrible'
p765
g2
tp766
(S')'
p767
g5
tp768
tp769
(lp770
I0
aI1
aI0
as((S'cubical'
p771
g2
tp772
(S'walls'
p773
g106
tp774
tp775
(lp776
I0
aI1
aI0
as((S'charitable'
p777
g2
tp778
(S'contributions'
p779
g106
tp780
tp781
(lp782
I0
aI0
aI1
as((S'very'
p783
g16
tp784
(S'fair'
p785
g2
tp786
tp787
(lp788
I0
aI0
aI1
as((S'bad'
p789
g2
tp790
(S'managment'
p791
g5
tp792
tp793
(lp794
I0
aI1
aI0
as((S'steadily'
p795
g16
tp796
(S'declined'
p797
g87
tp798
tp799
(lp800
I0
aI1
aI0
as((S'very'
p801
g16
tp802
(S'pleasant'
p803
g2
tp804
tp805
(lp806
I0
aI0
aI1
as((S'low'
p807
g2
tp808
(S'pay'
p809
g5
tp810
tp811
(lp812
I0
aI2
aI0
as((S'enough'
p813
g16
tp814
(S'associated'
p815
g87
tp816
tp817
(lp818
I0
aI1
aI0
as((S'not'
p819
g16
tp820
(S'welcome'
p821
g19
tp822
tp823
(lp824
I0
aI1
aI0
as((S'not'
p825
g16
tp826
(S'encourage'
p827
g19
tp828
tp829
(lp830
I0
aI1
aI0
as((S'not'
p831
g16
tp832
(S'rewarded'
p833
g87
tp834
tp835
(lp836
I0
aI1
aI0
as((S'Once'
p837
g16
tp838
(S'rewarding'
p839
g32
tp840
tp841
(lp842
I0
aI1
aI0
as((S'much'
p843
g2
tp844
(S'smoke'
p845
g5
tp846
tp847
(lp848
I0
aI1
aI0
as((S'top'
p849
g2
tp850
(S'notch'
p851
g5
tp852
tp853
(lp854
I0
aI0
aI1
as((S'definitely'
p855
g16
tp856
(S'superior'
p857
g2
tp858
tp859
(lp860
I0
aI1
aI0
as((S'much'
p861
g2
tp862
(S'workload'
p863
g5
tp864
tp865
(lp866
I0
aI1
aI0
as((S'old'
p867
g2
tp868
(S'style'
p869
g5
tp870
tp871
(lp872
I0
aI1
aI0
as((S'now'
p873
g16
tp874
(S'tired'
p875
g87
tp876
tp877
(lp878
I0
aI1
aI0
as((S'manner'
p879
g5
tp880
(S'similar'
p881
g2
tp882
tp883
(lp884
I0
aI1
aI0
as((S'nice'
p885
g2
tp886
(S'place'
p887
g5
tp888
tp889
(lp890
I0
aI0
aI1
as((S'insiders'
p891
g106
tp892
(S'and/or'
p893
g2
tp894
tp895
(lp896
I0
aI0
aI1
as((S'average'
p897
g2
tp898
(S'pay'
p899
g5
tp900
tp901
(lp902
I0
aI1
aI0
as((S'often'
p903
g16
tp904
(S'cancelled'
p905
g87
tp906
tp907
(lp908
I0
aI1
aI0
as((S'current'
p909
g2
tp910
(S'employer'
p911
g5
tp912
tp913
(lp914
I0
aI0
aI1
as((S'not'
p915
g16
tp916
(S'diverse'
p917
g19
tp918
tp919
(lp920
I0
aI1
aI0
as((S'overwork/overstressed'
p921
g2
tp922
(S'environment'
p923
g5
tp924
tp925
(lp926
I0
aI1
aI0
as((S'Ridiculous'
p927
g2
tp928
(S'salary'
p929
g5
tp930
tp931
(lp932
I0
aI1
aI0
as((S'Many'
p933
g2
tp934
(S'Many'
p935
g2
tp936
tp937
(lp938
I0
aI1
aI0
as((S'poor'
p939
g2
tp940
(S'execution'
p941
g5
tp942
tp943
(lp944
I0
aI1
aI0
as((S'politically'
p945
g16
tp946
(S'correct'
p947
g2
tp948
tp949
(lp950
I0
aI1
aI0
as((S'bad'
p951
g2
tp952
(S'place'
p953
g5
tp954
tp955
(lp956
I0
aI0
aI1
as((S'Unmatched'
p957
g2
tp958
(S'suite'
p959
g5
tp960
tp961
(lp962
I0
aI0
aI1
as((S'numbingly'
p963
g16
tp964
(S'dull'
p965
g2
tp966
tp967
(lp968
I0
aI1
aI0
as((S'managers.And'
p969
g2
tp970
(S'department'
p971
g5
tp972
tp973
(lp974
I0
aI1
aI0
as((S'are'
p975
g2
tp976
(S'nice'
p977
g2
tp978
tp979
(lp980
I0
aI0
aI1
as((S'Incredible'
p981
g2
tp982
(S'resources'
p983
g106
tp984
tp985
(lp986
I0
aI0
aI1
as((S'Japanese'
p987
g2
tp988
(S'culture'
p989
g5
tp990
tp991
(lp992
I0
aI1
aI0
as((S'add'
p993
g2
tp994
(S'expenses'
p995
g106
tp996
tp997
(lp998
I0
aI1
aI0
as((S'too'
p999
g16
tp1000
(S'policitical'
p1001
g2
tp1002
tp1003
(lp1004
I0
aI1
aI0
as((S'not'
p1005
g16
tp1006
(S'ideal'
p1007
g2
tp1008
tp1009
(lp1010
I0
aI1
aI0
as((S'well'
p1011
g16
tp1012
(S'defined'
p1013
g87
tp1014
tp1015
(lp1016
I0
aI1
aI0
as((S'very'
p1017
g16
tp1018
(S'exciting'
p1019
g32
tp1020
tp1021
(lp1022
I0
aI1
aI0
as((S'good'
p1023
g2
tp1024
(S'manager'
p1025
g5
tp1026
tp1027
(lp1028
I0
aI0
aI1
as((S'many'
p1029
g2
tp1030
(S'hours'
p1031
g106
tp1032
tp1033
(lp1034
I0
aI2
aI0
as((S'awful'
p1035
g2
tp1036
(S'company'
p1037
g5
tp1038
tp1039
(lp1040
I0
aI0
aI1
as((S'regional'
p1041
g2
tp1042
(S'teams'
p1043
g106
tp1044
tp1045
(lp1046
I0
aI1
aI0
as((S'poor'
p1047
g2
tp1048
(S'respect'
p1049
g5
tp1050
tp1051
(lp1052
I0
aI1
aI0
as((S"n't"
p1053
g16
tp1054
(S'be'
p1055
g19
tp1056
tp1057
(lp1058
I0
aI0
aI1
as((S'Too'
p1059
g16
tp1060
(S'many'
p1061
g2
tp1062
tp1063
(lp1064
I0
aI1
aI0
as((S'different'
p1065
g2
tp1066
(S'backgrounds'
p1067
g106
tp1068
tp1069
(lp1070
I0
aI0
aI1
as((S'very'
p1071
g16
tp1072
(S'flexible'
p1073
g2
tp1074
tp1075
(lp1076
I0
aI0
aI1
as((S'Not'
p1077
g16
tp1078
(S'open'
p1079
g2
tp1080
tp1081
(lp1082
I0
aI1
aI0
as((S'future'
p1083
g2
tp1084
(S'employment'
p1085
g5
tp1086
tp1087
(lp1088
I0
aI0
aI1
as((S'skilled'
p1089
g2
tp1090
(S'positions'
p1091
g106
tp1092
tp1093
(lp1094
I0
aI1
aI0
as((S'laid'
p1095
g2
tp1096
(S'back'
p1097
g5
tp1098
tp1099
(lp1100
I0
aI0
aI1
as((S'very'
p1101
g16
tp1102
(S'good'
p1103
g2
tp1104
tp1105
(lp1106
I0
aI0
aI1
as((S"n't"
p1107
g16
tp1108
(S'come'
p1109
g19
tp1110
tp1111
(lp1112
I0
aI1
aI0
as((S'very'
p1113
g16
tp1114
(S'large'
p1115
g2
tp1116
tp1117
(lp1118
I0
aI0
aI2
as((S'even'
p1119
g16
tp1120
(S'ask'
p1121
g19
tp1122
tp1123
(lp1124
I0
aI1
aI0
as((S'competitive'
p1125
g2
tp1126
(S'employees'
p1127
g106
tp1128
tp1129
(lp1130
I0
aI1
aI0
as((S'not'
p1131
g16
tp1132
(S'French'
p1133
g2
tp1134
tp1135
(lp1136
I0
aI1
aI0
as((S'new'
p1137
g2
tp1138
(S'technology'
p1139
g5
tp1140
tp1141
(lp1142
I0
aI0
aI1
as((S'not'
p1143
g16
tp1144
(S'provide'
p1145
g19
tp1146
tp1147
(lp1148
I0
aI1
aI0
as((S'interesting'
p1149
g2
tp1150
(S'position'
p1151
g5
tp1152
tp1153
(lp1154
I0
aI0
aI1
as((S'almost'
p1155
g16
tp1156
(S'impossible'
p1157
g2
tp1158
tp1159
(lp1160
I0
aI0
aI1
as((S'not'
p1161
g16
tp1162
(S'believe'
p1163
g19
tp1164
tp1165
(lp1166
I0
aI1
aI0
as((S'seasonal'
p1167
g2
tp1168
(S'help'
p1169
g5
tp1170
tp1171
(lp1172
I0
aI1
aI0
as((S'lines.Your'
p1173
g2
tp1174
(S'clothing'
p1175
g5
tp1176
tp1177
(lp1178
I0
aI1
aI0
as((S'Never'
p1179
g16
tp1180
(S'got'
p1181
g437
tp1182
tp1183
(lp1184
I0
aI1
aI0
as((S'complete'
p1185
g2
tp1186
(S'distraction'
p1187
g5
tp1188
tp1189
(lp1190
I0
aI1
aI0
as((S'major'
p1191
g2
tp1192
(S'oil'
p1193
g5
tp1194
tp1195
(lp1196
I0
aI0
aI1
as((S'big'
p1197
g2
tp1198
(S'brother'
p1199
g5
tp1200
tp1201
(lp1202
I0
aI1
aI0
as((S'very'
p1203
g16
tp1204
(S'understanding'
p1205
g32
tp1206
tp1207
(lp1208
I0
aI0
aI1
as((S'not'
p1209
g16
tp1210
(S'interfering'
p1211
g32
tp1212
tp1213
(lp1214
I0
aI0
aI1
as((S'Many'
p1215
g2
tp1216
(S'lazy'
p1217
g5
tp1218
tp1219
(lp1220
I0
aI1
aI0
as((S"n't"
p1221
g16
tp1222
(S'fantastic'
p1223
g2
tp1224
tp1225
(lp1226
I0
aI1
aI0
as((S'wide'
p1227
g2
tp1228
(S'range'
p1229
g5
tp1230
tp1231
(lp1232
I0
aI0
aI1
as((S'good'
p1233
g2
tp1234
(g99
g5
tp1235
tp1236
(lp1237
I0
aI0
aI1
as((S'much'
p1238
g16
tp1239
(S'hidden'
p1240
g87
tp1241
tp1242
(lp1243
I0
aI1
aI0
as((S'innovative'
p1244
g2
tp1245
(S'products'
p1246
g106
tp1247
tp1248
(lp1249
I0
aI0
aI1
as((S'pleasant'
p1250
g2
tp1251
(S'environment'
p1252
g5
tp1253
tp1254
(lp1255
I0
aI0
aI1
as((S'not'
p1256
g16
tp1257
(S'premote'
p1258
g19
tp1259
tp1260
(lp1261
I0
aI1
aI0
as((S'overall'
p1262
g2
tp1263
(S'company'
p1264
g5
tp1265
tp1266
(lp1267
I0
aI1
aI0
as((S'not'
p1268
g16
tp1269
(S'increase'
p1270
g19
tp1271
tp1272
(lp1273
I0
aI1
aI0
as((S'terrible'
p1274
g2
tp1275
(S'company'
p1276
g5
tp1277
tp1278
(lp1279
I0
aI1
aI0
as((S'upper'
p1280
g2
tp1281
(S'managers'
p1282
g106
tp1283
tp1284
(lp1285
I0
aI0
aI1
as((S'mental'
p1286
g2
tp1287
(S'instability'
p1288
g5
tp1289
tp1290
(lp1291
I0
aI1
aI0
as((S'autocratic'
p1292
g2
tp1293
(S'culture'
p1294
g5
tp1295
tp1296
(lp1297
I0
aI1
aI0
as((S'monthly'
p1298
g2
tp1299
(S'service'
p1300
g5
tp1301
tp1302
(lp1303
I0
aI0
aI1
as((S'political'
p1304
g2
tp1305
(S'untochables'
p1306
g106
tp1307
tp1308
(lp1309
I0
aI1
aI0
as((S'not'
p1310
g16
tp1311
(S'changed'
p1312
g87
tp1313
tp1314
(lp1315
I0
aI1
aI0
as((S'great'
p1316
g2
tp1317
(S'place'
p1318
g5
tp1319
tp1320
(lp1321
I0
aI1
aI0
as((S'first'
p1322
g2
tp1323
(S'class'
p1324
g5
tp1325
tp1326
(lp1327
I0
aI1
aI0
as((S'poorly'
p1328
g16
tp1329
(S'paid'
p1330
g87
tp1331
tp1332
(lp1333
I0
aI1
aI0
as((S'next'
p1334
g2
tp1335
(S'reduction'
p1336
g5
tp1337
tp1338
(lp1339
I0
aI1
aI0
as((S'good/bad'
p1340
g2
tp1341
(S'feedback'
p1342
g5
tp1343
tp1344
(lp1345
I0
aI1
aI0
as((S'great'
p1346
g2
tp1347
(S'Market'
p1348
g5
tp1349
tp1350
(lp1351
I0
aI0
aI1
as((S"n't"
p1352
g16
tp1353
(S'get'
p1354
g19
tp1355
tp1356
(lp1357
I0
aI1
aI0
as((S'many'
p1358
g2
tp1359
(S'people'
p1360
g106
tp1361
tp1362
(lp1363
I0
aI3
aI1
as((S'good'
p1364
g2
tp1365
(S'benefits'
p1366
g106
tp1367
tp1368
(lp1369
I0
aI0
aI3
as((S'German'
p1370
g2
tp1371
(S'workers'
p1372
g106
tp1373
tp1374
(lp1375
I0
aI0
aI1
as((S'never'
p1376
g16
tp1377
(S'knew'
p1378
g437
tp1379
tp1380
(lp1381
I0
aI1
aI0
as((S'great'
p1382
g2
tp1383
(S'Many'
p1384
g2
tp1385
tp1386
(lp1387
I0
aI0
aI1
as((S'very'
p1388
g16
tp1389
(S'competitive'
p1390
g2
tp1391
tp1392
(lp1393
I0
aI0
aI1
as((S'only'
p1394
g16
tp1395
(S'promote'
p1396
g19
tp1397
tp1398
(lp1399
I0
aI1
aI0
as((S'educational'
p1400
g2
tp1401
(S'opportunities'
p1402
g106
tp1403
tp1404
(lp1405
I0
aI0
aI1
as((S'great'
p1406
g2
tp1407
(S'company'
p1408
g5
tp1409
tp1410
(lp1411
I0
aI0
aI1
as((S'wide'
p1412
g2
tp1413
(S'variety'
p1414
g5
tp1415
tp1416
(lp1417
I0
aI0
aI1
as((S'never'
p1418
g16
tp1419
(S'seen'
p1420
g87
tp1421
tp1422
(lp1423
I0
aI1
aI0
as((S'good'
p1424
g2
tp1425
(S'team'
p1426
g5
tp1427
tp1428
(lp1429
I0
aI0
aI1
as((S'entire'
p1430
g2
tp1431
(S'management/leadership'
p1432
g5
tp1433
tp1434
(lp1435
I0
aI1
aI0
as((S'professional'
p1436
g2
tp1437
(S'growth'
p1438
g5
tp1439
tp1440
(lp1441
I0
aI1
aI0
as((S'good'
p1442
g2
tp1443
(S'terms'
p1444
g106
tp1445
tp1446
(lp1447
I0
aI1
aI0
as((S'not'
p1448
g16
tp1449
(S'encouraged'
p1450
g2
tp1451
tp1452
(lp1453
I0
aI1
aI0
as((S'many'
p1454
g2
tp1455
(S'layers'
p1456
g106
tp1457
tp1458
(lp1459
I0
aI1
aI0
as((S'too'
p1460
g16
tp1461
(S'political'
p1462
g2
tp1463
tp1464
(lp1465
I0
aI1
aI0
as((S'Outstanding'
p1466
g2
tp1467
(S'reputation'
p1468
g5
tp1469
tp1470
(lp1471
I0
aI0
aI1
as((S'free'
p1472
g2
tp1473
(S'drinks'
p1474
g106
tp1475
tp1476
(lp1477
I0
aI0
aI1
as((S'little'
p1478
g2
tp1479
(S'guidance'
p1480
g5
tp1481
tp1482
(lp1483
I0
aI1
aI0
as((S'many'
p1484
g2
tp1485
(S'supervisors'
p1486
g106
tp1487
tp1488
(lp1489
I0
aI1
aI0
as((S'not'
p1490
g16
tp1491
(S'able'
p1492
g2
tp1493
tp1494
(lp1495
I0
aI1
aI0
as((S'current'
p1496
g2
tp1497
(S'leadership'
p1498
g5
tp1499
tp1500
(lp1501
I0
aI0
aI1
as((S'corporate'
p1502
g2
tp1503
(S'interference'
p1504
g5
tp1505
tp1506
(lp1507
I0
aI1
aI0
as((S'exciting'
p1508
g2
tp1509
(S'place'
p1510
g5
tp1511
tp1512
(lp1513
I0
aI0
aI1
as((S'automotive'
p1514
g2
tp1515
(S'leader'
p1516
g5
tp1517
tp1518
(lp1519
I0
aI0
aI1
as((S'such'
p1520
g2
tp1521
(S'examples'
p1522
g106
tp1523
tp1524
(lp1525
I0
aI1
aI0
as((S'couple'
p1526
g2
tp1527
(S'years'
p1528
g106
tp1529
tp1530
(lp1531
I0
aI1
aI0
as((S'sprawling'
p1532
g2
tp1533
(S'bureaucracy'
p1534
g5
tp1535
tp1536
(lp1537
I0
aI1
aI0
as((S'not'
p1538
g16
tp1539
(S'take'
p1540
g19
tp1541
tp1542
(lp1543
I0
aI1
aI0
as((S'diverse'
p1544
g2
tp1545
(S'employees'
p1546
g106
tp1547
tp1548
(lp1549
I0
aI1
aI0
as((S'dynamic'
p1550
g2
tp1551
(S'atmosphere'
p1552
g5
tp1553
tp1554
(lp1555
I0
aI1
aI0
as((S'not'
p1556
g16
tp1557
(S'challenging'
p1558
g32
tp1559
tp1560
(lp1561
I0
aI1
aI0
as((S'non-management'
p1562
g2
tp1563
(S'employees'
p1564
g106
tp1565
tp1566
(lp1567
I0
aI2
aI0
as((S'Competitive'
p1568
g2
tp1569
(S'salary'
p1570
g5
tp1571
tp1572
(lp1573
I0
aI0
aI1
as((S'too'
p1574
g16
tp1575
(S'worried'
p1576
g87
tp1577
tp1578
(lp1579
I0
aI1
aI0
as((S'literally'
p1580
g16
tp1581
(S'nauseating'
p1582
g32
tp1583
tp1584
(lp1585
I0
aI1
aI0
as((S'not'
p1586
g16
tp1587
(S'make'
p1588
g19
tp1589
tp1590
(lp1591
I0
aI1
aI0
as((S'minimum'
p1592
g2
tp1593
(S'wage'
p1594
g5
tp1595
tp1596
(lp1597
I0
aI1
aI0
as((S'actual'
p1598
g2
tp1599
(S'ability'
p1600
g5
tp1601
tp1602
(lp1603
I0
aI1
aI0
as((S'knowledgeable'
p1604
g2
tp1605
(S'colleagues'
p1606
g106
tp1607
tp1608
(lp1609
I0
aI0
aI1
as((S'not'
p1610
g16
tp1611
(S'be'
p1612
g19
tp1613
tp1614
(lp1615
I0
aI1
aI0
as((S'too'
p1616
g16
tp1617
(S'many'
p1618
g2
tp1619
tp1620
(lp1621
I0
aI0
aI1
as((S'creative'
p1622
g2
tp1623
(S'problem'
p1624
g5
tp1625
tp1626
(lp1627
I0
aI1
aI0
as((S'non-exempt'
p1628
g2
tp1629
(S'workforce'
p1630
g5
tp1631
tp1632
(lp1633
I0
aI0
aI1
as((S"n't"
p1634
g16
tp1635
(S'weeded'
p1636
g87
tp1637
tp1638
(lp1639
I0
aI1
aI0
as((S'On-site'
p1640
g2
tp1641
(S'cafereria'
p1642
g5
tp1643
tp1644
(lp1645
I0
aI0
aI1
as((S'personal'
p1646
g2
tp1647
(S'line'
p1648
g5
tp1649
tp1650
(lp1651
I0
aI0
aI1
as((S'poor'
p1652
g2
tp1653
(S'management'
p1654
g5
tp1655
tp1656
(lp1657
I0
aI0
aI1
as((S'dead'
p1658
g2
tp1659
(S'weight'
p1660
g5
tp1661
tp1662
(lp1663
I0
aI1
aI0
as((S'vacation'
p1664
g5
tp1665
(S'non-existant'
p1666
g2
tp1667
tp1668
(lp1669
I0
aI1
aI0
as((S'long'
p1670
g2
tp1671
(S'time'
p1672
g5
tp1673
tp1674
(lp1675
I0
aI0
aI1
as((S'Highly'
p1676
g16
tp1677
(S'politicized'
p1678
g87
tp1679
tp1680
(lp1681
I0
aI1
aI0
as((S'recent'
p1682
g2
tp1683
(S'graduates'
p1684
g106
tp1685
tp1686
(lp1687
I0
aI0
aI1
as((S"n't"
p1688
g16
tp1689
(S'much'
p1690
g2
tp1691
tp1692
(lp1693
I0
aI1
aI0
as((S'High'
p1694
g2
tp1695
(S'attrition'
p1696
g5
tp1697
tp1698
(lp1699
I0
aI1
aI0
as((S"n't"
p1700
g16
tp1701
(S'promote'
p1702
g19
tp1703
tp1704
(lp1705
I0
aI1
aI0
as((S'not'
p1706
g16
tp1707
(S'employee'
p1708
g19
tp1709
tp1710
(lp1711
I0
aI1
aI0
as((S'not'
p1712
g16
tp1713
(S'listen'
p1714
g19
tp1715
tp1716
(lp1717
I0
aI1
aI0
as((S'whole'
p1718
g2
tp1719
(S'organization'
p1720
g5
tp1721
tp1722
(lp1723
I0
aI1
aI0
as((S'same'
p1724
g2
tp1725
(S'grade'
p1726
g5
tp1727
tp1728
(lp1729
I0
aI1
aI0
as((S'very'
p1730
g16
tp1731
(S'slow'
p1732
g2
tp1733
tp1734
(lp1735
I0
aI2
aI0
as((S'rather'
p1736
g16
tp1737
(S'suggest'
p1738
g19
tp1739
tp1740
(lp1741
I0
aI1
aI0
as((S'only'
p1742
g16
tp1743
(S'value'
p1744
g19
tp1745
tp1746
(lp1747
I0
aI1
aI0
as((S'good'
p1748
g2
tp1749
(S'rewards'
p1750
g106
tp1751
tp1752
(lp1753
I0
aI1
aI0
as((S'incredible'
p1754
g2
tp1755
(S'talent'
p1756
g5
tp1757
tp1758
(lp1759
I0
aI0
aI1
as((S'alone'
p1760
g16
tp1761
(S'learn'
p1762
g19
tp1763
tp1764
(lp1765
I0
aI1
aI0
as((S'not'
p1766
g16
tp1767
(S'care'
p1768
g19
tp1769
tp1770
(lp1771
I0
aI1
aI0
as((S'young'
p1772
g2
tp1773
(S'people'
p1774
g106
tp1775
tp1776
(lp1777
I0
aI1
aI0
as((S'poor'
p1778
g2
tp1779
(S'performance'
p1780
g5
tp1781
tp1782
(lp1783
I0
aI1
aI0
as((S'political'
p1784
g2
tp1785
(S'game'
p1786
g5
tp1787
tp1788
(lp1789
I0
aI1
aI0
as((S'good'
p1790
g2
tp1791
(S'company'
p1792
g5
tp1793
tp1794
(lp1795
I0
aI1
aI0
as((S'flexible'
p1796
g2
tp1797
(S'schedule'
p1798
g5
tp1799
tp1800
(lp1801
I0
aI0
aI1
as((S'great'
p1802
g2
tp1803
(S'customer'
p1804
g5
tp1805
tp1806
(lp1807
I0
aI0
aI1
as((S'only'
p1808
g2
tp1809
(S'pro'
p1810
g5
tp1811
tp1812
(lp1813
I0
aI0
aI1
as((S'own'
p1814
g2
tp1815
(S'paycheck'
p1816
g5
tp1817
tp1818
(lp1819
I0
aI0
aI1
as((S'wonderful'
p1820
g2
tp1821
(S'company'
p1822
g5
tp1823
tp1824
(lp1825
I0
aI1
aI0
as((S'great'
p1826
g2
tp1827
(S'benefits'
p1828
g106
tp1829
tp1830
(lp1831
I0
aI0
aI4
as((S'not'
p1832
g16
tp1833
(S'grow'
p1834
g19
tp1835
tp1836
(lp1837
I0
aI1
aI0
as((S'other'
p1838
g2
tp1839
(S'departments'
p1840
g106
tp1841
tp1842
(lp1843
I0
aI1
aI1
as((S'promotion/'
p1844
g2
tp1845
(S'recognition'
p1846
g5
tp1847
tp1848
(lp1849
I0
aI1
aI0
as((S'Extremely'
p1850
g16
tp1851
(S'tiring'
p1852
g32
tp1853
tp1854
(lp1855
I0
aI1
aI0
as((S'Outside'
p1856
g2
tp1857
(S'vendor'
p1858
g5
tp1859
tp1860
(lp1861
I0
aI0
aI1
as((S'now'
p1862
g16
tp1863
(S'regrettable'
p1864
g2
tp1865
tp1866
(lp1867
I0
aI1
aI0
as((S'never'
p1868
g16
tp1869
(S'clear'
p1870
g2
tp1871
tp1872
(lp1873
I0
aI1
aI0
as((S'many'
p1874
g2
tp1875
(S'opportunities'
p1876
g106
tp1877
tp1878
(lp1879
I0
aI0
aI2
as((S'stupid'
p1880
g2
tp1881
(S'Cashiers'
p1882
g106
tp1883
tp1884
(lp1885
I0
aI1
aI0
as((S'other'
p1886
g2
tp1887
(S'divisions'
p1888
g106
tp1889
tp1890
(lp1891
I0
aI1
aI0
as((S'corporate'
p1892
g2
tp1893
(S'culture'
p1894
g5
tp1895
tp1896
(lp1897
I0
aI1
aI0
as((S'idealistic'
p1898
g2
tp1899
(S'view'
p1900
g5
tp1901
tp1902
(lp1903
I0
aI0
aI1
as((S'so'
p1904
g16
tp1905
(S'forth'
p1906
g2
tp1907
tp1908
(lp1909
I0
aI1
aI0
as((S'much'
p1910
g2
tp1911
(S'labor'
p1912
g5
tp1913
tp1914
(lp1915
I0
aI1
aI0
as((S'professional'
p1916
g2
tp1917
(S'positions'
p1918
g106
tp1919
tp1920
(lp1921
I0
aI1
aI0
as((S'not'
p1922
g16
tp1923
(S'replacing'
p1924
g32
tp1925
tp1926
(lp1927
I0
aI1
aI0
as((S'ever'
p1928
g16
tp1929
(S'had'
p1930
g437
tp1931
tp1932
(lp1933
I0
aI1
aI0
as((S'new'
p1934
g2
tp1935
(S'stuff'
p1936
g5
tp1937
tp1938
(lp1939
I0
aI0
aI1
as((S'lifelong'
p1940
g2
tp1941
(S'friends'
p1942
g106
tp1943
tp1944
(lp1945
I0
aI0
aI2
as((S'deplorable'
p1946
g2
tp1947
(S'environment'
p1948
g5
tp1949
tp1950
(lp1951
I0
aI1
aI0
as((S'safe'
p1952
g2
tp1953
(S'work'
p1954
g5
tp1955
tp1956
(lp1957
I0
aI0
aI1
as((S'-Solid'
p1958
g2
tp1959
(S'time'
p1960
g5
tp1961
tp1962
(lp1963
I0
aI0
aI1
as((S'Too'
p1964
g16
tp1965
(S'much'
p1966
g2
tp1967
tp1968
(lp1969
I0
aI1
aI0
as((S'constant'
p1970
g2
tp1971
(S'threat'
p1972
g5
tp1973
tp1974
(lp1975
I0
aI1
aI0
as((S"n't"
p1976
g16
tp1977
(S'offer'
p1978
g19
tp1979
tp1980
(lp1981
I0
aI1
aI0
as((S'negative'
p1982
g2
tp1983
(S'environment'
p1984
g5
tp1985
tp1986
(lp1987
I0
aI1
aI0
as((S'good'
p1988
g2
tp1989
(S'work'
p1990
g5
tp1991
tp1992
(lp1993
I0
aI0
aI2
as((S'new'
p1994
g2
tp1995
(S'reward'
p1996
g5
tp1997
tp1998
(lp1999
I0
aI1
aI0
as((S'daily'
p2000
g2
tp2001
(S'ta'
p2002
g5
tp2003
tp2004
(lp2005
I0
aI1
aI0
as((S'casual'
p2006
g2
tp2007
(S'workplace'
p2008
g5
tp2009
tp2010
(lp2011
I0
aI0
aI1
as((S'good'
p2012
g2
tp2013
(S'went'
p2014
g5
tp2015
tp2016
(lp2017
I0
aI1
aI0
as((S'free'
p2018
g2
tp2019
(S't-shirts'
p2020
g106
tp2021
tp2022
(lp2023
I0
aI0
aI1
as((S'nothing'
p2024
g5
tp2025
(S'good'
p2026
g2
tp2027
tp2028
(lp2029
I0
aI0
aI1
as((S'Huge'
p2030
g2
tp2031
(S'company'
p2032
g5
tp2033
tp2034
(lp2035
I0
aI1
aI0
as((S'Great'
p2036
g2
tp2037
(S'place'
p2038
g5
tp2039
tp2040
(lp2041
I0
aI0
aI1
as((S'retail'
p2042
g2
tp2043
(S'amp'
p2044
g5
tp2045
tp2046
(lp2047
I0
aI1
aI0
as((S'different'
p2048
g2
tp2049
(S'departments'
p2050
g106
tp2051
tp2052
(lp2053
I0
aI1
aI0
as((S'ever'
p2054
g16
tp2055
(S'went'
p2056
g437
tp2057
tp2058
(lp2059
I0
aI1
aI0
as((S'Generous'
p2060
g2
tp2061
(S'vacation'
p2062
g5
tp2063
tp2064
(lp2065
I0
aI0
aI1
as((S'Vindictive'
p2066
g2
tp2067
(S'leadership'
p2068
g5
tp2069
tp2070
(lp2071
I0
aI1
aI0
as((S'pretty'
p2072
g16
tp2073
(S'good'
p2074
g2
tp2075
tp2076
(lp2077
I0
aI0
aI1
as((S'very'
p2078
g16
tp2079
(S'boring'
p2080
g32
tp2081
tp2082
(lp2083
I0
aI1
aI0
as((S'rich'
p2084
g2
tp2085
(S'career'
p2086
g5
tp2087
tp2088
(lp2089
I0
aI0
aI1
as((S'very'
p2090
g16
tp2091
(S'political'
p2092
g2
tp2093
tp2094
(lp2095
I0
aI2
aI0
as((S'there'
p2096
g16
tp2097
(S'longer.They'
p2098
g2
tp2099
tp2100
(lp2101
I0
aI1
aI0
as((S'work/life'
p2102
g2
tp2103
(S'balance'
p2104
g5
tp2105
tp2106
(lp2107
I0
aI0
aI1
as((S'central'
p2108
g2
tp2109
(S'decision'
p2110
g5
tp2111
tp2112
(lp2113
I0
aI1
aI0
as((S'Enormously'
p2114
g16
tp2115
(S'challenged'
p2116
g437
tp2117
tp2118
(lp2119
I0
aI1
aI0
as((S'Highly'
p2120
g16
tp2121
(S'unstable'
p2122
g2
tp2123
tp2124
(lp2125
I0
aI1
aI0
as((S'bureaucratic'
p2126
g2
tp2127
(S'/'
p2128
g5
tp2129
tp2130
(lp2131
I0
aI1
aI0
as((S'great'
p2132
g2
tp2133
(S'ideas'
p2134
g106
tp2135
tp2136
(lp2137
I0
aI0
aI1
as(g1235
(S'i.e'
p2138
g2
tp2139
tp2140
(lp2141
I0
aI0
aI1
as((S'senior'
p2142
g2
tp2143
(S'managers'
p2144
g106
tp2145
tp2146
(lp2147
I0
aI1
aI0
as((S'long'
p2148
g2
tp2149
(S'hours'
p2150
g106
tp2151
tp2152
(lp2153
I0
aI1
aI0
as((S'stressful'
p2154
g2
tp2155
(S'work'
p2156
g5
tp2157
tp2158
(lp2159
I0
aI1
aI0
as((S'global'
p2160
g2
tp2161
(S'consulting'
p2162
g5
tp2163
tp2164
(lp2165
I0
aI1
aI0
as((S'hard'
p2166
g16
tp2167
(S'work'
p2168
g19
tp2169
tp2170
(lp2171
I0
aI1
aI0
as((S'good'
p2172
g2
tp2173
(S'nurse'
p2174
g5
tp2175
tp2176
(lp2177
I0
aI0
aI1
as((S'corporate'
p2178
g2
tp2179
(S'policy'
p2180
g5
tp2181
tp2182
(lp2183
I0
aI1
aI0
as((S'full'
p2184
g2
tp2185
(S'time'
p2186
g5
tp2187
tp2188
(lp2189
I0
aI0
aI1
as((S'good'
p2190
g2
tp2191
(S'job'
p2192
g5
tp2193
tp2194
(lp2195
I0
aI1
aI0
as((S'absolutely'
p2196
g16
tp2197
(S'draining'
p2198
g32
tp2199
tp2200
(lp2201
I0
aI1
aI0
as((S'not'
p2202
g16
tp2203
(S'worth'
p2204
g2
tp2205
tp2206
(lp2207
I0
aI0
aI1
as((S'local'
p2208
g2
tp2209
(S'direction'
p2210
g5
tp2211
tp2212
(lp2213
I0
aI1
aI0
as((S'annual'
p2214
g2
tp2215
(S'plan'
p2216
g5
tp2217
tp2218
(lp2219
I0
aI1
aI0
as((S'Many'
p2220
g2
tp2221
(S'people'
p2222
g106
tp2223
tp2224
(lp2225
I0
aI0
aI1
as((S'Poorly'
p2226
g16
tp2227
(S'managed'
p2228
g87
tp2229
tp2230
(lp2231
I0
aI2
aI0
as((S'high'
p2232
g2
tp2233
(S'school'
p2234
g5
tp2235
tp2236
(lp2237
I0
aI2
aI0
as((S'actually'
p2238
g16
tp2239
(S'decent'
p2240
g2
tp2241
tp2242
(lp2243
I0
aI0
aI1
as((S'..the'
p2244
g2
tp2245
(S'company'
p2246
g5
tp2247
tp2248
(lp2249
I0
aI1
aI0
as((S'senior'
p2250
g2
tp2251
(S'manager'
p2252
g5
tp2253
tp2254
(lp2255
I0
aI1
aI0
as((S'other'
p2256
g2
tp2257
(S'jobs'
p2258
g106
tp2259
tp2260
(lp2261
I0
aI0
aI1
as((S'Japanese'
p2262
g2
tp2263
(S'management'
p2264
g5
tp2265
tp2266
(lp2267
I0
aI0
aI1
as((S'buddy'
p2268
g2
tp2269
(S'system'
p2270
g5
tp2271
tp2272
(lp2273
I0
aI1
aI0
as((S'hires'
p2274
g106
tp2275
(S'-All'
p2276
g2
tp2277
tp2278
(lp2279
I0
aI1
aI0
as((S'own'
p2280
g2
tp2281
(S'employees'
p2282
g106
tp2283
tp2284
(lp2285
I0
aI1
aI0
as((S'same'
p2286
g2
tp2287
(S'thing'
p2288
g5
tp2289
tp2290
(lp2291
I0
aI1
aI0
as((S'very'
p2292
g16
tp2293
(S'much'
p2294
g2
tp2295
tp2296
(lp2297
I0
aI1
aI0
as((S'many'
p2298
g2
tp2299
(S'grow'
p2300
g5
tp2301
tp2302
(lp2303
I0
aI0
aI1
as((S'not'
p2304
g16
tp2305
(S'reflect'
p2306
g19
tp2307
tp2308
(lp2309
I0
aI1
aI0
as((S'flexible'
p2310
g2
tp2311
(S'hours'
p2312
g106
tp2313
tp2314
(lp2315
I0
aI0
aI1
as((S"n't"
p2316
g16
tp2317
(S'have'
p2318
g19
tp2319
tp2320
(lp2321
I0
aI1
aI0
as((S'high'
p2322
g2
tp2323
(S'demand'
p2324
g5
tp2325
tp2326
(lp2327
I0
aI1
aI0
as((S'many'
p2328
g2
tp2329
(S'smoke'
p2330
g5
tp2331
tp2332
(lp2333
I0
aI1
aI0
as((S'educational'
p2334
g2
tp2335
(S'degrees'
p2336
g106
tp2337
tp2338
(lp2339
I0
aI1
aI0
as((S'poor'
p2340
g2
tp2341
(S'decision'
p2342
g5
tp2343
tp2344
(lp2345
I0
aI1
aI0
as((S'unbelievably'
p2346
g16
tp2347
(S'rude'
p2348
g2
tp2349
tp2350
(lp2351
I0
aI1
aI0
as((S'good'
p2352
g2
tp2353
(S'coworkers'
p2354
g106
tp2355
tp2356
(lp2357
I0
aI0
aI1
as((S'not'
p2358
g16
tp2359
(S'know'
p2360
g19
tp2361
tp2362
(lp2363
I0
aI0
aI1
as((S'essential'
p2364
g2
tp2365
(S'departments'
p2366
g106
tp2367
tp2368
(lp2369
I0
aI1
aI0
as((S'still'
p2370
g16
tp2371
(S'required'
p2372
g87
tp2373
tp2374
(lp2375
I0
aI1
aI0
as((S'good'
p2376
g2
tp2377
(S'people'
p2378
g106
tp2379
tp2380
(lp2381
I0
aI1
aI5
as((S'leads.Your'
p2382
g2
tp2383
(S'hard'
p2384
g5
tp2385
tp2386
(lp2387
I0
aI1
aI0
as((S'low'
p2388
g2
tp2389
(S'salary'
p2390
g5
tp2391
tp2392
(lp2393
I0
aI1
aI0
as((S'various'
p2394
g2
tp2395
(S'departments'
p2396
g106
tp2397
tp2398
(lp2399
I0
aI0
aI1
as((S'rough'
p2400
g2
tp2401
(S'patch'
p2402
g5
tp2403
tp2404
(lp2405
I0
aI1
aI0
as((S'political'
p2406
g2
tp2407
(S'company'
p2408
g5
tp2409
tp2410
(lp2411
I0
aI1
aI0
as((S'not'
p2412
g16
tp2413
(S'contribute'
p2414
g19
tp2415
tp2416
(lp2417
I0
aI1
aI0
as((S'automotive'
p2418
g2
tp2419
(S'experience'
p2420
g5
tp2421
tp2422
(lp2423
I0
aI0
aI1
as((S'+year'
p2424
g2
tp2425
(S'establishment'
p2426
g5
tp2427
tp2428
(lp2429
I0
aI1
aI0
as((S'real'
p2430
g2
tp2431
(S'career'
p2432
g5
tp2433
tp2434
(lp2435
I0
aI1
aI0
as((S'many'
p2436
g2
tp2437
(S'chiefs'
p2438
g106
tp2439
tp2440
(lp2441
I0
aI1
aI0
as((S'good'
p2442
g2
tp2443
(S'place'
p2444
g5
tp2445
tp2446
(lp2447
I0
aI3
aI4
as((S'prioritized'
p2448
g2
tp2449
(S'focus'
p2450
g5
tp2451
tp2452
(lp2453
I0
aI1
aI0
as((S'Extremely'
p2454
g16
tp2455
(S'political'
p2456
g2
tp2457
tp2458
(lp2459
I0
aI1
aI0
as((S'automotive'
p2460
g2
tp2461
(S'industry'
p2462
g5
tp2463
tp2464
(lp2465
I0
aI0
aI1
as((S"n't"
p2466
g16
tp2467
(S'use'
p2468
g19
tp2469
tp2470
(lp2471
I0
aI0
aI1
as((S'Daily'
p2472
g16
tp2473
(S'Uncontrolled'
p2474
g87
tp2475
tp2476
(lp2477
I0
aI1
aI0
as((S'good'
p2478
g2
tp2479
(S'vacation'
p2480
g5
tp2481
tp2482
(lp2483
I0
aI0
aI1
as((S'continuous'
p2484
g2
tp2485
(S'pay'
p2486
g5
tp2487
tp2488
(lp2489
I0
aI1
aI0
as((S'never'
p2490
g16
tp2491
(S'accepted'
p2492
g437
tp2493
tp2494
(lp2495
I0
aI1
aI0
as((S'world-class'
p2496
g2
tp2497
(S'colleagues'
p2498
g106
tp2499
tp2500
(lp2501
I0
aI0
aI1
as((S'great'
p2502
g2
tp2503
(g99
g5
tp2504
tp2505
(lp2506
I0
aI1
aI0
as((S'cult-like'
p2507
g2
tp2508
(S'place'
p2509
g5
tp2510
tp2511
(lp2512
I0
aI1
aI0
as((S'current'
p2513
g2
tp2514
(S'business'
p2515
g5
tp2516
tp2517
(lp2518
I0
aI2
aI0
as((S'own'
p2519
g2
tp2520
(S'product'
p2521
g5
tp2522
tp2523
(lp2524
I0
aI0
aI1
as((S'upper'
p2525
g2
tp2526
(S'management'
p2527
g5
tp2528
tp2529
(lp2530
I0
aI2
aI0
as((S'superior'
p2531
g2
tp2532
(S'performance'
p2533
g5
tp2534
tp2535
(lp2536
I0
aI1
aI0
as((S'never'
p2537
g16
tp2538
(S'be'
p2539
g19
tp2540
tp2541
(lp2542
I0
aI1
aI0
as((S'free'
p2543
g2
tp2544
(S'products'
p2545
g106
tp2546
tp2547
(lp2548
I0
aI0
aI1
as((S'true'
p2549
g2
tp2550
(S'vision'
p2551
g5
tp2552
tp2553
(lp2554
I0
aI1
aI0
as((S'not'
p2555
g16
tp2556
(S'guarantee'
p2557
g19
tp2558
tp2559
(lp2560
I0
aI1
aI0
as((S'Not'
p2561
g16
tp2562
(S'treated'
p2563
g87
tp2564
tp2565
(lp2566
I0
aI1
aI0
as.