(dp0
((S'appropriate'
p1
S'JJ'
p2
tp3
(S'position'
p4
S'NN'
p5
tp6
tp7
(lp8
I0
aI1
aI0
as((S'low'
p9
g2
tp10
(S'morale'
p11
g5
tp12
tp13
(lp14
I1
aI0
aI1
as((S'open'
p15
g2
tp16
(S'culture'
p17
g5
tp18
tp19
(lp20
I0
aI1
aI0
as((S'new'
p21
g2
tp22
(S'technologies'
p23
S'NNS'
p24
tp25
tp26
(lp27
I1
aI0
aI0
as((S'only'
p28
S'RB'
p29
tp30
(S'tolerated'
p31
S'VBN'
p32
tp33
tp34
(lp35
I0
aI0
aI1
as((S'medical'
p36
g2
tp37
(S'support'
p38
g5
tp39
tp40
(lp41
I0
aI1
aI0
as((S'many'
p42
g2
tp43
(S'breaks'
p44
g24
tp45
tp46
(lp47
I0
aI1
aI0
as((S'Fantastic'
p48
g2
tp49
(S'environment'
p50
g5
tp51
tp52
(lp53
I1
aI0
aI0
as((S'corporate'
p54
g2
tp55
(S'level'
p56
g5
tp57
tp58
(lp59
I1
aI0
aI1
as((S'short'
p60
g2
tp61
(S'term'
p62
g5
tp63
tp64
(lp65
I0
aI1
aI2
as((S'great'
p66
g2
tp67
(S'opportunities'
p68
g24
tp69
tp70
(lp71
I1
aI3
aI0
as((S'certain'
p72
g2
tp73
(S'items'
p74
g24
tp75
tp76
(lp77
I0
aI1
aI0
as((S'truly'
p78
g29
tp79
(S'competitive'
p80
g2
tp81
tp82
(lp83
I0
aI0
aI1
as((S'great'
p84
g2
tp85
(S'brands'
p86
g24
tp87
tp88
(lp89
I0
aI2
aI0
as((S'not'
p90
g29
tp91
(S'promising'
p92
S'VBG'
p93
tp94
tp95
(lp96
I1
aI0
aI0
as((S'good'
p97
g2
tp98
(S'design'
p99
g5
tp100
tp101
(lp102
I0
aI1
aI0
as((S'sometimes'
p103
g29
tp104
(S'slow'
p105
g2
tp106
tp107
(lp108
I0
aI0
aI1
as((S'inflexible'
p109
g2
tp110
(S'schedules'
p111
g24
tp112
tp113
(lp114
I0
aI0
aI1
as((S'other'
p115
g2
tp116
(S'parts'
p117
g24
tp118
tp119
(lp120
I0
aI0
aI1
as((S'many'
p121
g2
tp122
(S'industries'
p123
g24
tp124
tp125
(lp126
I0
aI1
aI0
as((S'constant'
p127
g2
tp128
(S'reorganizations'
p129
g24
tp130
tp131
(lp132
I1
aI0
aI0
as((S'reasonable'
p133
g2
tp134
(S'pay'
p135
g5
tp136
tp137
(lp138
I0
aI2
aI0
as((S'significant'
p139
g2
tp140
(S'self'
p141
g5
tp142
tp143
(lp144
I0
aI1
aI0
as((S'great'
p145
g2
tp146
(S'health'
p147
g5
tp148
tp149
(lp150
I0
aI1
aI0
as((S'Extremely'
p151
g29
tp152
(S'dependent'
p153
S'VBD'
p154
tp155
tp156
(lp157
I0
aI0
aI1
as((S'great'
p158
g2
tp159
(S'store'
p160
g5
tp161
tp162
(lp163
I0
aI1
aI0
as((S'too'
p164
g29
tp165
(S'competitive'
p166
g2
tp167
tp168
(lp169
I1
aI0
aI0
as((S'real'
p170
g2
tp171
(S'experience'
p172
g5
tp173
tp174
(lp175
I0
aI0
aI1
as((S'never'
p176
g29
tp177
(S'had'
p178
g154
tp179
tp180
(lp181
I0
aI0
aI1
as((S'early'
p182
g2
tp183
(S'career'
p184
g5
tp185
tp186
(lp187
I0
aI1
aI0
as((S'awful'
p188
g2
tp189
(S'location'
p190
g5
tp191
tp192
(lp193
I0
aI1
aI0
as((S'complex'
p194
g2
tp195
(S'structure'
p196
g5
tp197
tp198
(lp199
I0
aI0
aI1
as((S'common'
p200
g2
tp201
(S'sense'
p202
g5
tp203
tp204
(lp205
I0
aI0
aI1
as((S'bad'
p206
g2
tp207
(S'cafeteria'
p208
g5
tp209
tp210
(lp211
I0
aI0
aI1
as((S'global'
p212
g2
tp213
(S'economy'
p214
g5
tp215
tp216
(lp217
I0
aI0
aI1
as((S'great'
p218
g2
tp219
(S'pay'
p220
g5
tp221
tp222
(lp223
I0
aI1
aI0
as((S'good'
p224
g2
tp225
(S'starting'
p226
g5
tp227
tp228
(lp229
I1
aI0
aI0
as((S'many'
p230
g2
tp231
(S'problems'
p232
g24
tp233
tp234
(lp235
I0
aI0
aI1
as((S'Not'
p236
g29
tp237
(S'rewarding'
p238
g93
tp239
tp240
(lp241
I0
aI0
aI1
as((S'very'
p242
g29
tp243
(S'technical'
p244
g2
tp245
tp246
(lp247
I0
aI0
aI1
as((S'different'
p248
g2
tp249
(S'positions'
p250
g24
tp251
tp252
(lp253
I0
aI1
aI0
as((S'marketable'
p254
g2
tp255
(S'skills'
p256
g24
tp257
tp258
(lp259
I0
aI1
aI0
as((S'many'
p260
g2
tp261
(S'field'
p262
g5
tp263
tp264
(lp265
I0
aI0
aI1
as((S'compartmentalized'
p266
g2
tp267
(S'culture'
p268
g5
tp269
tp270
(lp271
I0
aI0
aI1
as((S'minutes'
p272
g24
tp273
(S'later'
p274
g2
tp275
tp276
(lp277
I0
aI0
aI1
as((S'Casual'
p278
g2
tp279
(S'environment'
p280
g5
tp281
tp282
(lp283
I0
aI1
aI0
as((S'hourly'
p284
g29
tp285
(S'salary'
p286
g2
tp287
tp288
(lp289
I0
aI1
aI0
as((S'good'
p290
g2
tp291
(S'communication'
p292
g5
tp293
tp294
(lp295
I0
aI1
aI0
as((S'great'
p296
g2
tp297
(S'visibility'
p298
g5
tp299
tp300
(lp301
I0
aI1
aI0
as((S'worth'
p302
g2
tp303
(S'putting'
p304
g5
tp305
tp306
(lp307
I0
aI1
aI0
as((S'many'
p308
g2
tp309
(S'systems'
p310
g24
tp311
tp312
(lp313
I0
aI0
aI2
as((S'Medical'
p314
g2
tp315
(S'benefits'
p316
g24
tp317
tp318
(lp319
I0
aI0
aI1
as((S'allowing'
p320
g5
tp321
(S'previous'
p322
g2
tp323
tp324
(lp325
I0
aI0
aI1
as((S"n't"
p326
g29
tp327
(S'see'
p328
S'VB'
p329
tp330
tp331
(lp332
I0
aI0
aI1
as((S'different'
p333
g2
tp334
(S'personalities'
p335
g24
tp336
tp337
(lp338
I0
aI0
aI1
as((S'not'
p339
g29
tp340
(S'great'
p341
g2
tp342
tp343
(lp344
I1
aI0
aI2
as((S'frugal'
p345
g2
tp346
(S'environment'
p347
g5
tp348
tp349
(lp350
I0
aI1
aI0
as((S'even'
p351
g29
tp352
(S'simple'
p353
g329
tp354
tp355
(lp356
I0
aI0
aI1
as((S'Large'
p357
g2
tp358
(S'organization'
p359
g5
tp360
tp361
(lp362
I0
aI1
aI1
as((S'eventually'
p363
g29
tp364
(S'leaving'
p365
g93
tp366
tp367
(lp368
I0
aI0
aI1
as((S'creative'
p369
g2
tp370
(S'people'
p371
g24
tp372
tp373
(lp374
I0
aI1
aI0
as((S'sucks'
p375
g24
tp376
(S'bad'
p377
g2
tp378
tp379
(lp380
I0
aI0
aI1
as((S'well'
p381
g29
tp382
(S'managed'
p383
g32
tp384
tp385
(lp386
I0
aI1
aI0
as((S'nice'
p387
g2
tp388
(S'co-workers'
p389
g24
tp390
tp391
(lp392
I0
aI1
aI0
as((S'fat'
p393
g2
tp394
(S'cats'
p395
g24
tp396
tp397
(lp398
I0
aI0
aI1
as((S'comfortable'
p399
g2
tp400
(S'work'
p401
g5
tp402
tp403
(lp404
I0
aI1
aI0
as((S'endless'
p405
g2
tp406
(S'potential'
p407
g2
tp408
tp409
(lp410
I1
aI0
aI0
as((S'good'
p411
g2
tp412
(S'food'
p413
g5
tp414
tp415
(lp416
I0
aI0
aI1
as((S'many'
p417
g2
tp418
(S'categories'
p419
g24
tp420
tp421
(lp422
I0
aI1
aI0
as((S'many'
p423
g2
tp424
(S'meetings'
p425
g24
tp426
tp427
(lp428
I0
aI0
aI1
as((S"n't"
p429
g29
tp430
(S'stay'
p431
g329
tp432
tp433
(lp434
I0
aI0
aI1
as((S'good'
p435
g2
tp436
(S'teammates'
p437
g24
tp438
tp439
(lp440
I0
aI1
aI0
as((S'different'
p441
g2
tp442
(S'businesses'
p443
g24
tp444
tp445
(lp446
I0
aI1
aI0
as((S'direct'
p447
g2
tp448
(S'management'
p449
g5
tp450
tp451
(lp452
I0
aI0
aI1
as((S'organizational'
p453
g2
tp454
(S'changes'
p455
g24
tp456
tp457
(lp458
I0
aI0
aI1
as((S'Stable'
p459
g2
tp460
(S'company'
p461
g5
tp462
tp463
(lp464
I2
aI0
aI0
as((S'specific'
p465
g2
tp466
(S'answer'
p467
g5
tp468
tp469
(lp470
I0
aI0
aI1
as((S'immediately'
p471
g29
tp472
(S'transfer'
p473
g329
tp474
tp475
(lp476
I0
aI1
aI0
as((S'too'
p477
g29
tp478
(S'focused'
p479
g32
tp480
tp481
(lp482
I0
aI0
aI2
as((S'desirable'
p483
g2
tp484
(S'place'
p485
g5
tp486
tp487
(lp488
I0
aI0
aI1
as((S'competitive'
p489
g2
tp490
(S'salary'
p491
g5
tp492
tp493
(lp494
I0
aI1
aI0
as((S'-Poor'
p495
g2
tp496
(S'Management'
p497
g5
tp498
tp499
(lp500
I0
aI0
aI1
as((S'unclear'
p501
g2
tp502
(S'career'
p503
g5
tp504
tp505
(lp506
I1
aI0
aI0
as((S"n't"
p507
g29
tp508
(S'mean'
p509
g329
tp510
tp511
(lp512
I0
aI0
aI1
as((S'Global'
p513
g2
tp514
(S'leader'
p515
g5
tp516
tp517
(lp518
I0
aI1
aI0
as((S'reasonable'
p519
g2
tp520
(S'freedom'
p521
g5
tp522
tp523
(lp524
I1
aI0
aI0
as((S'strong'
p525
g2
tp526
(S'relationships'
p527
g24
tp528
tp529
(lp530
I0
aI1
aI0
as((S'lifestyle'
p531
g5
tp532
(S'flexible'
p533
g2
tp534
tp535
(lp536
I0
aI1
aI0
as((S'completely'
p537
g29
tp538
(S'in-house'
p539
g2
tp540
tp541
(lp542
I0
aI0
aI1
as((S'macroscopic'
p543
g2
tp544
(S'decisions'
p545
g24
tp546
tp547
(lp548
I0
aI0
aI1
as((S'different'
p549
g2
tp550
(S'opportunities'
p551
g24
tp552
tp553
(lp554
I0
aI2
aI0
as((S'stressful'
p555
g2
tp556
(S'place'
p557
g5
tp558
tp559
(lp560
I1
aI0
aI0
as((S'arrogant'
p561
g2
tp562
(S'staff'
p563
g5
tp564
tp565
(lp566
I0
aI0
aI1
as((S'long'
p567
g2
tp568
(S'list'
p569
g5
tp570
tp571
(lp572
I0
aI0
aI1
as((S'entire'
p573
g2
tp574
(S'housing'
p575
g5
tp576
tp577
(lp578
I0
aI1
aI0
as((S'competitive'
p579
g2
tp580
(S'salaries'
p581
g24
tp582
tp583
(lp584
I0
aI1
aI0
as((S'*Great'
p585
g2
tp586
(S'benefits'
p587
g24
tp588
tp589
(lp590
I0
aI1
aI0
as((S'good'
p591
g2
tp592
(S'appreciation'
p593
g5
tp594
tp595
(lp596
I0
aI0
aI1
as((S'global'
p597
g2
tp598
(S'operations'
p599
g24
tp600
tp601
(lp602
I0
aI1
aI0
as((S'pretty'
p603
g29
tp604
(S'lacking'
p605
g93
tp606
tp607
(lp608
I0
aI0
aI1
as((S'own'
p609
g2
tp610
(S'self'
p611
g5
tp612
tp613
(lp614
I0
aI1
aI0
as((S'different'
p615
g2
tp616
(S'business'
p617
g5
tp618
tp619
(lp620
I0
aI2
aI0
as((S"n't"
p621
g29
tp622
(S'do'
p623
g329
tp624
tp625
(lp626
I0
aI0
aI1
as((S'always'
p627
g29
tp628
(S'wanting'
p629
g93
tp630
tp631
(lp632
I0
aI0
aI1
as((S'great'
p633
g2
tp634
(S'people'
p635
g24
tp636
tp637
(lp638
I2
aI9
aI0
as((S'sometimes'
p639
g29
tp640
(S'hindering'
p641
g93
tp642
tp643
(lp644
I0
aI0
aI1
as((S'then'
p645
g29
tp646
(S'many'
p647
g2
tp648
tp649
(lp650
I0
aI0
aI1
as((S'first'
p651
g2
tp652
(S'job'
p653
g5
tp654
tp655
(lp656
I0
aI1
aI0
as((S'growth'
p657
g5
tp658
(S'potential'
p659
g2
tp660
tp661
(lp662
I1
aI0
aI0
as((S'good'
p663
g2
tp664
(S'sometimes'
p665
g24
tp666
tp667
(lp668
I0
aI0
aI1
as((S'not'
p669
g29
tp670
(S'qualified'
p671
g32
tp672
tp673
(lp674
I0
aI0
aI1
as((S'local'
p675
g2
tp676
(S'management'
p677
g5
tp678
tp679
(lp680
I1
aI0
aI0
as((S'great'
p681
g2
tp682
(S'name'
p683
g5
tp684
tp685
(lp686
I0
aI0
aI1
as((S'full'
p687
g2
tp688
(S'effo'
p689
g5
tp690
tp691
(lp692
I1
aI0
aI0
as((S'always'
p693
g29
tp694
(S'do'
p695
g329
tp696
tp697
(lp698
I0
aI0
aI1
as((S'large'
p699
g2
tp700
(S'swings'
p701
g24
tp702
tp703
(lp704
I0
aI1
aI0
as((S'generally'
p705
g29
tp706
(S'understanding'
p707
g93
tp708
tp709
(lp710
I0
aI1
aI0
as((S'Japanese'
p711
g2
tp712
(S'work'
p713
g5
tp714
tp715
(lp716
I0
aI0
aI1
as((S'financial'
p717
g2
tp718
(S'services'
p719
g24
tp720
tp721
(lp722
I0
aI1
aI2
as((S'open'
p723
g2
tp724
(S'management'
p725
g5
tp726
tp727
(lp728
I0
aI1
aI0
as((S'top'
p729
g2
tp730
(S'notch'
p731
g5
tp732
tp733
(lp734
I0
aI4
aI0
as((S'Repetitive'
p735
g2
tp736
(S'work'
p737
g5
tp738
tp739
(lp740
I0
aI0
aI1
as((S'other'
p741
g2
tp742
(S'companies'
p743
g24
tp744
tp745
(lp746
I0
aI0
aI3
as((S'only'
p747
g29
tp748
(S'offered'
p749
g32
tp750
tp751
(lp752
I0
aI0
aI1
as((S'personal'
p753
g2
tp754
(S'experience'
p755
g5
tp756
tp757
(lp758
I0
aI0
aI1
as((S'always'
p759
g29
tp760
(S'placing'
p761
g93
tp762
tp763
(lp764
I1
aI0
aI0
as((S'not'
p765
g29
tp766
(S'been'
p767
g32
tp768
tp769
(lp770
I0
aI0
aI1
as((S'strong'
p771
g2
tp772
(S'leadership'
p773
g5
tp774
tp775
(lp776
I0
aI0
aI1
as((S'constant'
p777
g2
tp778
(S'improvement'
p779
g5
tp780
tp781
(lp782
I0
aI1
aI0
as((S'very'
p783
g29
tp784
(S'big'
p785
g2
tp786
tp787
(lp788
I0
aI0
aI1
as((S'very'
p789
g29
tp790
(S'easy'
p791
g2
tp792
tp793
(lp794
I0
aI1
aI0
as((S'bureaucratic'
p795
g2
tp796
(S'organization'
p797
g5
tp798
tp799
(lp800
I0
aI0
aI1
as((S'other'
p801
g2
tp802
(S'groups'
p803
g24
tp804
tp805
(lp806
I0
aI0
aI1
as((S'big'
p807
g2
tp808
(S'picture'
p809
g5
tp810
tp811
(lp812
I0
aI1
aI0
as((S'always'
p813
g29
tp814
(S'preferable'
p815
g2
tp816
tp817
(lp818
I0
aI0
aI1
as((S'little'
p819
g29
tp820
(S'hectic'
p821
g2
tp822
tp823
(lp824
I0
aI0
aI1
as((S'and/or'
p825
g2
tp826
(S'bonuses'
p827
g24
tp828
tp829
(lp830
I0
aI0
aI1
as((S'recreational'
p831
g2
tp832
(S'facilities'
p833
g24
tp834
tp835
(lp836
I0
aI0
aI1
as((S'fellow'
p837
g2
tp838
(S'interns'
p839
g24
tp840
tp841
(lp842
I0
aI1
aI0
as((S'-Great'
p843
g2
tp844
(S'team'
p845
g5
tp846
tp847
(lp848
I0
aI1
aI0
as((S"n't"
p849
g29
tp850
(S'want'
p851
g329
tp852
tp853
(lp854
I0
aI0
aI1
as((S'huge'
p855
g2
tp856
(S'selection'
p857
g5
tp858
tp859
(lp860
I0
aI0
aI1
as((S'Many'
p861
g2
tp862
(S'layoffs'
p863
g24
tp864
tp865
(lp866
I0
aI0
aI1
as((S'high'
p867
g2
tp868
(S'standards'
p869
g24
tp870
tp871
(lp872
I1
aI0
aI0
as((S'great'
p873
g2
tp874
(S'bonuses'
p875
g24
tp876
tp877
(lp878
I0
aI0
aI1
as((S'High'
p879
g2
tp880
(S'expectations'
p881
g24
tp882
tp883
(lp884
I0
aI0
aI1
as((S'really'
p885
g29
tp886
(S'liked'
p887
g154
tp888
tp889
(lp890
I0
aI1
aI0
as((S'friendly'
p891
g2
tp892
(S'company'
p893
g5
tp894
tp895
(lp896
I0
aI0
aI1
as((S'geographic'
p897
g2
tp898
(S'locations'
p899
g24
tp900
tp901
(lp902
I0
aI1
aI0
as((S'Bad'
p903
g2
tp904
(S'Management'
p905
g5
tp906
tp907
(lp908
I0
aI0
aI1
as((S'new'
p909
g2
tp910
(S'idea'
p911
g5
tp912
tp913
(lp914
I0
aI0
aI1
as((S'even'
p915
g29
tp916
(S'having'
p917
g93
tp918
tp919
(lp920
I0
aI0
aI1
as((S'hard'
p921
g2
tp922
(S'work'
p923
g5
tp924
tp925
(lp926
I0
aI0
aI1
as((S'conservative'
p927
g2
tp928
(S'company'
p929
g5
tp930
tp931
(lp932
I0
aI0
aI1
as((S'retail'
p933
g2
tp934
(S'stores'
p935
g24
tp936
tp937
(lp938
I0
aI1
aI0
as((S'bit'
p939
g5
tp940
(S'ambiguous'
p941
g2
tp942
tp943
(lp944
I0
aI0
aI1
as((S'reasonably'
p945
g29
tp946
(S'achieve'
p947
g329
tp948
tp949
(lp950
I1
aI0
aI0
as((S'Horrible'
p951
g2
tp952
(S'morale'
p953
g5
tp954
tp955
(lp956
I0
aI0
aI1
as((S'store..excellent'
p957
g2
tp958
(S'logistics'
p959
g24
tp960
tp961
(lp962
I1
aI0
aI0
as((S'new'
p963
g2
tp964
(S'features'
p965
g24
tp966
tp967
(lp968
I0
aI0
aI1
as((S'current'
p969
g2
tp970
(S'managment'
p971
g5
tp972
tp973
(lp974
I0
aI0
aI1
as((S'very'
p975
g29
tp976
(S'beneficial'
p977
g2
tp978
tp979
(lp980
I0
aI0
aI1
as((S'then'
p981
g29
tp982
(S'give'
p983
g329
tp984
tp985
(lp986
I0
aI1
aI0
as((S'high'
p987
g2
tp988
(S'expectations'
p989
g24
tp990
tp991
(lp992
I0
aI1
aI2
as((S'good'
p993
g2
tp994
(S'manager'
p995
g5
tp996
tp997
(lp998
I0
aI1
aI0
as((S'sometimes'
p999
g29
tp1000
(S'make'
p1001
g329
tp1002
tp1003
(lp1004
I0
aI0
aI1
as((S'break-through'
p1005
g2
tp1006
(S'technology'
p1007
g5
tp1008
tp1009
(lp1010
I0
aI0
aI1
as((S'different'
p1011
g2
tp1012
(S'team'
p1013
g5
tp1014
tp1015
(lp1016
I0
aI1
aI0
as((S'high'
p1017
g2
tp1018
(S'aptitude'
p1019
g5
tp1020
tp1021
(lp1022
I0
aI1
aI0
as((S'new'
p1023
g2
tp1024
(S'hire'
p1025
g5
tp1026
tp1027
(lp1028
I0
aI1
aI1
as((S'many'
p1029
g2
tp1030
(S'initiatives'
p1031
g24
tp1032
tp1033
(lp1034
I0
aI0
aI1
as((S'global'
p1035
g2
tp1036
(S'opportunities'
p1037
g24
tp1038
tp1039
(lp1040
I1
aI0
aI0
as((S'always'
p1041
g29
tp1042
(S'listen'
p1043
g32
tp1044
tp1045
(lp1046
I0
aI0
aI1
as((S'Not'
p1047
g29
tp1048
(S'much'
p1049
g2
tp1050
tp1051
(lp1052
I0
aI0
aI1
as((S'else'
p1053
g29
tp1054
(S'acquired'
p1055
g32
tp1056
tp1057
(lp1058
I0
aI0
aI1
as((S'equitqable'
p1059
g2
tp1060
(S'career'
p1061
g5
tp1062
tp1063
(lp1064
I1
aI0
aI0
as((S'Economic'
p1065
g2
tp1066
(S'climate'
p1067
g5
tp1068
tp1069
(lp1070
I0
aI0
aI1
as((S'large'
p1071
g2
tp1072
(S'companies'
p1073
g24
tp1074
tp1075
(lp1076
I0
aI0
aI2
as((S'firm-wide'
p1077
g2
tp1078
(S'vision'
p1079
g5
tp1080
tp1081
(lp1082
I0
aI1
aI0
as((S'Japanese'
p1083
g2
tp1084
(S'language'
p1085
g5
tp1086
tp1087
(lp1088
I0
aI0
aI1
as((S'too'
p1089
g29
tp1090
(S'academic'
p1091
g2
tp1092
tp1093
(lp1094
I0
aI0
aI1
as((S'many'
p1095
g2
tp1096
(S'managers'
p1097
g24
tp1098
tp1099
(lp1100
I0
aI0
aI1
as((S'Positive'
p1101
g2
tp1102
(S'experience'
p1103
g5
tp1104
tp1105
(lp1106
I1
aI0
aI0
as((S'great'
p1107
g2
tp1108
(S'Company'
p1109
g5
tp1110
tp1111
(lp1112
I1
aI0
aI0
as((S'great'
p1113
g2
tp1114
(S'place'
p1115
g5
tp1116
tp1117
(lp1118
I14
aI6
aI0
as((S'Competitive'
p1119
g2
tp1120
(S'pay'
p1121
g5
tp1122
tp1123
(lp1124
I0
aI2
aI0
as((S'executive'
p1125
g2
tp1126
(S'level'
p1127
g5
tp1128
tp1129
(lp1130
I0
aI0
aI1
as((S'great'
p1131
g2
tp1132
(S'employees'
p1133
g24
tp1134
tp1135
(lp1136
I1
aI0
aI0
as((S'more'
p1137
S'RBR'
p1138
tp1139
(S'based'
p1140
g32
tp1141
tp1142
(lp1143
I0
aI0
aI1
as((S'end'
p1144
g5
tp1145
(S'relative'
p1146
g2
tp1147
tp1148
(lp1149
I0
aI0
aI1
as((S'stable'
p1150
g2
tp1151
(S'job'
p1152
g5
tp1153
tp1154
(lp1155
I1
aI1
aI0
as((S'necessarily'
p1156
g29
tp1157
(S'be'
p1158
g329
tp1159
tp1160
(lp1161
I0
aI0
aI1
as((S'signifcant'
p1162
g2
tp1163
(S'opportunity'
p1164
g5
tp1165
tp1166
(lp1167
I0
aI1
aI0
as((S'recently'
p1168
g29
tp1169
(S'read'
p1170
g329
tp1171
tp1172
(lp1173
I0
aI0
aI1
as((S'great'
p1174
g2
tp1175
(S'management'
p1176
g5
tp1177
tp1178
(lp1179
I0
aI1
aI0
as((S'flexible'
p1180
g2
tp1181
(S'due'
p1182
g2
tp1183
tp1184
(lp1185
I0
aI1
aI0
as((S'high'
p1186
g2
tp1187
(S'production'
p1188
g5
tp1189
tp1190
(lp1191
I0
aI1
aI0
as((S'great'
p1192
g2
tp1193
(S'environment'
p1194
g5
tp1195
tp1196
(lp1197
I1
aI1
aI0
as((S'strong'
p1198
g2
tp1199
(S'brands'
p1200
g24
tp1201
tp1202
(lp1203
I0
aI1
aI0
as((S'wide'
p1204
g2
tp1205
(S'variety'
p1206
g5
tp1207
tp1208
(lp1209
I1
aI3
aI0
as((S'history'
p1210
g5
tp1211
(S'Over-subscribed'
p1212
g2
tp1213
tp1214
(lp1215
I0
aI0
aI1
as((S'Strong'
p1216
g2
tp1217
(S'benefits'
p1218
g24
tp1219
tp1220
(lp1221
I0
aI1
aI0
as((S'global'
p1222
g2
tp1223
(S')'
p1224
g5
tp1225
tp1226
(lp1227
I0
aI0
aI1
as((S'formal'
p1228
g2
tp1229
(S'education'
p1230
g5
tp1231
tp1232
(lp1233
I0
aI1
aI0
as((S'really'
p1234
g29
tp1235
(S're'
p1236
g329
tp1237
tp1238
(lp1239
I0
aI0
aI1
as((S'most'
p1240
S'RBS'
p1241
tp1242
(S'admired'
p1243
g32
tp1244
tp1245
(lp1246
I0
aI1
aI0
as((S'huge'
p1247
g2
tp1248
(S'organization'
p1249
g5
tp1250
tp1251
(lp1252
I0
aI0
aI1
as((S'stressful'
p1253
g2
tp1254
(S'environment'
p1255
g5
tp1256
tp1257
(lp1258
I0
aI1
aI0
as((S'good'
p1259
g2
tp1260
(S'sense'
p1261
g5
tp1262
tp1263
(lp1264
I0
aI1
aI0
as((S'poor'
p1265
g2
tp1266
(S'upper'
p1267
g5
tp1268
tp1269
(lp1270
I0
aI0
aI1
as((S'French'
p1271
g2
tp1272
(S'('
p1273
g5
tp1274
tp1275
(lp1276
I0
aI0
aI1
as((S'very'
p1277
g29
tp1278
(S'intelligent'
p1279
g2
tp1280
tp1281
(lp1282
I0
aI1
aI0
as((S'great'
p1283
g2
tp1284
(S'working'
p1285
g5
tp1286
tp1287
(lp1288
I2
aI0
aI1
as((S'constantly'
p1289
g29
tp1290
(S'pushed'
p1291
g32
tp1292
tp1293
(lp1294
I0
aI0
aI1
as((S'Various'
p1295
g2
tp1296
(S'strategy'
p1297
g5
tp1298
tp1299
(lp1300
I1
aI0
aI0
as((S'comparable'
p1301
g2
tp1302
(S'positions'
p1303
g24
tp1304
tp1305
(lp1306
I0
aI0
aI1
as((S'annual'
p1307
g2
tp1308
(S'performance'
p1309
g5
tp1310
tp1311
(lp1312
I0
aI0
aI1
as((S'Large'
p1313
g2
tp1314
(S'Manufacturing'
p1315
g5
tp1316
tp1317
(lp1318
I1
aI0
aI0
as((S'clear'
p1319
g2
tp1320
(S'set'
p1321
g5
tp1322
tp1323
(lp1324
I0
aI0
aI1
as((S'competitive'
p1325
g2
tp1326
(S'environment'
p1327
g5
tp1328
tp1329
(lp1330
I0
aI0
aI1
as((S'real'
p1331
g2
tp1332
(S'movement'
p1333
g5
tp1334
tp1335
(lp1336
I0
aI0
aI1
as((S'economic'
p1337
g2
tp1338
(S'events'
p1339
g24
tp1340
tp1341
(lp1342
I0
aI0
aI1
as((S'professional'
p1343
g2
tp1344
(S'support'
p1345
g5
tp1346
tp1347
(lp1348
I0
aI1
aI0
as((S'easy'
p1349
g2
tp1350
(S'sales'
p1351
g24
tp1352
tp1353
(lp1354
I0
aI1
aI0
as((S'not'
p1355
g29
tp1356
(S'be'
p1357
g329
tp1358
tp1359
(lp1360
I1
aI0
aI2
as((S'too'
p1361
g29
tp1362
(S'many'
p1363
g2
tp1364
tp1365
(lp1366
I2
aI0
aI0
as((S'somewhat'
p1367
g29
tp1368
(S'intimidating'
p1369
g93
tp1370
tp1371
(lp1372
I0
aI1
aI0
as((S'Corporate'
p1373
g2
tp1374
(S'politics'
p1375
g24
tp1376
tp1377
(lp1378
I0
aI0
aI1
as((S'sometimes'
p1379
g29
tp1380
(S'be'
p1381
g329
tp1382
tp1383
(lp1384
I0
aI0
aI1
as((S'Global'
p1385
g2
tp1386
(S'company'
p1387
g5
tp1388
tp1389
(lp1390
I0
aI1
aI0
as((S'acceptable'
p1391
g2
tp1392
(S'place'
p1393
g5
tp1394
tp1395
(lp1396
I0
aI1
aI0
as((S'economic'
p1397
g2
tp1398
(S'downturn'
p1399
g5
tp1400
tp1401
(lp1402
I0
aI0
aI1
as((S'only'
p1403
g29
tp1404
(S'knew'
p1405
g154
tp1406
tp1407
(lp1408
I1
aI0
aI0
as((S'long'
p1409
g2
tp1410
(S'time'
p1411
g5
tp1412
tp1413
(lp1414
I0
aI1
aI4
as((S'different'
p1415
g2
tp1416
(S'regulations'
p1417
g24
tp1418
tp1419
(lp1420
I0
aI1
aI0
as((S'there'
p1421
g29
tp1422
(S'was'
p1423
g154
tp1424
tp1425
(lp1426
I0
aI0
aI1
as((S'conceptual'
p1427
g2
tp1428
(S'things'
p1429
g24
tp1430
tp1431
(lp1432
I1
aI0
aI0
as((S'wonderful'
p1433
g2
tp1434
(g1273
g5
tp1435
tp1436
(lp1437
I0
aI1
aI0
as((S'internal'
p1438
g2
tp1439
(S'opportunities'
p1440
g24
tp1441
tp1442
(lp1443
I0
aI1
aI0
as((S'very'
p1444
g29
tp1445
(S'significant'
p1446
g2
tp1447
tp1448
(lp1449
I0
aI0
aI1
as((S'Oddly'
p1450
g29
tp1451
(S'Dysfunctional'
p1452
g2
tp1453
tp1454
(lp1455
I1
aI0
aI0
as((S'British'
p1456
g2
tp1457
(S'company'
p1458
g5
tp1459
tp1460
(lp1461
I0
aI0
aI1
as((S'utterly'
p1462
g29
tp1463
(S'opaque'
p1464
g2
tp1465
tp1466
(lp1467
I0
aI0
aI1
as((S'technologically'
p1468
g29
tp1469
(S'advanced'
p1470
g154
tp1471
tp1472
(lp1473
I0
aI1
aI0
as((S'few'
p1474
g2
tp1475
(S'opportunities'
p1476
g24
tp1477
tp1478
(lp1479
I1
aI0
aI0
as((S'terrible'
p1480
g2
tp1481
(S'computer'
p1482
g5
tp1483
tp1484
(lp1485
I0
aI0
aI1
as((S'always'
p1486
g29
tp1487
(S'doing'
p1488
g93
tp1489
tp1490
(lp1491
I0
aI1
aI0
as((S'global'
p1492
g2
tp1493
(S'experience'
p1494
g5
tp1495
tp1496
(lp1497
I0
aI1
aI0
as((S'certain'
p1498
g2
tp1499
(S'time'
p1500
g5
tp1501
tp1502
(lp1503
I0
aI0
aI1
as((S'international'
p1504
g2
tp1505
(S'teaching'
p1506
g5
tp1507
tp1508
(lp1509
I0
aI1
aI0
as((S'optimal'
p1510
g2
tp1511
(S'rate'
p1512
g5
tp1513
tp1514
(lp1515
I0
aI0
aI1
as((S'high'
p1516
g2
tp1517
(S'talent'
p1518
g5
tp1519
tp1520
(lp1521
I0
aI0
aI1
as((S'not'
p1522
g29
tp1523
(S'fund'
p1524
g329
tp1525
tp1526
(lp1527
I0
aI0
aI1
as((S'great'
p1528
g2
tp1529
(S'values'
p1530
g24
tp1531
tp1532
(lp1533
I0
aI2
aI0
as((S'new'
p1534
g2
tp1535
(S'changes'
p1536
g24
tp1537
tp1538
(lp1539
I0
aI0
aI1
as((S'Strong'
p1540
g2
tp1541
(S'debt'
p1542
g5
tp1543
tp1544
(lp1545
I0
aI1
aI0
as((S'first'
p1546
g2
tp1547
(S'experience'
p1548
g5
tp1549
tp1550
(lp1551
I1
aI0
aI0
as((S'so'
p1552
g29
tp1553
(S'large'
p1554
g2
tp1555
tp1556
(lp1557
I0
aI0
aI1
as((S'corporate'
p1558
g2
tp1559
(S'levels'
p1560
g24
tp1561
tp1562
(lp1563
I0
aI0
aI1
as((S'not'
p1564
g29
tp1565
(S'satisfactory'
p1566
g2
tp1567
tp1568
(lp1569
I0
aI0
aI1
as((S'ever-changing'
p1570
g2
tp1571
(S'leadership'
p1572
g5
tp1573
tp1574
(lp1575
I1
aI0
aI0
as((S'highly'
p1576
g29
tp1577
(S'prevalent'
p1578
g2
tp1579
tp1580
(lp1581
I0
aI0
aI1
as((S'great'
p1582
g2
tp1583
(S'benefits'
p1584
g24
tp1585
tp1586
(lp1587
I2
aI14
aI0
as((S'full'
p1588
g2
tp1589
(S'services'
p1590
g24
tp1591
tp1592
(lp1593
I1
aI0
aI0
as((S'conservative'
p1594
g2
tp1595
(S'culture'
p1596
g5
tp1597
tp1598
(lp1599
I0
aI1
aI0
as((S'senior'
p1600
g2
tp1601
(S'leadership'
p1602
g5
tp1603
tp1604
(lp1605
I0
aI0
aI1
as((S'many'
p1606
g2
tp1607
(S'places'
p1608
g24
tp1609
tp1610
(lp1611
I0
aI1
aI0
as((S'corporate'
p1612
g2
tp1613
(S'culture'
p1614
g5
tp1615
tp1616
(lp1617
I0
aI1
aI2
as((S'ample'
p1618
g2
tp1619
(S'opportunity'
p1620
g5
tp1621
tp1622
(lp1623
I0
aI2
aI0
as((S'terrible'
p1624
g2
tp1625
(S'audit'
p1626
g5
tp1627
tp1628
(lp1629
I0
aI0
aI1
as((S'global'
p1630
g2
tp1631
(S'organization'
p1632
g5
tp1633
tp1634
(lp1635
I0
aI1
aI0
as((S"n't"
p1636
g29
tp1637
(S'we'
p1638
g329
tp1639
tp1640
(lp1641
I0
aI0
aI1
as((S'tough'
p1642
g2
tp1643
(S'profit'
p1644
g5
tp1645
tp1646
(lp1647
I0
aI0
aI1
as((S'just'
p1648
g29
tp1649
(S'moderate'
p1650
g2
tp1651
tp1652
(lp1653
I0
aI0
aI1
as((S'Competitive'
p1654
g2
tp1655
(S'ans'
p1656
g24
tp1657
tp1658
(lp1659
I0
aI0
aI1
as((S'high'
p1660
g2
tp1661
(S'deductibles'
p1662
g24
tp1663
tp1664
(lp1665
I0
aI0
aI1
as((S'not'
p1666
g29
tp1667
(S'doing'
p1668
g93
tp1669
tp1670
(lp1671
I0
aI0
aI1
as((S'not'
p1672
g29
tp1673
(S'compensate'
p1674
g329
tp1675
tp1676
(lp1677
I0
aI0
aI1
as((S'Too'
p1678
g29
tp1679
(S'much'
p1680
g2
tp1681
tp1682
(lp1683
I0
aI0
aI2
as((S'limited'
p1684
g2
tp1685
(S'experience'
p1686
g5
tp1687
tp1688
(lp1689
I0
aI0
aI1
as((S'soon-to-be-completed'
p1690
g2
tp1691
(S'on-site'
p1692
g2
tp1693
tp1694
(lp1695
I0
aI1
aI0
as((S'good'
p1696
g2
tp1697
(S'work'
p1698
g5
tp1699
tp1700
(lp1701
I1
aI4
aI0
as((S'great'
p1702
g2
tp1703
(S'care'
p1704
g5
tp1705
tp1706
(lp1707
I1
aI0
aI0
as((S'professional'
p1708
g2
tp1709
(S'atmosphere'
p1710
g5
tp1711
tp1712
(lp1713
I0
aI1
aI0
as((S'never'
p1714
g29
tp1715
(S'been'
p1716
g32
tp1717
tp1718
(lp1719
I0
aI1
aI0
as((S'very'
p1720
g29
tp1721
(S'nice'
p1722
g2
tp1723
tp1724
(lp1725
I1
aI2
aI0
as((S'clear'
p1726
g2
tp1727
(S'vision'
p1728
g5
tp1729
tp1730
(lp1731
I0
aI2
aI0
as((S'very'
p1732
g29
tp1733
(S'busy'
p1734
g2
tp1735
tp1736
(lp1737
I0
aI0
aI1
as((S'not'
p1738
g29
tp1739
(S'regret'
p1740
g329
tp1741
tp1742
(lp1743
I1
aI0
aI0
as((S'constantly'
p1744
g29
tp1745
(S'move'
p1746
g329
tp1747
tp1748
(lp1749
I0
aI1
aI0
as((S'generally'
p1750
g29
tp1751
(S'happy'
p1752
g2
tp1753
tp1754
(lp1755
I0
aI1
aI0
as((S'Too'
p1756
g29
tp1757
(S'big'
p1758
g2
tp1759
tp1760
(lp1761
I0
aI0
aI2
as((S'friends'
p1762
g24
tp1763
(S'close'
p1764
g2
tp1765
tp1766
(lp1767
I0
aI0
aI1
as((S'Flexible'
p1768
g2
tp1769
(S'hours'
p1770
g24
tp1771
tp1772
(lp1773
I0
aI2
aI0
as((S'average'
p1774
g2
tp1775
(S'salary'
p1776
g5
tp1777
tp1778
(lp1779
I0
aI1
aI1
as((S'human'
p1780
g2
tp1781
(S'level'
p1782
g5
tp1783
tp1784
(lp1785
I0
aI0
aI1
as((S'international'
p1786
g2
tp1787
(S'travel'
p1788
g5
tp1789
tp1790
(lp1791
I0
aI0
aI1
as((S'often'
p1792
g29
tp1793
(S'unreasonable'
p1794
g2
tp1795
tp1796
(lp1797
I0
aI0
aI1
as((S'perpetual'
p1798
g2
tp1799
(S'understaffing'
p1800
g5
tp1801
tp1802
(lp1803
I1
aI0
aI0
as((S'slow'
p1804
g2
tp1805
(S'decision'
p1806
g5
tp1807
tp1808
(lp1809
I0
aI0
aI1
as((S'very'
p1810
g29
tp1811
(S'disorganized'
p1812
g32
tp1813
tp1814
(lp1815
I1
aI0
aI0
as((S'not'
p1816
g29
tp1817
(S'fantastic'
p1818
g2
tp1819
tp1820
(lp1821
I1
aI0
aI0
as((S'4-day'
p1822
g2
tp1823
(S'work'
p1824
g5
tp1825
tp1826
(lp1827
I0
aI1
aI0
as((S'term'
p1828
g2
tp1829
(S'security'
p1830
g5
tp1831
tp1832
(lp1833
I0
aI1
aI0
as((S'constant'
p1834
g2
tp1835
(S'ability'
p1836
g5
tp1837
tp1838
(lp1839
I0
aI1
aI0
as((S'internal'
p1840
g2
tp1841
(S'networks'
p1842
g24
tp1843
tp1844
(lp1845
I0
aI1
aI0
as((S'great'
p1846
g2
tp1847
(S'training'
p1848
g5
tp1849
tp1850
(lp1851
I0
aI1
aI0
as((S'necessarily'
p1852
g29
tp1853
(S'view'
p1854
g329
tp1855
tp1856
(lp1857
I0
aI0
aI1
as((S'additional'
p1858
g2
tp1859
(S'effort'
p1860
g5
tp1861
tp1862
(lp1863
I0
aI0
aI1
as((S'catastrophic'
p1864
g2
tp1865
(S'coverage'
p1866
g5
tp1867
tp1868
(lp1869
I0
aI0
aI1
as((S'Not'
p1870
g29
tp1871
(S'flexible'
p1872
g2
tp1873
tp1874
(lp1875
I0
aI0
aI1
as((S'blocks'
p1876
g24
tp1877
(S'green'
p1878
g2
tp1879
tp1880
(lp1881
I0
aI0
aI1
as((S'so'
p1882
g29
tp1883
(S'spread'
p1884
g32
tp1885
tp1886
(lp1887
I0
aI0
aI1
as((S'quite'
p1888
g29
tp1889
(S'miserable'
p1890
g2
tp1891
tp1892
(lp1893
I0
aI0
aI1
as((S'very'
p1894
g29
tp1895
(S'strict'
p1896
g2
tp1897
tp1898
(lp1899
I0
aI0
aI1
as((S'still'
p1900
g29
tp1901
(S'striving'
p1902
g93
tp1903
tp1904
(lp1905
I0
aI1
aI0
as((S'too'
p1906
g29
tp1907
(S'boring'
p1908
g93
tp1909
tp1910
(lp1911
I0
aI1
aI0
as((S'main'
p1912
g2
tp1913
(S'attractions'
p1914
g24
tp1915
tp1916
(lp1917
I0
aI1
aI0
as((S'good'
p1918
g2
tp1919
(S'support'
p1920
g5
tp1921
tp1922
(lp1923
I0
aI1
aI0
as((S'too'
p1924
g29
tp1925
(S'decentralized'
p1926
g32
tp1927
tp1928
(lp1929
I0
aI0
aI1
as((S'good'
p1930
g2
tp1931
(S'restauration'
p1932
g5
tp1933
tp1934
(lp1935
I0
aI1
aI0
as((S'work-life'
p1936
g2
tp1937
(S'balance'
p1938
g5
tp1939
tp1940
(lp1941
I0
aI2
aI1
as((S'very'
p1942
g29
tp1943
(S'nurturing'
p1944
g93
tp1945
tp1946
(lp1947
I0
aI1
aI0
as((S'great'
p1948
g2
tp1949
(S'friends'
p1950
g24
tp1951
tp1952
(lp1953
I1
aI0
aI0
as((S'much'
p1954
g2
tp1955
(S'uncertainty'
p1956
g5
tp1957
tp1958
(lp1959
I0
aI0
aI1
as((S'good'
p1960
g2
tp1961
(S'working'
p1962
g5
tp1963
tp1964
(lp1965
I1
aI4
aI0
as((S'Japanese'
p1966
g2
tp1967
(S'people'
p1968
g24
tp1969
tp1970
(lp1971
I0
aI0
aI1
as((S'monthly'
p1972
g29
tp1973
(S'work'
p1974
g329
tp1975
tp1976
(lp1977
I0
aI1
aI0
as((S'important'
p1978
g2
tp1979
(S'decision'
p1980
g5
tp1981
tp1982
(lp1983
I0
aI0
aI1
as((S'good'
p1984
g2
tp1985
(S'People'
p1986
g24
tp1987
tp1988
(lp1989
I0
aI1
aI0
as((S"n't"
p1990
g29
tp1991
(S'have'
p1992
g329
tp1993
tp1994
(lp1995
I0
aI0
aI4
as((S'easy'
p1996
g2
tp1997
(S'raises'
p1998
g24
tp1999
tp2000
(lp2001
I0
aI1
aI0
as((S'additional'
p2002
g2
tp2003
(S'stresses'
p2004
g24
tp2005
tp2006
(lp2007
I0
aI0
aI1
as((S'negative'
p2008
g2
tp2009
(S'work'
p2010
g5
tp2011
tp2012
(lp2013
I0
aI0
aI1
as((S'second'
p2014
g2
tp2015
(S'year'
p2016
g5
tp2017
tp2018
(lp2019
I0
aI1
aI0
as((S'fast'
p2020
g2
tp2021
(S'promotions'
p2022
g24
tp2023
tp2024
(lp2025
I0
aI1
aI0
as((S'monetary'
p2026
g2
tp2027
(S'wealth'
p2028
g5
tp2029
tp2030
(lp2031
I0
aI0
aI1
as((S'corporate'
p2032
g2
tp2033
(S'position'
p2034
g5
tp2035
tp2036
(lp2037
I0
aI0
aI1
as((S'other'
p2038
g2
tp2039
(S'shops'
p2040
g24
tp2041
tp2042
(lp2043
I0
aI0
aI1
as((S'seasoned'
p2044
g2
tp2045
(S'employees'
p2046
g24
tp2047
tp2048
(lp2049
I0
aI1
aI0
as((S'dysfunctional'
p2050
g2
tp2051
(S'parts'
p2052
g24
tp2053
tp2054
(lp2055
I0
aI0
aI1
as((S'other'
p2056
g2
tp2057
(S'fund'
p2058
g5
tp2059
tp2060
(lp2061
I0
aI1
aI0
as((S'local'
p2062
g2
tp2063
(S'business'
p2064
g5
tp2065
tp2066
(lp2067
I0
aI0
aI1
as((S'privacy'
p2068
g5
tp2069
(S'available'
p2070
g2
tp2071
tp2072
(lp2073
I0
aI0
aI1
as((S'good'
p2074
g2
tp2075
(S'management'
p2076
g5
tp2077
tp2078
(lp2079
I0
aI2
aI0
as((S'standard'
p2080
g2
tp2081
(S'promotion'
p2082
g5
tp2083
tp2084
(lp2085
I0
aI0
aI1
as((S'financial'
p2086
g2
tp2087
(S'businesses'
p2088
g24
tp2089
tp2090
(lp2091
I0
aI1
aI0
as((S'very'
p2092
g29
tp2093
(S'rewarding'
p2094
g93
tp2095
tp2096
(lp2097
I1
aI1
aI0
as((S'good'
p2098
g2
tp2099
(S'quality'
p2100
g5
tp2101
tp2102
(lp2103
I1
aI0
aI0
as((S'multi-focus'
p2104
g2
tp2105
(S'work'
p2106
g5
tp2107
tp2108
(lp2109
I0
aI1
aI0
as((S'Ever-changing'
p2110
g2
tp2111
(S'career'
p2112
g5
tp2113
tp2114
(lp2115
I1
aI0
aI0
as((S'good'
p2116
g2
tp2117
(S'place'
p2118
g5
tp2119
tp2120
(lp2121
I7
aI0
aI0
as((S'Huge'
p2122
g2
tp2123
(S'organization'
p2124
g5
tp2125
tp2126
(lp2127
I0
aI0
aI1
as((S'usual'
p2128
g2
tp2129
(S'issues'
p2130
g24
tp2131
tp2132
(lp2133
I0
aI0
aI1
as((S'many'
p2134
g2
tp2135
(S'changes'
p2136
g24
tp2137
tp2138
(lp2139
I0
aI0
aI2
as((S'ever'
p2140
g29
tp2141
(S'received'
p2142
g32
tp2143
tp2144
(lp2145
I0
aI1
aI0
as((S'nice'
p2146
g2
tp2147
(S'gym'
p2148
g5
tp2149
tp2150
(lp2151
I0
aI1
aI0
as((S'same'
p2152
g2
tp2153
(S'vision'
p2154
g5
tp2155
tp2156
(lp2157
I0
aI0
aI1
as((S'more'
p2158
g1138
tp2159
(S'oversite'
p2160
g2
tp2161
tp2162
(lp2163
I0
aI0
aI1
as((S'too'
p2164
g29
tp2165
(S'matrixed'
p2166
g32
tp2167
tp2168
(lp2169
I1
aI0
aI0
as((S'Bad'
p2170
g2
tp2171
(S'location'
p2172
g5
tp2173
tp2174
(lp2175
I0
aI0
aI1
as((S"n't"
p2176
g29
tp2177
(S'feel'
p2178
g329
tp2179
tp2180
(lp2181
I0
aI0
aI1
as((S'great'
p2182
g2
tp2183
(S'products'
p2184
g24
tp2185
tp2186
(lp2187
I0
aI1
aI0
as((S'constant'
p2188
g2
tp2189
(S'access'
p2190
g5
tp2191
tp2192
(lp2193
I0
aI1
aI0
as((S'professional'
p2194
g2
tp2195
(S'workforce'
p2196
g5
tp2197
tp2198
(lp2199
I1
aI0
aI0
as((S'corporate'
p2200
g2
tp2201
(S'companies'
p2202
g24
tp2203
tp2204
(lp2205
I1
aI0
aI0
as((S'immediately'
p2206
g29
tp2207
(S'report'
p2208
g329
tp2209
tp2210
(lp2211
I0
aI0
aI1
as((S'attractive'
p2212
g2
tp2213
(S'reason'
p2214
g5
tp2215
tp2216
(lp2217
I0
aI1
aI0
as((S'so'
p2218
g29
tp2219
(S'deep'
p2220
g329
tp2221
tp2222
(lp2223
I0
aI0
aI1
as((S'solid'
p2224
g2
tp2225
(S'strategy'
p2226
g5
tp2227
tp2228
(lp2229
I0
aI0
aI1
as((S'Long'
p2230
g2
tp2231
(S'work'
p2232
g5
tp2233
tp2234
(lp2235
I0
aI0
aI2
as((S'good'
p2236
g2
tp2237
(S'bye'
p2238
g5
tp2239
tp2240
(lp2241
I0
aI0
aI1
as((S'financial'
p2242
g2
tp2243
(S'crisis'
p2244
g5
tp2245
tp2246
(lp2247
I0
aI1
aI0
as((S'nonflexible'
p2248
g2
tp2249
(S'schedule'
p2250
g5
tp2251
tp2252
(lp2253
I0
aI0
aI1
as((S'Large'
p2254
g2
tp2255
(S'Company'
p2256
g5
tp2257
tp2258
(lp2259
I0
aI2
aI0
as((S'clearly'
p2260
g29
tp2261
(S'aware'
p2262
g2
tp2263
tp2264
(lp2265
I1
aI0
aI0
as((S'company'
p2266
g5
tp2267
(S'due'
p2268
g2
tp2269
tp2270
(lp2271
I0
aI0
aI1
as((S"n't"
p2272
g29
tp2273
(S'go'
p2274
g329
tp2275
tp2276
(lp2277
I0
aI0
aI1
as((S'fiercely'
p2278
g29
tp2279
(S'political'
p2280
g2
tp2281
tp2282
(lp2283
I0
aI0
aI1
as((S'highly'
p2284
g29
tp2285
(S'coveted'
p2286
g32
tp2287
tp2288
(lp2289
I0
aI1
aI0
as((S'few'
p2290
g2
tp2291
(S'days'
p2292
g24
tp2293
tp2294
(lp2295
I0
aI0
aI1
as((S'good'
p2296
g2
tp2297
(S'resources'
p2298
g24
tp2299
tp2300
(lp2301
I0
aI1
aI0
as((S'corporate'
p2302
g2
tp2303
(S'america'
p2304
g5
tp2305
tp2306
(lp2307
I1
aI0
aI0
as((S'primary'
p2308
g2
tp2309
(S'decision-making'
p2310
g2
tp2311
tp2312
(lp2313
I0
aI0
aI1
as((S'training'
p2314
g5
tp2315
(S'available'
p2316
g2
tp2317
tp2318
(lp2319
I0
aI1
aI1
as((S'exact'
p2320
g2
tp2321
(S'path'
p2322
g5
tp2323
tp2324
(lp2325
I0
aI0
aI1
as((S'-People'
p2326
g2
tp2327
(S'-Family'
p2328
g2
tp2329
tp2330
(lp2331
I0
aI1
aI0
as((S'always'
p2332
g29
tp2333
(S'being'
p2334
g93
tp2335
tp2336
(lp2337
I0
aI0
aI1
as((S'great'
p2338
g2
tp2339
(S'co-workers'
p2340
g24
tp2341
tp2342
(lp2343
I0
aI2
aI0
as((S'first'
p2344
g29
tp2345
(S'joined'
p2346
g154
tp2347
tp2348
(lp2349
I1
aI0
aI0
as((S'technical'
p2350
g2
tp2351
(S'field'
p2352
g5
tp2353
tp2354
(lp2355
I0
aI1
aI0
as((S'global'
p2356
g2
tp2357
(S'platform'
p2358
g5
tp2359
tp2360
(lp2361
I0
aI1
aI0
as((S'fantastic'
p2362
g2
tp2363
(S'place'
p2364
g5
tp2365
tp2366
(lp2367
I0
aI1
aI0
as((S'fair'
p2368
g2
tp2369
(S'compensation'
p2370
g5
tp2371
tp2372
(lp2373
I0
aI1
aI0
as((S'Japanese'
p2374
g2
tp2375
(S'companies'
p2376
g24
tp2377
tp2378
(lp2379
I0
aI0
aI1
as((S'regulatory'
p2380
g2
tp2381
(S'work'
p2382
g5
tp2383
tp2384
(lp2385
I0
aI0
aI1
as((S'Organizational'
p2386
g2
tp2387
(S'change'
p2388
g5
tp2389
tp2390
(lp2391
I0
aI0
aI1
as((S'progress'
p2392
g5
tp2393
(S'slow'
p2394
g2
tp2395
tp2396
(lp2397
I0
aI0
aI1
as((S'high'
p2398
g2
tp2399
(S'turnover'
p2400
g5
tp2401
tp2402
(lp2403
I0
aI0
aI1
as((S'first'
p2404
g29
tp2405
(S'start'
p2406
g329
tp2407
tp2408
(lp2409
I0
aI0
aI1
as((S'expensive'
p2410
g2
tp2411
(S'cafeteria,'
p2412
g5
tp2413
tp2414
(lp2415
I0
aI0
aI1
as((S'corporate'
p2416
g2
tp2417
(S'politics'
p2418
g24
tp2419
tp2420
(lp2421
I0
aI0
aI1
as((S'Personal'
p2422
g2
tp2423
(S'banker'
p2424
g5
tp2425
tp2426
(lp2427
I1
aI0
aI0
as((S'many'
p2428
g2
tp2429
(S'people'
p2430
g24
tp2431
tp2432
(lp2433
I0
aI1
aI1
as((S'unstoppable'
p2434
g2
tp2435
(S'downward'
p2436
g5
tp2437
tp2438
(lp2439
I1
aI0
aI0
as((S'middle'
p2440
g2
tp2441
(S'management'
p2442
g5
tp2443
tp2444
(lp2445
I1
aI0
aI1
as((S'High'
p2446
g2
tp2447
(S'wage/'
p2448
g5
tp2449
tp2450
(lp2451
I0
aI1
aI0
as((S'underqualified'
p2452
g2
tp2453
(S'people'
p2454
g24
tp2455
tp2456
(lp2457
I1
aI0
aI0
as((S'hourly'
p2458
g29
tp2459
(S'pay'
p2460
g329
tp2461
tp2462
(lp2463
I0
aI1
aI0
as((S'always'
p2464
g29
tp2465
(S'made'
p2466
g154
tp2467
tp2468
(lp2469
I0
aI0
aI1
as((S'*Better'
p2470
g2
tp2471
(S'pay'
p2472
g5
tp2473
tp2474
(lp2475
I0
aI1
aI0
as((S'unfair'
p2476
g2
tp2477
(S'advantage'
p2478
g5
tp2479
tp2480
(lp2481
I0
aI0
aI1
as((S'educational'
p2482
g2
tp2483
(S'experience'
p2484
g5
tp2485
tp2486
(lp2487
I2
aI0
aI0
as((S'public'
p2488
g2
tp2489
(S'due'
p2490
g2
tp2491
tp2492
(lp2493
I0
aI0
aI1
as((S'generally'
p2494
g29
tp2495
(S'speaking'
p2496
g93
tp2497
tp2498
(lp2499
I0
aI0
aI1
as((S'many'
p2500
g2
tp2501
(S'roles'
p2502
g24
tp2503
tp2504
(lp2505
I0
aI1
aI0
as((S'good'
p2506
g2
tp2507
(S'mission'
p2508
g5
tp2509
tp2510
(lp2511
I1
aI0
aI0
as((S'-Ignorant/impatient/rude'
p2512
g2
tp2513
(S'customers'
p2514
g24
tp2515
tp2516
(lp2517
I0
aI0
aI1
as((S'Large'
p2518
g2
tp2519
(S'company'
p2520
g5
tp2521
tp2522
(lp2523
I2
aI5
aI3
as((S'nice'
p2524
g2
tp2525
(S'experience'
p2526
g5
tp2527
tp2528
(lp2529
I1
aI0
aI0
as((S'retail'
p2530
g2
tp2531
(S'jobs'
p2532
g24
tp2533
tp2534
(lp2535
I0
aI1
aI0
as((S'nice'
p2536
g2
tp2537
(S'people'
p2538
g24
tp2539
tp2540
(lp2541
I0
aI1
aI0
as((S'still'
p2542
g29
tp2543
(S'get'
p2544
g329
tp2545
tp2546
(lp2547
I0
aI1
aI0
as((S"n't"
p2548
g29
tp2549
(S'spend'
p2550
g329
tp2551
tp2552
(lp2553
I0
aI0
aI1
as((S'respectful'
p2554
g2
tp2555
(S'culture'
p2556
g5
tp2557
tp2558
(lp2559
I0
aI1
aI0
as((S'investigative'
p2560
g2
tp2561
(S'challenge'
p2562
g5
tp2563
tp2564
(lp2565
I1
aI0
aI0
as((S'good'
p2566
g2
tp2567
(S'folks'
p2568
g24
tp2569
tp2570
(lp2571
I0
aI1
aI0
as((S'daily'
p2572
g2
tp2573
(S'work'
p2574
g5
tp2575
tp2576
(lp2577
I0
aI1
aI0
as((S'first'
p2578
g2
tp2579
(S'company'
p2580
g5
tp2581
tp2582
(lp2583
I1
aI0
aI0
as((S'few'
p2584
g2
tp2585
(S'vacation'
p2586
g5
tp2587
tp2588
(lp2589
I0
aI0
aI1
as((S'great'
p2590
g2
tp2591
(S'network'
p2592
g5
tp2593
tp2594
(lp2595
I1
aI0
aI0
as((S'many'
p2596
g2
tp2597
(S'staff'
p2598
g5
tp2599
tp2600
(lp2601
I0
aI0
aI1
as((S'very'
p2602
g29
tp2603
(S'clear'
p2604
g2
tp2605
tp2606
(lp2607
I0
aI0
aI1
as((S'organizational'
p2608
g2
tp2609
(S'structure'
p2610
g5
tp2611
tp2612
(lp2613
I0
aI1
aI2
as((S'really'
p2614
g29
tp2615
(S'difficult'
p2616
g154
tp2617
tp2618
(lp2619
I0
aI0
aI1
as((S'-Old'
p2620
g2
tp2621
(S'Cash'
p2622
g5
tp2623
tp2624
(lp2625
I0
aI0
aI1
as((S'useful'
p2626
g2
tp2627
(S'skill'
p2628
g5
tp2629
tp2630
(lp2631
I0
aI1
aI0
as((S'constant'
p2632
g2
tp2633
(S'government'
p2634
g5
tp2635
tp2636
(lp2637
I0
aI0
aI1
as((S'many'
p2638
g2
tp2639
(S'work'
p2640
g5
tp2641
tp2642
(lp2643
I0
aI0
aI1
as((S'too'
p2644
g29
tp2645
(S'frequent'
p2646
g154
tp2647
tp2648
(lp2649
I0
aI0
aI1
as((S'much'
p2650
g29
tp2651
(S'room'
p2652
g329
tp2653
tp2654
(lp2655
I0
aI0
aI1
as((S'tremendous'
p2656
g2
tp2657
(S'amount'
p2658
g5
tp2659
tp2660
(lp2661
I0
aI0
aI1
as((S'great'
p2662
g2
tp2663
(S'benifits'
p2664
g24
tp2665
tp2666
(lp2667
I1
aI0
aI0
as((S'genuinely'
p2668
g29
tp2669
(S'interested'
p2670
g2
tp2671
tp2672
(lp2673
I0
aI1
aI0
as((S'knowledgable'
p2674
g2
tp2675
(S'process'
p2676
g5
tp2677
tp2678
(lp2679
I0
aI1
aI0
as((S'Junior-level'
p2680
g2
tp2681
(S'pay'
p2682
g5
tp2683
tp2684
(lp2685
I0
aI0
aI1
as((S'bad'
p2686
g2
tp2687
(S'project'
p2688
g5
tp2689
tp2690
(lp2691
I0
aI0
aI1
as((S'many'
p2692
g2
tp2693
(S'policies'
p2694
g24
tp2695
tp2696
(lp2697
I0
aI0
aI1
as((S'broad'
p2698
g2
tp2699
(S'arrangement'
p2700
g5
tp2701
tp2702
(lp2703
I0
aI1
aI0
as((S'good'
p2704
g2
tp2705
(S'exposure'
p2706
g5
tp2707
tp2708
(lp2709
I0
aI1
aI0
as((S'high'
p2710
g2
tp2711
(S'attrition'
p2712
g5
tp2713
tp2714
(lp2715
I1
aI0
aI0
as((S'very'
p2716
g29
tp2717
(S'overpaid'
p2718
g32
tp2719
tp2720
(lp2721
I0
aI1
aI0
as((S'equal'
p2722
g2
tp2723
(S'Opportunities'
p2724
g24
tp2725
tp2726
(lp2727
I0
aI1
aI0
as((S'little'
p2728
g29
tp2729
(S'autonomy'
p2730
g2
tp2731
tp2732
(lp2733
I0
aI0
aI1
as((S'overall'
p2734
g2
tp2735
(S'attitude'
p2736
g5
tp2737
tp2738
(lp2739
I0
aI0
aI1
as((S'great'
p2740
g2
tp2741
(S'teams'
p2742
g24
tp2743
tp2744
(lp2745
I0
aI1
aI0
as((S'public'
p2746
g2
tp2747
(S'impressions'
p2748
g24
tp2749
tp2750
(lp2751
I0
aI0
aI1
as((S'very'
p2752
g29
tp2753
(S'professional'
p2754
g2
tp2755
tp2756
(lp2757
I0
aI1
aI0
as((S'crime-filled'
p2758
g2
tp2759
(S'cities'
p2760
g24
tp2761
tp2762
(lp2763
I0
aI0
aI1
as((S'individual'
p2764
g2
tp2765
(S'contributors'
p2766
g24
tp2767
tp2768
(lp2769
I0
aI0
aI1
as((S'reasonable'
p2770
g2
tp2771
(S'mission'
p2772
g5
tp2773
tp2774
(lp2775
I1
aI0
aI0
as((S'not'
p2776
g29
tp2777
(S'promoted'
p2778
g32
tp2779
tp2780
(lp2781
I0
aI0
aI1
as((S'individual'
p2782
g2
tp2783
(S'growth'
p2784
g5
tp2785
tp2786
(lp2787
I0
aI1
aI0
as((S'valuable'
p2788
g2
tp2789
(S'life'
p2790
g5
tp2791
tp2792
(lp2793
I1
aI0
aI0
as((S'Retail'
p2794
g2
tp2795
(S'pharmacy'
p2796
g5
tp2797
tp2798
(lp2799
I0
aI0
aI1
as((S'always'
p2800
g29
tp2801
(S'loved'
p2802
g32
tp2803
tp2804
(lp2805
I0
aI1
aI0
as((S'employee'
p2806
g5
tp2807
(S'responsible'
p2808
g2
tp2809
tp2810
(lp2811
I0
aI1
aI0
as((S'only'
p2812
g29
tp2813
(S'worried'
p2814
g32
tp2815
tp2816
(lp2817
I0
aI0
aI1
as((S'great'
p2818
g2
tp2819
(S'vacation'
p2820
g5
tp2821
tp2822
(lp2823
I0
aI1
aI0
as((S'always'
p2824
g29
tp2825
(S'having'
p2826
g93
tp2827
tp2828
(lp2829
I0
aI0
aI1
as((S'great'
p2830
g2
tp2831
(S'healthcare'
p2832
g5
tp2833
tp2834
(lp2835
I0
aI1
aI0
as((S'strong'
p2836
g2
tp2837
(S'company'
p2838
g5
tp2839
tp2840
(lp2841
I1
aI1
aI0
as((S'bad'
p2842
g2
tp2843
(S'time'
p2844
g5
tp2845
tp2846
(lp2847
I0
aI0
aI1
as((S'good'
p2848
g2
tp2849
(S'value'
p2850
g5
tp2851
tp2852
(lp2853
I0
aI1
aI0
as((S'different'
p2854
g2
tp2855
(S'cultures'
p2856
g24
tp2857
tp2858
(lp2859
I0
aI1
aI0
as((S'not'
p2860
g29
tp2861
(S'knowing'
p2862
g93
tp2863
tp2864
(lp2865
I1
aI0
aI0
as((S'outside'
p2866
g2
tp2867
(S'oblagations'
p2868
g24
tp2869
tp2870
(lp2871
I0
aI1
aI0
as((S'many'
p2872
g2
tp2873
(S'cons'
p2874
g24
tp2875
tp2876
(lp2877
I0
aI0
aI2
as((S'Competitive'
p2878
g2
tp2879
(S'salary/benefits'
p2880
g24
tp2881
tp2882
(lp2883
I0
aI1
aI0
as((S'great'
p2884
g2
tp2885
(S'compensation'
p2886
g5
tp2887
tp2888
(lp2889
I1
aI2
aI0
as((S'good'
p2890
g2
tp2891
(S'reputation'
p2892
g5
tp2893
tp2894
(lp2895
I0
aI1
aI1
as((S'too'
p2896
g29
tp2897
(S'hierarchi'
p2898
g329
tp2899
tp2900
(lp2901
I1
aI0
aI0
as((S'great'
p2902
g2
tp2903
(S'experience'
p2904
g5
tp2905
tp2906
(lp2907
I2
aI0
aI0
as((S'Self-imposed'
p2908
g2
tp2909
(S'leaving'
p2910
g5
tp2911
tp2912
(lp2913
I0
aI0
aI1
as((S'-Slow'
p2914
g2
tp2915
(S'Summers'
p2916
g24
tp2917
tp2918
(lp2919
I0
aI0
aI1
as((S'corporate'
p2920
g2
tp2921
(S'strategy'
p2922
g5
tp2923
tp2924
(lp2925
I1
aI0
aI0
as((S'noticeable'
p2926
g2
tp2927
(S'favoritism'
p2928
g5
tp2929
tp2930
(lp2931
I0
aI0
aI1
as((S'Competitive'
p2932
g2
tp2933
(S'environment'
p2934
g5
tp2935
tp2936
(lp2937
I0
aI0
aI1
as((S'great'
p2938
g2
tp2939
(S'attitude'
p2940
g5
tp2941
tp2942
(lp2943
I0
aI1
aI0
as((S'operations'
p2944
g24
tp2945
(S'chaotic'
p2946
g2
tp2947
tp2948
(lp2949
I0
aI0
aI1
as((S'large'
p2950
g2
tp2951
(S'company'
p2952
g5
tp2953
tp2954
(lp2955
I2
aI4
aI4
as((S'real'
p2956
g2
tp2957
(S'education'
p2958
g5
tp2959
tp2960
(lp2961
I1
aI0
aI0
as((S'weak'
p2962
g2
tp2963
(S'management'
p2964
g5
tp2965
tp2966
(lp2967
I0
aI0
aI1
as((S'semiannual'
p2968
g2
tp2969
(S'contributions'
p2970
g24
tp2971
tp2972
(lp2973
I0
aI1
aI0
as((S'respectful'
p2974
g2
tp2975
(S'people'
p2976
g24
tp2977
tp2978
(lp2979
I0
aI1
aI0
as((S'always'
p2980
g29
tp2981
(S'have'
p2982
g329
tp2983
tp2984
(lp2985
I0
aI1
aI0
as((S'good'
p2986
g2
tp2987
(S'culture'
p2988
g5
tp2989
tp2990
(lp2991
I0
aI2
aI0
as((S'really'
p2992
g29
tp2993
(S'willing'
p2994
g2
tp2995
tp2996
(lp2997
I0
aI1
aI0
as((S'professional'
p2998
g2
tp2999
(S'development'
p3000
g5
tp3001
tp3002
(lp3003
I0
aI3
aI0
as((S'very'
p3004
g29
tp3005
(S'few'
p3006
g2
tp3007
tp3008
(lp3009
I0
aI0
aI1
as((S'development/training'
p3010
g2
tp3011
(S'opportunities'
p3012
g24
tp3013
tp3014
(lp3015
I0
aI0
aI1
as((S'good'
p3016
g2
tp3017
(S'raises'
p3018
g24
tp3019
tp3020
(lp3021
I0
aI0
aI1
as((S'Highly'
p3022
g29
tp3023
(S'talented'
p3024
g32
tp3025
tp3026
(lp3027
I0
aI1
aI0
as((S'many'
p3028
g2
tp3029
(S'countries'
p3030
g24
tp3031
tp3032
(lp3033
I0
aI1
aI0
as((S'crafts-people'
p3034
g2
tp3035
(g1273
g5
tp3036
tp3037
(lp3038
I0
aI1
aI0
as((S'pleasant'
p3039
g2
tp3040
(S'place'
p3041
g5
tp3042
tp3043
(lp3044
I1
aI0
aI0
as((S'low'
p3045
g2
tp3046
(S'base'
p3047
g5
tp3048
tp3049
(lp3050
I0
aI0
aI1
as((S'same'
p3051
g2
tp3052
(S'people'
p3053
g24
tp3054
tp3055
(lp3056
I0
aI0
aI1
as((S'free'
p3057
g2
tp3058
(S'food'
p3059
g5
tp3060
tp3061
(lp3062
I0
aI0
aI1
as((S'good'
p3063
g2
tp3064
(S'coaching'
p3065
g5
tp3066
tp3067
(lp3068
I0
aI1
aI0
as((S'few'
p3069
g2
tp3070
(S'pockets'
p3071
g24
tp3072
tp3073
(lp3074
I1
aI0
aI0
as((S'ethical'
p3075
g2
tp3076
(S'culture'
p3077
g5
tp3078
tp3079
(lp3080
I0
aI1
aI0
as((S'company'
p3081
g5
tp3082
(S'such'
p3083
g2
tp3084
tp3085
(lp3086
I0
aI1
aI0
as((S'many'
p3087
g2
tp3088
(S'processes'
p3089
g24
tp3090
tp3091
(lp3092
I0
aI0
aI4
as((S'strong'
p3093
g2
tp3094
(S'desire'
p3095
g5
tp3096
tp3097
(lp3098
I0
aI1
aI0
as((S'Japanese'
p3099
g2
tp3100
(S'culture'
p3101
g5
tp3102
tp3103
(lp3104
I0
aI0
aI1
as((S'negative'
p3105
g2
tp3106
(S'aspects'
p3107
g24
tp3108
tp3109
(lp3110
I0
aI0
aI1
as((S'not'
p3111
g29
tp3112
(S'meeting'
p3113
g93
tp3114
tp3115
(lp3116
I0
aI0
aI1
as((S'first'
p3117
g2
tp3118
(S'couple'
p3119
g5
tp3120
tp3121
(lp3122
I1
aI0
aI0
as((S'Incentive'
p3123
g2
tp3124
(S'structure'
p3125
g5
tp3126
tp3127
(lp3128
I0
aI0
aI1
as((S'few'
p3129
g2
tp3130
(S'years'
p3131
g24
tp3132
tp3133
(lp3134
I1
aI1
aI4
as((S'greedy'
p3135
g2
tp3136
(S'company'
p3137
g5
tp3138
tp3139
(lp3140
I0
aI0
aI1
as((S'particular'
p3141
g2
tp3142
(S'dept'
p3143
g5
tp3144
tp3145
(lp3146
I0
aI1
aI0
as((S'Corporate'
p3147
g2
tp3148
(S'benefits'
p3149
g24
tp3150
tp3151
(lp3152
I0
aI1
aI0
as((S'vastly'
p3153
g29
tp3154
(S'eroded'
p3155
g154
tp3156
tp3157
(lp3158
I0
aI1
aI0
as((S'great'
p3159
g2
tp3160
(S'engine'
p3161
g5
tp3162
tp3163
(lp3164
I0
aI0
aI1
as((S'solid'
p3165
g2
tp3166
(S'pay'
p3167
g5
tp3168
tp3169
(lp3170
I0
aI1
aI0
as((S'very'
p3171
g29
tp3172
(S'progressive'
p3173
g2
tp3174
tp3175
(lp3176
I0
aI1
aI0
as((S'same'
p3177
g2
tp3178
(S'position'
p3179
g5
tp3180
tp3181
(lp3182
I0
aI0
aI1
as((S'own'
p3183
g2
tp3184
(S'pacequot'
p3185
g5
tp3186
tp3187
(lp3188
I0
aI1
aI0
as((S'Not'
p3189
g29
tp3190
(S'consistent'
p3191
g2
tp3192
tp3193
(lp3194
I0
aI0
aI1
as(g1693
(S'medical'
p3195
g2
tp3196
tp3197
(lp3198
I0
aI1
aI0
as((S'retail'
p3199
g2
tp3200
(S'job'
p3201
g5
tp3202
tp3203
(lp3204
I0
aI0
aI1
as((S'Flexible'
p3205
g2
tp3206
(S'environment'
p3207
g5
tp3208
tp3209
(lp3210
I1
aI0
aI0
as((S'very'
p3211
g29
tp3212
(S'good'
p3213
g2
tp3214
tp3215
(lp3216
I1
aI2
aI1
as((S'equitable'
p3217
g2
tp3218
(S'compensation'
p3219
g5
tp3220
tp3221
(lp3222
I0
aI1
aI0
as((S'well'
p3223
g29
tp3224
(S'being'
p3225
g93
tp3226
tp3227
(lp3228
I0
aI1
aI0
as((S'general'
p3229
g2
tp3230
(S'need'
p3231
g5
tp3232
tp3233
(lp3234
I0
aI0
aI1
as((S'not'
p3235
g29
tp3236
(S'French'
p3237
g2
tp3238
tp3239
(lp3240
I0
aI0
aI1
as((S'other'
p3241
g2
tp3242
(S'career'
p3243
g5
tp3244
tp3245
(lp3246
I0
aI0
aI1
as((S'bit'
p3247
g5
tp3248
(S'low'
p3249
g2
tp3250
tp3251
(lp3252
I0
aI0
aI1
as((S'different'
p3253
g2
tp3254
(S'departments'
p3255
g24
tp3256
tp3257
(lp3258
I0
aI1
aI0
as((S'slow-moving'
p3259
g2
tp3260
(S'company'
p3261
g5
tp3262
tp3263
(lp3264
I0
aI0
aI1
as((S'small'
p3265
g2
tp3266
(S'town'
p3267
g5
tp3268
tp3269
(lp3270
I0
aI0
aI1
as((S'positive'
p3271
g2
tp3272
(S'environment'
p3273
g5
tp3274
tp3275
(lp3276
I0
aI1
aI0
as((S'global'
p3277
g2
tp3278
(S'functions'
p3279
g24
tp3280
tp3281
(lp3282
I0
aI0
aI1
as((S'diverse'
p3283
g2
tp3284
(S'set'
p3285
g5
tp3286
tp3287
(lp3288
I0
aI1
aI0
as((S'ever'
p3289
g29
tp3290
(S'met'
p3291
g32
tp3292
tp3293
(lp3294
I0
aI0
aI1
as((S'tech'
p3295
g5
tp3296
(S'new'
p3297
g2
tp3298
tp3299
(lp3300
I0
aI1
aI0
as((S'many'
p3301
g2
tp3302
(S'programs'
p3303
g24
tp3304
tp3305
(lp3306
I1
aI0
aI0
as((S'full'
p3307
g2
tp3308
(S'motivation'
p3309
g5
tp3310
tp3311
(lp3312
I0
aI1
aI0
as((S'interesting'
p3313
g2
tp3314
(S'work'
p3315
g5
tp3316
tp3317
(lp3318
I1
aI5
aI0
as((S'healthy'
p3319
g2
tp3320
(S'amount'
p3321
g5
tp3322
tp3323
(lp3324
I0
aI0
aI1
as((S'Overly'
p3325
g29
tp3326
(S'conservative'
p3327
g2
tp3328
tp3329
(lp3330
I0
aI0
aI1
as((S'well'
p3331
g29
tp3332
(S'run'
p3333
g32
tp3334
tp3335
(lp3336
I0
aI1
aI1
as((S'Innovative'
p3337
g2
tp3338
(S'company'
p3339
g5
tp3340
tp3341
(lp3342
I0
aI1
aI0
as((S'good'
p3343
g2
tp3344
(S'potenital'
p3345
g5
tp3346
tp3347
(lp3348
I0
aI0
aI1
as((S'self-serving'
p3349
g2
tp3350
(S'agendas'
p3351
g24
tp3352
tp3353
(lp3354
I0
aI0
aI1
as((S'other'
p3355
g2
tp3356
(S'places'
p3357
g24
tp3358
tp3359
(lp3360
I0
aI1
aI0
as((S'Not'
p3361
g29
tp3362
(S'good'
p3363
g2
tp3364
tp3365
(lp3366
I0
aI0
aI1
as((S'bad'
p3367
g2
tp3368
(S'press'
p3369
g5
tp3370
tp3371
(lp3372
I0
aI0
aI1
as((S'bad'
p3373
g2
tp3374
(S'game'
p3375
g5
tp3376
tp3377
(lp3378
I0
aI0
aI1
as((S'Large'
p3379
g2
tp3380
(S'amounts'
p3381
g24
tp3382
tp3383
(lp3384
I0
aI0
aI1
as((S'lateral'
p3385
g2
tp3386
(S'movement'
p3387
g5
tp3388
tp3389
(lp3390
I0
aI1
aI0
as((S'social'
p3391
g2
tp3392
(S'life'
p3393
g5
tp3394
tp3395
(lp3396
I0
aI0
aI2
as((S'great'
p3397
g2
tp3398
(S'company'
p3399
g5
tp3400
tp3401
(lp3402
I7
aI7
aI1
as((S'annual'
p3403
g2
tp3404
(S'bonus'
p3405
g5
tp3406
tp3407
(lp3408
I0
aI0
aI1
as((S'good'
p3409
g2
tp3410
(S'risk'
p3411
g5
tp3412
tp3413
(lp3414
I0
aI1
aI0
as((S'similar'
p3415
g2
tp3416
(S'jobs'
p3417
g24
tp3418
tp3419
(lp3420
I0
aI0
aI1
as((S'new'
p3421
g2
tp3422
(S'skills'
p3423
g24
tp3424
tp3425
(lp3426
I0
aI1
aI0
as((S'much'
p3427
g2
tp3428
(S'processes'
p3429
g24
tp3430
tp3431
(lp3432
I0
aI0
aI1
as((S'never'
p3433
g29
tp3434
(S'put'
p3435
g154
tp3436
tp3437
(lp3438
I1
aI0
aI0
as((S'good'
p3439
g2
tp3440
(S'jobs'
p3441
g24
tp3442
tp3443
(lp3444
I1
aI0
aI0
as((S'public'
p3445
g2
tp3446
(S'perception'
p3447
g5
tp3448
tp3449
(lp3450
I0
aI0
aI1
as((S'much'
p3451
g2
tp3452
(S'room'
p3453
g5
tp3454
tp3455
(lp3456
I0
aI0
aI1
as((S'enthusiastic'
p3457
g2
tp3458
(S'people'
p3459
g24
tp3460
tp3461
(lp3462
I0
aI1
aI0
as((S'offer'
p3463
g5
tp3464
(S'many'
p3465
g2
tp3466
tp3467
(lp3468
I0
aI1
aI0
as((S'fast'
p3469
g29
tp3470
(S'moving'
p3471
g93
tp3472
tp3473
(lp3474
I1
aI0
aI0
as((S'big'
p3475
g2
tp3476
(S'bucks'
p3477
g24
tp3478
tp3479
(lp3480
I0
aI0
aI1
as((S'slow'
p3481
g2
tp3482
(S'Oil'
p3483
g5
tp3484
tp3485
(lp3486
I0
aI0
aI1
as((S'pragmatic'
p3487
g2
tp3488
(S'approach'
p3489
g5
tp3490
tp3491
(lp3492
I1
aI0
aI0
as((S'silo'
p3493
g29
tp3494
(S'oriented'
p3495
g32
tp3496
tp3497
(lp3498
I0
aI0
aI1
as((S'uncapped'
p3499
g2
tp3500
(S'commission'
p3501
g5
tp3502
tp3503
(lp3504
I0
aI0
aI1
as((S'Sometimes'
p3505
g29
tp3506
(S'felt'
p3507
g154
tp3508
tp3509
(lp3510
I0
aI0
aI1
as((S'Great'
p3511
g2
tp3512
(S'communication'
p3513
g5
tp3514
tp3515
(lp3516
I0
aI1
aI0
as((S"n't"
p3517
g29
tp3518
(S'understand'
p3519
g329
tp3520
tp3521
(lp3522
I0
aI0
aI1
as((S'other'
p3523
g2
tp3524
(S'firms'
p3525
g24
tp3526
tp3527
(lp3528
I0
aI0
aI2
as((S'flexible'
p3529
g2
tp3530
(S'scheules'
p3531
g24
tp3532
tp3533
(lp3534
I0
aI1
aI0
as((S'very'
p3535
g29
tp3536
(S'demanding'
p3537
g93
tp3538
tp3539
(lp3540
I0
aI0
aI1
as((S'many'
p3541
g2
tp3542
(S'smart'
p3543
g5
tp3544
tp3545
(lp3546
I1
aI0
aI0
as((S'co-operative'
p3547
g2
tp3548
(S'colleagues'
p3549
g24
tp3550
tp3551
(lp3552
I0
aI1
aI0
as((S'intellectual'
p3553
g2
tp3554
(S'Staff'
p3555
g5
tp3556
tp3557
(lp3558
I0
aI1
aI0
as((S'not'
p3559
g29
tp3560
(S'pay'
p3561
g329
tp3562
tp3563
(lp3564
I0
aI0
aI1
as((S'good'
p3565
g2
tp3566
(S'focus'
p3567
g5
tp3568
tp3569
(lp3570
I0
aI1
aI0
as((S'institutional'
p3571
g2
tp3572
(S'inertia'
p3573
g5
tp3574
tp3575
(lp3576
I0
aI0
aI1
as((S'poor'
p3577
g2
tp3578
(S'management'
p3579
g5
tp3580
tp3581
(lp3582
I3
aI0
aI2
as((S'good'
p3583
g2
tp3584
(S'work/life'
p3585
g5
tp3586
tp3587
(lp3588
I2
aI2
aI0
as((S'same'
p3589
g2
tp3590
(S'company'
p3591
g5
tp3592
tp3593
(lp3594
I1
aI0
aI0
as((S'great'
p3595
g2
tp3596
(S'team'
p3597
g5
tp3598
tp3599
(lp3600
I0
aI1
aI0
as((S'place'
p3601
g5
tp3602
(S'overall'
p3603
g2
tp3604
tp3605
(lp3606
I0
aI0
aI1
as((S'flexible'
p3607
g2
tp3608
(S'schedules'
p3609
g24
tp3610
tp3611
(lp3612
I0
aI3
aI0
as((S'not'
p3613
g29
tp3614
(S'inclusive'
p3615
g2
tp3616
tp3617
(lp3618
I0
aI0
aI1
as((S'not'
p3619
g29
tp3620
(S'change'
p3621
g329
tp3622
tp3623
(lp3624
I0
aI0
aI1
as((S'own'
p3625
g2
tp3626
(S'rules'
p3627
g24
tp3628
tp3629
(lp3630
I0
aI0
aI1
as((S'too'
p3631
g29
tp3632
(S'nice'
p3633
g2
tp3634
tp3635
(lp3636
I0
aI0
aI1
as((S'Continuously'
p3637
g29
tp3638
(S'trying'
p3639
g93
tp3640
tp3641
(lp3642
I0
aI1
aI0
as((S'other'
p3643
g2
tp3644
(S'opportunities'
p3645
g24
tp3646
tp3647
(lp3648
I0
aI1
aI0
as((S'onsite'
p3649
g2
tp3650
(S'gym'
p3651
g5
tp3652
tp3653
(lp3654
I0
aI1
aI0
as((S'usually'
p3655
g29
tp3656
(S'willing'
p3657
g2
tp3658
tp3659
(lp3660
I0
aI1
aI0
as((S'good'
p3661
g2
tp3662
(S'jib'
p3663
g5
tp3664
tp3665
(lp3666
I0
aI1
aI0
as((S"'ole"
p3667
g2
tp3668
(S'boy'
p3669
g5
tp3670
tp3671
(lp3672
I0
aI0
aI1
as((S'never'
p3673
g29
tp3674
(S'satisfied'
p3675
g32
tp3676
tp3677
(lp3678
I0
aI0
aI1
as((S'inwardly'
p3679
g29
tp3680
(S'focused'
p3681
g32
tp3682
tp3683
(lp3684
I1
aI0
aI0
as((S'Relatively'
p3685
g29
tp3686
(S'modern'
p3687
g2
tp3688
tp3689
(lp3690
I0
aI1
aI0
as((S'extensive'
p3691
g2
tp3692
(S'training'
p3693
g5
tp3694
tp3695
(lp3696
I0
aI1
aI0
as((S'new'
p3697
g2
tp3698
(S'hires'
p3699
g24
tp3700
tp3701
(lp3702
I1
aI0
aI0
as((S'usual'
p3703
g2
tp3704
(S'days'
p3705
g24
tp3706
tp3707
(lp3708
I0
aI1
aI0
as((S'constantly'
p3709
g29
tp3710
(S'asking'
p3711
g93
tp3712
tp3713
(lp3714
I0
aI0
aI1
as((S'morale'
p3715
g5
tp3716
(S'horrible'
p3717
g2
tp3718
tp3719
(lp3720
I1
aI0
aI0
as((S'especially'
p3721
g29
tp3722
(S'procurement'
p3723
g2
tp3724
tp3725
(lp3726
I0
aI0
aI1
as((S'not'
p3727
g29
tp3728
(S'embrace'
p3729
g329
tp3730
tp3731
(lp3732
I0
aI1
aI0
as((S'great'
p3733
g2
tp3734
(S'work'
p3735
g5
tp3736
tp3737
(lp3738
I1
aI1
aI0
as((S'public'
p3739
g2
tp3740
(S'opinion'
p3741
g5
tp3742
tp3743
(lp3744
I0
aI1
aI0
as((S'-Workable'
p3745
g2
tp3746
(S'hours'
p3747
g24
tp3748
tp3749
(lp3750
I0
aI1
aI0
as((S'global'
p3751
g2
tp3752
(S'work'
p3753
g5
tp3754
tp3755
(lp3756
I0
aI2
aI0
as((S'flexible'
p3757
g2
tp3758
(S'schedule'
p3759
g5
tp3760
tp3761
(lp3762
I0
aI5
aI0
as((S'other'
p3763
g2
tp3764
(S'employers'
p3765
g24
tp3766
tp3767
(lp3768
I0
aI1
aI0
as((S'always'
p3769
g29
tp3770
(S'competitive'
p3771
g2
tp3772
tp3773
(lp3774
I0
aI0
aI1
as((S'not'
p3775
g29
tp3776
(S'having'
p3777
g93
tp3778
tp3779
(lp3780
I0
aI1
aI0
as((S'instantly'
p3781
g29
tp3782
(S'come'
p3783
g329
tp3784
tp3785
(lp3786
I0
aI0
aI1
as((S'Often'
p3787
g29
tp3788
(S'understaffed'
p3789
g32
tp3790
tp3791
(lp3792
I0
aI0
aI1
as((S'little'
p3793
g2
tp3794
(S'pay'
p3795
g5
tp3796
tp3797
(lp3798
I0
aI0
aI1
as((S'long'
p3799
g2
tp3800
(S'work'
p3801
g5
tp3802
tp3803
(lp3804
I0
aI0
aI1
as((S'Not'
p3805
g29
tp3806
(S'willing'
p3807
g2
tp3808
tp3809
(lp3810
I0
aI0
aI1
as((S'Long'
p3811
g2
tp3812
(S'working'
p3813
g5
tp3814
tp3815
(lp3816
I0
aI0
aI1
as((S'extremely'
p3817
g29
tp3818
(S'collaborate'
p3819
g2
tp3820
tp3821
(lp3822
I0
aI1
aI0
as((S"n't"
p3823
g29
tp3824
(S'pay'
p3825
g329
tp3826
tp3827
(lp3828
I0
aI0
aI1
as((S'steadily'
p3829
g29
tp3830
(S'declined'
p3831
g32
tp3832
tp3833
(lp3834
I0
aI0
aI1
as((S'many'
p3835
g2
tp3836
(S'opportunities'
p3837
g24
tp3838
tp3839
(lp3840
I0
aI5
aI1
as((S'solid'
p3841
g2
tp3842
(S'corporation'
p3843
g5
tp3844
tp3845
(lp3846
I0
aI1
aI0
as((S'similar'
p3847
g2
tp3848
(S'positions'
p3849
g24
tp3850
tp3851
(lp3852
I0
aI0
aI1
as((S'not'
p3853
g29
tp3854
(S'competitive'
p3855
g2
tp3856
tp3857
(lp3858
I0
aI0
aI1
as((S'great'
p3859
g2
tp3860
(S'hiring'
p3861
g5
tp3862
tp3863
(lp3864
I0
aI1
aI0
as((S'different'
p3865
g2
tp3866
(S'functions'
p3867
g24
tp3868
tp3869
(lp3870
I0
aI1
aI0
as((S'technical'
p3871
g2
tp3872
(S'software'
p3873
g5
tp3874
tp3875
(lp3876
I0
aI1
aI0
as((S'not'
p3877
g29
tp3878
(S'appreciate'
p3879
g329
tp3880
tp3881
(lp3882
I0
aI0
aI1
as((S'cool'
p3883
g2
tp3884
(S'people'
p3885
g24
tp3886
tp3887
(lp3888
I0
aI1
aI0
as((S'low'
p3889
g2
tp3890
(S'starting'
p3891
g5
tp3892
tp3893
(lp3894
I0
aI0
aI1
as((S'executive'
p3895
g2
tp3896
(S'turnover'
p3897
g5
tp3898
tp3899
(lp3900
I0
aI0
aI1
as((S'ever'
p3901
g29
tp3902
(S'had'
p3903
g154
tp3904
tp3905
(lp3906
I1
aI0
aI0
as(g3196
(S'clinic'
p3907
g2
tp3908
tp3909
(lp3910
I0
aI1
aI0
as((S'Just'
p3911
g29
tp3912
(S'Started'
p3913
g32
tp3914
tp3915
(lp3916
I1
aI0
aI0
as((S'-Work/Life'
p3917
g2
tp3918
(S'-Multitude'
p3919
g2
tp3920
tp3921
(lp3922
I0
aI1
aI0
as((S'large'
p3923
g2
tp3924
(S'amount'
p3925
g5
tp3926
tp3927
(lp3928
I0
aI0
aI1
as((S"n't"
p3929
g29
tp3930
(S'expect'
p3931
g329
tp3932
tp3933
(lp3934
I1
aI0
aI0
as((S'highly'
p3935
g29
tp3936
(S'focused'
p3937
g32
tp3938
tp3939
(lp3940
I0
aI1
aI0
as((S'well'
p3941
g29
tp3942
(S'established'
p3943
g154
tp3944
tp3945
(lp3946
I0
aI0
aI1
as((S'cool'
p3947
g2
tp3948
(S'manager'
p3949
g5
tp3950
tp3951
(lp3952
I0
aI1
aI0
as((S'overall'
p3953
g2
tp3954
(S'departmentalize'
p3955
g5
tp3956
tp3957
(lp3958
I0
aI0
aI1
as((S'little'
p3959
g2
tp3960
(S'room'
p3961
g5
tp3962
tp3963
(lp3964
I1
aI0
aI0
as((S'extremely'
p3965
g29
tp3966
(S'knowledgable'
p3967
g2
tp3968
tp3969
(lp3970
I0
aI1
aI0
as((S'part-time'
p3971
g2
tp3972
(S'*The'
p3973
g5
tp3974
tp3975
(lp3976
I0
aI0
aI1
as((S'Flexible'
p3977
g2
tp3978
(S'schedule'
p3979
g5
tp3980
tp3981
(lp3982
I0
aI1
aI0
as((S'pretty'
p3983
g29
tp3984
(S'good'
p3985
g2
tp3986
tp3987
(lp3988
I1
aI1
aI0
as((S'professional'
p3989
g2
tp3990
(S'advancement'
p3991
g5
tp3992
tp3993
(lp3994
I0
aI1
aI0
as((S'very'
p3995
g29
tp3996
(S'boring'
p3997
g93
tp3998
tp3999
(lp4000
I0
aI0
aI1
as((S'Always'
p4001
g29
tp4002
(S'changing'
p4003
g93
tp4004
tp4005
(lp4006
I0
aI0
aI1
as((S'retail'
p4007
g2
tp4008
(S'veterans'
p4009
g24
tp4010
tp4011
(lp4012
I0
aI1
aI0
as((S'not'
p4013
g29
tp4014
(S'deviate'
p4015
g329
tp4016
tp4017
(lp4018
I0
aI0
aI1
as((S'median'
p4019
g2
tp4020
(S'salary'
p4021
g5
tp4022
tp4023
(lp4024
I1
aI0
aI0
as((S'good'
p4025
g2
tp4026
(S'work-life'
p4027
g5
tp4028
tp4029
(lp4030
I0
aI3
aI0
as((S'not'
p4031
g29
tp4032
(S'found'
p4033
g32
tp4034
tp4035
(lp4036
I0
aI0
aI1
as((S'Large'
p4037
g2
tp4038
(S'corporation'
p4039
g5
tp4040
tp4041
(lp4042
I0
aI1
aI0
as((S'many'
p4043
g2
tp4044
(S'years'
p4045
g24
tp4046
tp4047
(lp4048
I0
aI0
aI2
as((S'company'
p4049
g5
tp4050
(S'overall'
p4051
g2
tp4052
tp4053
(lp4054
I1
aI0
aI0
as((S'good'
p4055
g2
tp4056
(S'rules'
p4057
g24
tp4058
tp4059
(lp4060
I0
aI1
aI0
as((S'knowledgable'
p4061
g2
tp4062
(S'amp'
p4063
g5
tp4064
tp4065
(lp4066
I0
aI1
aI0
as((S"n't"
p4067
g29
tp4068
(S'hired'
p4069
g32
tp4070
tp4071
(lp4072
I0
aI0
aI1
as((S'not'
p4073
g29
tp4074
(S'want'
p4075
g329
tp4076
tp4077
(lp4078
I1
aI0
aI1
as((S'highly'
p4079
g29
tp4080
(S'non-competitive'
p4081
g2
tp4082
tp4083
(lp4084
I0
aI0
aI1
as((S'good'
p4085
g2
tp4086
(S'job'
p4087
g5
tp4088
tp4089
(lp4090
I4
aI2
aI2
as((S'poor'
p4091
g2
tp4092
(S'managers'
p4093
g24
tp4094
tp4095
(lp4096
I0
aI0
aI1
as((S'bad'
p4097
g2
tp4098
(S'coffee'
p4099
g5
tp4100
tp4101
(lp4102
I0
aI0
aI1
as((S'really'
p4103
g29
tp4104
(S'drain'
p4105
g329
tp4106
tp4107
(lp4108
I0
aI0
aI1
as((S'so'
p4109
g29
tp4110
(S'good'
p4111
g2
tp4112
tp4113
(lp4114
I0
aI0
aI1
as((S'high'
p4115
g2
tp4116
(S'energy'
p4117
g5
tp4118
tp4119
(lp4120
I0
aI1
aI0
as((S'sensitive'
p4121
g2
tp4122
(S'deadlines'
p4123
g24
tp4124
tp4125
(lp4126
I0
aI0
aI1
as((S'centers'
p4127
g24
tp4128
(S'available'
p4129
g2
tp4130
tp4131
(lp4132
I0
aI0
aI1
as((S'bureaucratic'
p4133
g2
tp4134
(S'political'
p4135
g2
tp4136
tp4137
(lp4138
I0
aI0
aI1
as((S'hierarchical'
p4139
g2
tp4140
(S'company'
p4141
g5
tp4142
tp4143
(lp4144
I0
aI0
aI1
as((S'locomotive'
p4145
g2
tp4146
(S'manufacturing'
p4147
g5
tp4148
tp4149
(lp4150
I0
aI1
aI0
as((S'good'
p4151
g2
tp4152
(S'prospect'
p4153
g5
tp4154
tp4155
(lp4156
I0
aI1
aI0
as((S'early'
p4157
g2
tp4158
(S'experience'
p4159
g5
tp4160
tp4161
(lp4162
I0
aI1
aI0
as((S'much'
p4163
g2
tp4164
(S'compliance'
p4165
g5
tp4166
tp4167
(lp4168
I0
aI0
aI1
as((S'Competitive'
p4169
g2
tp4170
(S'base'
p4171
g5
tp4172
tp4173
(lp4174
I0
aI1
aI0
as((S'strategic'
p4175
g2
tp4176
(S'insight'
p4177
g5
tp4178
tp4179
(lp4180
I0
aI1
aI0
as((S'functional'
p4181
g2
tp4182
(S'responsibility'
p4183
g5
tp4184
tp4185
(lp4186
I0
aI1
aI0
as((S'not'
p4187
g29
tp4188
(S'adjusted'
p4189
g32
tp4190
tp4191
(lp4192
I0
aI0
aI1
as((S'entrepreneurial'
p4193
g2
tp4194
(S'environment'
p4195
g5
tp4196
tp4197
(lp4198
I0
aI1
aI0
as((S'homeless'
p4199
g2
tp4200
(S'people'
p4201
g24
tp4202
tp4203
(lp4204
I0
aI0
aI1
as((S"n't"
p4205
g29
tp4206
(S'think'
p4207
g329
tp4208
tp4209
(lp4210
I0
aI0
aI1
as((S'actual'
p4211
g2
tp4212
(S'work'
p4213
g5
tp4214
tp4215
(lp4216
I0
aI0
aI1
as((S'retail'
p4217
g2
tp4218
(S'level'
p4219
g5
tp4220
tp4221
(lp4222
I1
aI0
aI0
as((S'many'
p4223
g2
tp4224
(S'times'
p4225
g24
tp4226
tp4227
(lp4228
I1
aI0
aI0
as((S'retail'
p4229
g2
tp4230
(S'portion'
p4231
g5
tp4232
tp4233
(lp4234
I0
aI0
aI1
as((S'overall'
p4235
g2
tp4236
(S'culture'
p4237
g5
tp4238
tp4239
(lp4240
I1
aI0
aI0
as((S'impossible'
p4241
g2
tp4242
(S'describe'
p4243
g5
tp4244
tp4245
(lp4246
I0
aI1
aI0
as((S'Large'
p4247
g2
tp4248
(S'size'
p4249
g5
tp4250
tp4251
(lp4252
I0
aI0
aI1
as((S'high'
p4253
g2
tp4254
(S'amount'
p4255
g5
tp4256
tp4257
(lp4258
I0
aI1
aI0
as((S'responsive'
p4259
g2
tp4260
(S'bosses'
p4261
g24
tp4262
tp4263
(lp4264
I0
aI1
aI0
as((S"n't"
p4265
g29
tp4266
(S'like'
p4267
g329
tp4268
tp4269
(lp4270
I0
aI0
aI1
as(g3748
(S'-Extra'
p4271
g2
tp4272
tp4273
(lp4274
I0
aI1
aI0
as((S'strong'
p4275
g2
tp4276
(S'division'
p4277
g5
tp4278
tp4279
(lp4280
I0
aI0
aI1
as((S'different'
p4281
g2
tp4282
(S'projects'
p4283
g24
tp4284
tp4285
(lp4286
I0
aI2
aI0
as((S'great'
p4287
g2
tp4288
(S'location'
p4289
g5
tp4290
tp4291
(lp4292
I0
aI1
aI0
as((S'many'
p4293
g2
tp4294
(S'levels'
p4295
g24
tp4296
tp4297
(lp4298
I0
aI0
aI2
as((S'strategic'
p4299
g2
tp4300
(S'direction'
p4301
g5
tp4302
tp4303
(lp4304
I0
aI0
aI1
as((S'enough'
p4305
g29
tp4306
(S'time'
p4307
g329
tp4308
tp4309
(lp4310
I1
aI0
aI1
as((S"n't"
p4311
g29
tp4312
(S'supercede'
p4313
g329
tp4314
tp4315
(lp4316
I1
aI0
aI0
as((S'different'
p4317
g2
tp4318
(S'numbers'
p4319
g24
tp4320
tp4321
(lp4322
I0
aI0
aI1
as((S'complex'
p4323
g2
tp4324
(S'work'
p4325
g5
tp4326
tp4327
(lp4328
I0
aI1
aI0
as((S'wonderful'
p4329
g2
tp4330
(S'place'
p4331
g5
tp4332
tp4333
(lp4334
I0
aI1
aI0
as((S'supportive'
p4335
g2
tp4336
(S'environment'
p4337
g5
tp4338
tp4339
(lp4340
I1
aI2
aI0
as((S'male'
p4341
g2
tp4342
(S'managers'
p4343
g24
tp4344
tp4345
(lp4346
I0
aI0
aI1
as((S'especially'
p4347
g29
tp4348
(S'concerning'
p4349
g93
tp4350
tp4351
(lp4352
I0
aI0
aI1
as((S'always'
p4353
g29
tp4354
(S'changing'
p4355
g93
tp4356
tp4357
(lp4358
I0
aI0
aI2
as((S'slow'
p4359
g2
tp4360
(S'moving'
p4361
g5
tp4362
tp4363
(lp4364
I0
aI0
aI2
as((S'recent'
p4365
g2
tp4366
(S'years'
p4367
g24
tp4368
tp4369
(lp4370
I0
aI0
aI1
as((S'enough'
p4371
g29
tp4372
(S'room'
p4373
g329
tp4374
tp4375
(lp4376
I0
aI0
aI1
as((S'good'
p4377
g2
tp4378
(S'pay-masters'
p4379
g24
tp4380
tp4381
(lp4382
I0
aI0
aI1
as((S'slow'
p4383
g2
tp4384
(S'summers'
p4385
g24
tp4386
tp4387
(lp4388
I0
aI0
aI1
as((S'free'
p4389
g2
tp4390
(S'uniforms'
p4391
g24
tp4392
tp4393
(lp4394
I0
aI1
aI0
as((S'internal'
p4395
g2
tp4396
(S'moves'
p4397
g24
tp4398
tp4399
(lp4400
I0
aI0
aI1
as((S'much'
p4401
g2
tp4402
(S'better'
p4403
g5
tp4404
tp4405
(lp4406
I1
aI0
aI0
as((S'professional'
p4407
g2
tp4408
(S'growth'
p4409
g5
tp4410
tp4411
(lp4412
I1
aI2
aI0
as((S'Little'
p4413
g29
tp4414
(S'advancement'
p4415
g154
tp4416
tp4417
(lp4418
I0
aI0
aI1
as((S'little'
p4419
g29
tp4420
(S'movemoent'
p4421
g2
tp4422
tp4423
(lp4424
I1
aI0
aI0
as((S'Consistently'
p4425
g29
tp4426
(S'good'
p4427
g154
tp4428
tp4429
(lp4430
I0
aI1
aI0
as((S'slowly'
p4431
g29
tp4432
(S'changing'
p4433
g93
tp4434
tp4435
(lp4436
I0
aI0
aI1
as((S'well'
p4437
g29
tp4438
(S'structured'
p4439
g32
tp4440
tp4441
(lp4442
I1
aI0
aI0
as((S'minimum'
p4443
g2
tp4444
(S'salary'
p4445
g5
tp4446
tp4447
(lp4448
I0
aI0
aI1
as((S'upper'
p4449
g2
tp4450
(S'management'
p4451
g5
tp4452
tp4453
(lp4454
I0
aI1
aI4
as((S'not'
p4455
g29
tp4456
(S'think'
p4457
g329
tp4458
tp4459
(lp4460
I0
aI0
aI1
as((S'mostly'
p4461
g29
tp4462
(S'lateral'
p4463
g2
tp4464
tp4465
(lp4466
I0
aI1
aI0
as((S'only'
p4467
g29
tp4468
(S'gained'
p4469
g154
tp4470
tp4471
(lp4472
I0
aI0
aI1
as((S'overall'
p4473
g2
tp4474
(S'experience'
p4475
g5
tp4476
tp4477
(lp4478
I1
aI0
aI0
as((S'Inter-group'
p4479
g2
tp4480
(S'interactions'
p4481
g24
tp4482
tp4483
(lp4484
I0
aI1
aI0
as((S'more'
p4485
g1138
tp4486
(S'enjoyable'
p4487
g2
tp4488
tp4489
(lp4490
I0
aI1
aI0
as((S'Long'
p4491
g2
tp4492
(S'hours'
p4493
g24
tp4494
tp4495
(lp4496
I1
aI0
aI2
as((S'always'
p4497
g29
tp4498
(S'make'
p4499
g329
tp4500
tp4501
(lp4502
I0
aI0
aI1
as((S'other'
p4503
g2
tp4504
(S'company'
p4505
g5
tp4506
tp4507
(lp4508
I0
aI0
aI1
as((S'own'
p4509
g2
tp4510
(S'insecurities'
p4511
g24
tp4512
tp4513
(lp4514
I0
aI0
aI1
as((S'good'
p4515
g2
tp4516
(S'rate'
p4517
g5
tp4518
tp4519
(lp4520
I0
aI1
aI0
as((S'very'
p4521
g29
tp4522
(S'fast'
p4523
g32
tp4524
tp4525
(lp4526
I0
aI0
aI1
as((S'Huge'
p4527
g2
tp4528
(S'engineering'
p4529
g5
tp4530
tp4531
(lp4532
I0
aI1
aI0
as((S'more'
p4533
g1138
tp4534
(S'political'
p4535
g2
tp4536
tp4537
(lp4538
I0
aI0
aI1
as((S'even'
p4539
g29
tp4540
(S'start'
p4541
g329
tp4542
tp4543
(lp4544
I0
aI0
aI1
as((S'great'
p4545
g2
tp4546
(S'networking'
p4547
g5
tp4548
tp4549
(lp4550
I1
aI1
aI0
as((S'real'
p4551
g2
tp4552
(S'slave'
p4553
g5
tp4554
tp4555
(lp4556
I0
aI0
aI1
as((S'functional'
p4557
g2
tp4558
(S'work'
p4559
g5
tp4560
tp4561
(lp4562
I0
aI0
aI1
as((S'easy-going'
p4563
g2
tp4564
(S'work'
p4565
g5
tp4566
tp4567
(lp4568
I1
aI0
aI0
as((S'future'
p4569
g2
tp4570
(S'work'
p4571
g5
tp4572
tp4573
(lp4574
I0
aI0
aI1
as((S'regional'
p4575
g2
tp4576
(S'level'
p4577
g5
tp4578
tp4579
(lp4580
I0
aI0
aI1
as((S'Too'
p4581
g29
tp4582
(S'many'
p4583
g2
tp4584
tp4585
(lp4586
I1
aI0
aI1
as((S'late'
p4587
g2
tp4588
(S'payments'
p4589
g24
tp4590
tp4591
(lp4592
I0
aI0
aI1
as((S'senior'
p4593
g2
tp4594
(S'management'
p4595
g5
tp4596
tp4597
(lp4598
I1
aI3
aI3
as((S'Not'
p4599
g29
tp4600
(S'engaging'
p4601
g93
tp4602
tp4603
(lp4604
I0
aI0
aI1
as((S'generally'
p4605
g29
tp4606
(S'proud'
p4607
g2
tp4608
tp4609
(lp4610
I0
aI1
aI0
as((S'financial'
p4611
g2
tp4612
(S'goals'
p4613
g24
tp4614
tp4615
(lp4616
I0
aI0
aI1
as((S'more'
p4617
g1138
tp4618
(S'willing'
p4619
g2
tp4620
tp4621
(lp4622
I0
aI0
aI1
as((S'somewhat'
p4623
g29
tp4624
(S'disorganized'
p4625
g32
tp4626
tp4627
(lp4628
I0
aI0
aI1
as((S'different'
p4629
g2
tp4630
(S'experience'
p4631
g5
tp4632
tp4633
(lp4634
I0
aI1
aI0
as((S'big'
p4635
g2
tp4636
(S'recognition'
p4637
g5
tp4638
tp4639
(lp4640
I1
aI0
aI0
as((S'corporate'
p4641
g2
tp4642
(S'bureaucracy'
p4643
g5
tp4644
tp4645
(lp4646
I0
aI0
aI1
as((S'somewhat'
p4647
g29
tp4648
(S'inpractical'
p4649
g2
tp4650
tp4651
(lp4652
I0
aI0
aI1
as((S'high'
p4653
g2
tp4654
(S'yield'
p4655
g5
tp4656
tp4657
(lp4658
I0
aI1
aI0
as((S'Strong'
p4659
g2
tp4660
(S'Brands'
p4661
g24
tp4662
tp4663
(lp4664
I0
aI1
aI0
as((S'many'
p4665
g2
tp4666
(S'things'
p4667
g24
tp4668
tp4669
(lp4670
I1
aI0
aI1
as((S'valuable'
p4671
g2
tp4672
(S'experience'
p4673
g5
tp4674
tp4675
(lp4676
I0
aI1
aI0
as((S'top'
p4677
g2
tp4678
(S'tiers'
p4679
g24
tp4680
tp4681
(lp4682
I0
aI0
aI1
as((S'Many'
p4683
g2
tp4684
(S'employees'
p4685
g24
tp4686
tp4687
(lp4688
I0
aI0
aI1
as((S'relatively'
p4689
g29
tp4690
(S'low'
p4691
g2
tp4692
tp4693
(lp4694
I0
aI0
aI1
as((S'great'
p4695
g2
tp4696
(S'reputation'
p4697
g5
tp4698
tp4699
(lp4700
I1
aI1
aI0
as((S'movement'
p4701
g5
tp4702
(S'possible'
p4703
g2
tp4704
tp4705
(lp4706
I0
aI1
aI0
as((S'Passive'
p4707
g2
tp4708
(S'environment'
p4709
g5
tp4710
tp4711
(lp4712
I1
aI0
aI0
as((S'global'
p4713
g2
tp4714
(S'counterparts'
p4715
g24
tp4716
tp4717
(lp4718
I0
aI1
aI0
as((S'third'
p4719
g2
tp4720
(S'party'
p4721
g5
tp4722
tp4723
(lp4724
I0
aI0
aI1
as((S'top'
p4725
g2
tp4726
(S'bank'
p4727
g5
tp4728
tp4729
(lp4730
I0
aI1
aI0
as((S'personal'
p4731
g2
tp4732
(S'experiences'
p4733
g24
tp4734
tp4735
(lp4736
I0
aI1
aI0
as((S'low'
p4737
g2
tp4738
g1145
tp4739
(lp4740
I0
aI0
aI1
as((S'good'
p4741
g2
tp4742
(S'start'
p4743
g5
tp4744
tp4745
(lp4746
I1
aI0
aI0
as((S'certain'
p4747
g2
tp4748
(S'departments'
p4749
g24
tp4750
tp4751
(lp4752
I0
aI0
aI1
as((S'real'
p4753
g2
tp4754
(S'input'
p4755
g5
tp4756
tp4757
(lp4758
I0
aI1
aI0
as((S'very'
p4759
g29
tp4760
(S'hard'
p4761
g2
tp4762
tp4763
(lp4764
I0
aI0
aI1
as((S'little'
p4765
g2
tp4766
(S'time'
p4767
g5
tp4768
tp4769
(lp4770
I0
aI0
aI1
as(g1987
(S'friendly'
p4771
g2
tp4772
tp4773
(lp4774
I0
aI1
aI0
as((S'too'
p4775
g29
tp4776
(S'dragging'
p4777
g93
tp4778
tp4779
(lp4780
I0
aI0
aI1
as((S'actual'
p4781
g2
tp4782
(S'company'
p4783
g5
tp4784
tp4785
(lp4786
I0
aI0
aI1
as((S'low'
p4787
g2
tp4788
(S'moral'
p4789
g2
tp4790
tp4791
(lp4792
I0
aI0
aI1
as((S'short'
p4793
g2
tp4794
(S'amount'
p4795
g5
tp4796
tp4797
(lp4798
I0
aI0
aI1
as((S'probably'
p4799
g29
tp4800
(S'need'
p4801
g329
tp4802
tp4803
(lp4804
I0
aI0
aI1
as((S'constantly'
p4805
g29
tp4806
(S'learning'
p4807
g93
tp4808
tp4809
(lp4810
I0
aI1
aI0
as((S'autonomous'
p4811
g2
tp4812
(S'projects'
p4813
g24
tp4814
tp4815
(lp4816
I0
aI1
aI0
as((S'still'
p4817
g29
tp4818
(S'growing'
p4819
g93
tp4820
tp4821
(lp4822
I0
aI0
aI1
as((S'Flexible'
p4823
g2
tp4824
(S'work'
p4825
g5
tp4826
tp4827
(lp4828
I0
aI1
aI0
as((S'so'
p4829
g29
tp4830
(S'big'
p4831
g2
tp4832
tp4833
(lp4834
I0
aI2
aI0
as((S'negative'
p4835
g2
tp4836
(S'outcomes'
p4837
g24
tp4838
tp4839
(lp4840
I0
aI0
aI1
as((S'other'
p4841
g2
tp4842
(S'Banks'
p4843
g24
tp4844
tp4845
(lp4846
I0
aI0
aI1
as((S'huge'
p4847
g2
tp4848
(S'company'
p4849
g5
tp4850
tp4851
(lp4852
I0
aI0
aI2
as((S'namely'
p4853
g29
tp4854
(S'computing'
p4855
g93
tp4856
tp4857
(lp4858
I0
aI1
aI0
as((S'medical'
p4859
g2
tp4860
(S'condition'
p4861
g5
tp4862
tp4863
(lp4864
I0
aI0
aI1
as((S'good'
p4865
g2
tp4866
(S'hours'
p4867
g24
tp4868
tp4869
(lp4870
I0
aI1
aI0
as((S'constantly'
p4871
g29
tp4872
(S'threatened'
p4873
g32
tp4874
tp4875
(lp4876
I0
aI1
aI0
as((S'outstanding'
p4877
g2
tp4878
(S'product'
p4879
g5
tp4880
tp4881
(lp4882
I0
aI1
aI0
as((S"n't"
p4883
g29
tp4884
(S'seem'
p4885
g329
tp4886
tp4887
(lp4888
I0
aI0
aI2
as((S'different'
p4889
g2
tp4890
(S'department'
p4891
g5
tp4892
tp4893
(lp4894
I0
aI0
aI1
as((S'generally'
p4895
g29
tp4896
(S'viewed'
p4897
g32
tp4898
tp4899
(lp4900
I0
aI0
aI1
as((S'corporate'
p4901
g2
tp4902
(S'cultur'
p4903
g5
tp4904
tp4905
(lp4906
I0
aI0
aI1
as((S'team-oriented'
p4907
g2
tp4908
(S'culture'
p4909
g5
tp4910
tp4911
(lp4912
I0
aI1
aI0
as((S'financial'
p4913
g2
tp4914
(S'institutions'
p4915
g24
tp4916
tp4917
(lp4918
I0
aI1
aI0
as((S'very'
p4919
g29
tp4920
(S'difficult'
p4921
g2
tp4922
tp4923
(lp4924
I0
aI0
aI4
as((S'livable'
p4925
g2
tp4926
(S'wage'
p4927
g5
tp4928
tp4929
(lp4930
I0
aI1
aI0
as((S'severely'
p4931
g29
tp4932
(S'restricted'
p4933
g32
tp4934
tp4935
(lp4936
I0
aI0
aI1
as((S'financial'
p4937
g2
tp4938
(S'crises'
p4939
g24
tp4940
tp4941
(lp4942
I0
aI0
aI1
as((S'big'
p4943
g2
tp4944
(S'swings'
p4945
g24
tp4946
tp4947
(lp4948
I0
aI1
aI0
as((S'automotive'
p4949
g2
tp4950
(S'manufacturing'
p4951
g5
tp4952
tp4953
(lp4954
I0
aI1
aI0
as((S'Corporate'
p4955
g2
tp4956
(S'training'
p4957
g5
tp4958
tp4959
(lp4960
I0
aI1
aI0
as((S'immediate'
p4961
g2
tp4962
(S'manager'
p4963
g5
tp4964
tp4965
(lp4966
I0
aI0
aI1
as((S'Global'
p4967
g2
tp4968
(S'opportunities'
p4969
g24
tp4970
tp4971
(lp4972
I0
aI1
aI0
as((S'much'
p4973
g2
tp4974
(S'emphasis'
p4975
g5
tp4976
tp4977
(lp4978
I0
aI0
aI1
as((S'high'
p4979
g2
tp4980
g3296
tp4981
(lp4982
I0
aI1
aI0
as((S'High'
p4983
g2
tp4984
(S'Stress'
p4985
g5
tp4986
tp4987
(lp4988
I0
aI0
aI1
as((S'finance'
p4989
g5
tp4990
(S'professional'
p4991
g2
tp4992
tp4993
(lp4994
I0
aI1
aI0
as((S'many'
p4995
g2
tp4996
(S'employees'
p4997
g24
tp4998
tp4999
(lp5000
I0
aI1
aI2
as((S'constant'
p5001
g2
tp5002
(S'schedule'
p5003
g5
tp5004
tp5005
(lp5006
I0
aI0
aI1
as((S"n't"
p5007
g29
tp5008
(S're'
p5009
g329
tp5010
tp5011
(lp5012
I1
aI0
aI0
as((S'many'
p5013
g2
tp5014
(S'golden'
p5015
g24
tp5016
tp5017
(lp5018
I0
aI0
aI1
as((S'new'
p5019
g2
tp5020
(S'positions'
p5021
g24
tp5022
tp5023
(lp5024
I0
aI1
aI0
as((S"n't"
p5025
g29
tp5026
(S'mesh'
p5027
g329
tp5028
tp5029
(lp5030
I0
aI0
aI1
as((S'flexible'
p5031
g2
tp5032
(S'work'
p5033
g5
tp5034
tp5035
(lp5036
I0
aI4
aI0
as((S'Incredible'
p5037
g2
tp5038
(S'jump'
p5039
g5
tp5040
tp5041
(lp5042
I1
aI0
aI0
as((S'high'
p5043
g2
tp5044
(S'insurance'
p5045
g5
tp5046
tp5047
(lp5048
I0
aI0
aI1
as((S'individual'
p5049
g2
tp5050
(S'peers'
p5051
g24
tp5052
tp5053
(lp5054
I0
aI1
aI0
as((S'supportive'
p5055
g2
tp5056
(S'company'
p5057
g5
tp5058
tp5059
(lp5060
I1
aI0
aI0
as((S'low'
p5061
g2
tp5062
(S'compensation'
p5063
g5
tp5064
tp5065
(lp5066
I1
aI0
aI0
as((S'little'
p5067
g2
tp5068
(S'compassion'
p5069
g5
tp5070
tp5071
(lp5072
I0
aI0
aI1
as((S'not'
p5073
g29
tp5074
(S'working'
p5075
g93
tp5076
tp5077
(lp5078
I0
aI0
aI1
as((S'greatly'
p5079
g29
tp5080
(S'stressed'
p5081
g32
tp5082
tp5083
(lp5084
I0
aI0
aI1
as((S'profitable'
p5085
g2
tp5086
(S'company'
p5087
g5
tp5088
tp5089
(lp5090
I0
aI1
aI0
as((S'tremendous'
p5091
g2
tp5092
(S'benefit'
p5093
g5
tp5094
tp5095
(lp5096
I0
aI1
aI0
as((S'service'
p5097
g5
tp5098
(S'possible'
p5099
g2
tp5100
tp5101
(lp5102
I1
aI0
aI0
as((S'retail'
p5103
g2
tp5104
(S'employees'
p5105
g24
tp5106
tp5107
(lp5108
I0
aI0
aI1
as((S'always'
p5109
g29
tp5110
(S'treated'
p5111
g32
tp5112
tp5113
(lp5114
I0
aI1
aI0
as((S'national'
p5115
g2
tp5116
(S'brands'
p5117
g24
tp5118
tp5119
(lp5120
I0
aI1
aI0
as((S'real'
p5121
g2
tp5122
(S'dedication'
p5123
g5
tp5124
tp5125
(lp5126
I0
aI0
aI1
as((S'actual'
p5127
g2
tp5128
(S'client'
p5129
g5
tp5130
tp5131
(lp5132
I1
aI0
aI0
as((S'well'
p5133
g29
tp5134
(S'located'
p5135
g32
tp5136
tp5137
(lp5138
I0
aI1
aI0
as((S'nice'
p5139
g2
tp5140
(S'place'
p5141
g5
tp5142
tp5143
(lp5144
I1
aI0
aI0
as((S'inadequate'
p5145
g2
tp5146
g2315
tp5147
(lp5148
I0
aI0
aI1
as((S'great'
p5149
g2
tp5150
(S'Bonuses'
p5151
g24
tp5152
tp5153
(lp5154
I0
aI1
aI0
as((S'still'
p5155
g29
tp5156
(S'treat'
p5157
g329
tp5158
tp5159
(lp5160
I1
aI0
aI0
as((S'generally'
p5161
g29
tp5162
g1181
tp5163
(lp5164
I0
aI1
aI0
as((S'REALLY'
p5165
g29
tp5166
(S'bad'
p5167
g2
tp5168
tp5169
(lp5170
I0
aI0
aI1
as((S'too'
p5171
g29
tp5172
(S'stressful'
p5173
g2
tp5174
tp5175
(lp5176
I0
aI1
aI0
as((S'bad'
p5177
g2
tp5178
(S'manegement'
p5179
g5
tp5180
tp5181
(lp5182
I0
aI0
aI1
as((S'adequate'
p5183
g2
tp5184
(S'breaks'
p5185
g24
tp5186
tp5187
(lp5188
I0
aI1
aI0
as(g4790
(S'hard'
p5189
g2
tp5190
tp5191
(lp5192
I0
aI0
aI1
as((S'immediate'
p5193
g2
tp5194
(S'management'
p5195
g5
tp5196
tp5197
(lp5198
I0
aI1
aI1
as((S'interesting'
p5199
g2
tp5200
(S'projects'
p5201
g24
tp5202
tp5203
(lp5204
I0
aI1
aI0
as((S'continuously'
p5205
g29
tp5206
(S'cut'
p5207
g32
tp5208
tp5209
(lp5210
I0
aI0
aI1
as((S'big'
p5211
g2
tp5212
(S'plus'
p5213
g5
tp5214
tp5215
(lp5216
I0
aI1
aI0
as((S'Highly'
p5217
g29
tp5218
(S'motivated'
p5219
g32
tp5220
tp5221
(lp5222
I0
aI1
aI0
as((S'much'
p5223
g29
tp5224
(S'paperwork'
p5225
g329
tp5226
tp5227
(lp5228
I0
aI0
aI1
as((S'strict'
p5229
g2
tp5230
(S'deadlines'
p5231
g24
tp5232
tp5233
(lp5234
I0
aI0
aI1
as((S'very'
p5235
g29
tp5236
(S'flexible'
p5237
g2
tp5238
tp5239
(lp5240
I0
aI2
aI0
as((S'great'
p5241
g2
tp5242
(S'upside'
p5243
g5
tp5244
tp5245
(lp5246
I0
aI1
aI0
as((S'Too'
p5247
g29
tp5248
(S'bueraucratic'
p5249
g2
tp5250
tp5251
(lp5252
I0
aI0
aI1
as((S'standard'
p5253
g2
tp5254
(S'operating'
p5255
g5
tp5256
tp5257
(lp5258
I0
aI1
aI0
as((S'accessible'
p5259
g2
tp5260
(S'leadership'
p5261
g5
tp5262
tp5263
(lp5264
I0
aI1
aI0
as((S'basic'
p5265
g2
tp5266
(S'skills'
p5267
g24
tp5268
tp5269
(lp5270
I1
aI0
aI0
as((S'long'
p5271
g2
tp5272
(S'term'
p5273
g5
tp5274
tp5275
(lp5276
I0
aI1
aI2
as((S'more'
p5277
g1138
tp5278
(S'concerned'
p5279
g32
tp5280
tp5281
(lp5282
I0
aI0
aI1
as((S'solid'
p5283
g2
tp5284
(S'fundamentals'
p5285
g24
tp5286
tp5287
(lp5288
I1
aI0
aI0
as((S'great'
p5289
g2
tp5290
(S'setup'
p5291
g5
tp5292
tp5293
(lp5294
I0
aI1
aI0
as((S'various'
p5295
g2
tp5296
(S'work'
p5297
g5
tp5298
tp5299
(lp5300
I0
aI0
aI1
as((S'internally'
p5301
g29
tp5302
(S'focused'
p5303
g32
tp5304
tp5305
(lp5306
I1
aI0
aI2
as((S'reactive'
p5307
g2
tp5308
(S'management'
p5309
g5
tp5310
tp5311
(lp5312
I0
aI0
aI1
as((S'new'
p5313
g2
tp5314
(S'technology'
p5315
g5
tp5316
tp5317
(lp5318
I0
aI1
aI0
as((S'clear'
p5319
g2
tp5320
(S'career'
p5321
g5
tp5322
tp5323
(lp5324
I0
aI1
aI0
as((S'-Faire'
p5325
g2
tp5326
(S'bonuses'
p5327
g24
tp5328
tp5329
(lp5330
I0
aI1
aI0
as((S'making/closing'
p5331
g2
tp5332
(S'sales'
p5333
g24
tp5334
tp5335
(lp5336
I0
aI0
aI1
as((S'poor'
p5337
g2
tp5338
(S'tools'
p5339
g24
tp5340
tp5341
(lp5342
I0
aI0
aI1
as((S'young'
p5343
g2
tp5344
(S'employees'
p5345
g24
tp5346
tp5347
(lp5348
I1
aI1
aI0
as((S'short'
p5349
g2
tp5350
(S'period'
p5351
g5
tp5352
tp5353
(lp5354
I0
aI2
aI1
as((S'well'
p5355
g29
tp5356
(S'rounded'
p5357
g32
tp5358
tp5359
(lp5360
I0
aI1
aI0
as((S'future'
p5361
g2
tp5362
(S'career'
p5363
g5
tp5364
tp5365
(lp5366
I0
aI1
aI0
as((S'big'
p5367
g2
tp5368
(S'companies'
p5369
g24
tp5370
tp5371
(lp5372
I0
aI0
aI1
as((S'real'
p5373
g2
tp5374
(S'learning'
p5375
g5
tp5376
tp5377
(lp5378
I0
aI1
aI0
as((S'innovative'
p5379
g2
tp5380
(S'products'
p5381
g24
tp5382
tp5383
(lp5384
I0
aI1
aI0
as((S'very'
p5385
g29
tp5386
(S'solid'
p5387
g2
tp5388
tp5389
(lp5390
I0
aI1
aI0
as((S'very'
p5391
g29
tp5392
(S'welcoming'
p5393
g93
tp5394
tp5395
(lp5396
I0
aI1
aI0
as((S'own'
p5397
g2
tp5398
(S'initiative'
p5399
g2
tp5400
tp5401
(lp5402
I0
aI0
aI1
as((S'fresh'
p5403
g2
tp5404
(S'blood'
p5405
g5
tp5406
tp5407
(lp5408
I0
aI1
aI1
as((S'bad'
p5409
g2
tp5410
(S'location'
p5411
g5
tp5412
tp5413
(lp5414
I0
aI0
aI1
as((S'Vertical'
p5415
g2
tp5416
(S'job'
p5417
g5
tp5418
tp5419
(lp5420
I0
aI0
aI1
as((S'High'
p5421
g2
tp5422
(S'compensation'
p5423
g5
tp5424
tp5425
(lp5426
I0
aI2
aI0
as((S'sales'
p5427
g24
tp5428
(S'Part-time'
p5429
g2
tp5430
tp5431
(lp5432
I0
aI0
aI1
as((S'well'
p5433
g29
tp5434
(S'organized'
p5435
g32
tp5436
tp5437
(lp5438
I1
aI0
aI1
as((S'Reasonable'
p5439
g2
tp5440
(S'production'
p5441
g5
tp5442
tp5443
(lp5444
I0
aI1
aI0
as((S'little'
p5445
g29
tp5446
(S'input'
p5447
g32
tp5448
tp5449
(lp5450
I0
aI0
aI1
as((S'Never'
p5451
g29
tp5452
(S'ending'
p5453
g93
tp5454
tp5455
(lp5456
I0
aI0
aI1
as((S'Executive'
p5457
g2
tp5458
(S'Leadership'
p5459
g5
tp5460
tp5461
(lp5462
I0
aI0
aI1
as((S'good'
p5463
g2
tp5464
(S'benefits'
p5465
g24
tp5466
tp5467
(lp5468
I1
aI14
aI0
as((S"n't"
p5469
g29
tp5470
(S'speak'
p5471
g329
tp5472
tp5473
(lp5474
I0
aI0
aI1
as((S'very'
p5475
g29
tp5476
(S'competitive'
p5477
g2
tp5478
tp5479
(lp5480
I0
aI0
aI4
as((S'overall'
p5481
g2
tp5482
(S'process'
p5483
g5
tp5484
tp5485
(lp5486
I0
aI1
aI0
as((S'great'
p5487
g2
tp5488
(S'systems'
p5489
g24
tp5490
tp5491
(lp5492
I1
aI0
aI0
as((S'various'
p5493
g2
tp5494
(S'learning'
p5495
g5
tp5496
tp5497
(lp5498
I0
aI1
aI0
as((S'wonderful'
p5499
g2
tp5500
(S'co-workers'
p5501
g24
tp5502
tp5503
(lp5504
I0
aI1
aI0
as((S'so'
p5505
g29
tp5506
(S'great'
p5507
g2
tp5508
tp5509
(lp5510
I1
aI0
aI0
as((S'bureaucratic'
p5511
g2
tp5512
(S'decision'
p5513
g5
tp5514
tp5515
(lp5516
I0
aI0
aI1
as((S'many'
p5517
g2
tp5518
(S'layers'
p5519
g24
tp5520
tp5521
(lp5522
I0
aI0
aI4
as((S'large-scale'
p5523
g2
tp5524
(S'projects'
p5525
g24
tp5526
tp5527
(lp5528
I0
aI1
aI0
as((S'cutthroat'
p5529
g2
tp5530
(S'approach'
p5531
g5
tp5532
tp5533
(lp5534
I0
aI1
aI0
as((S'many'
p5535
g2
tp5536
(S'layoffs'
p5537
g24
tp5538
tp5539
(lp5540
I0
aI1
aI0
as((S'new'
p5541
g2
tp5542
(S'products'
p5543
g24
tp5544
tp5545
(lp5546
I0
aI2
aI0
as((S'ongoing'
p5547
g2
tp5548
(S'training'
p5549
g5
tp5550
tp5551
(lp5552
I0
aI1
aI0
as((S'Just'
p5553
g29
tp5554
(S'started'
p5555
g32
tp5556
tp5557
(lp5558
I0
aI1
aI0
as((S'still'
p5559
g29
tp5560
(S'working'
p5561
g93
tp5562
tp5563
(lp5564
I1
aI0
aI1
as((S'Many'
p5565
g2
tp5566
(S'opportunities'
p5567
g24
tp5568
tp5569
(lp5570
I1
aI2
aI0
as((S'relatively'
p5571
g29
tp5572
(S'speaking'
p5573
g93
tp5574
tp5575
(lp5576
I0
aI1
aI0
as((S'global'
p5577
g2
tp5578
(S'banking'
p5579
g5
tp5580
tp5581
(lp5582
I1
aI0
aI0
as((S'lean'
p5583
g2
tp5584
(S'mfg'
p5585
g5
tp5586
tp5587
(lp5588
I0
aI1
aI0
as((S'comfortable'
p5589
g2
tp5590
(S'living'
p5591
g5
tp5592
tp5593
(lp5594
I0
aI1
aI0
as((S'not'
p5595
g29
tp5596
(S'look'
p5597
g329
tp5598
tp5599
(lp5600
I0
aI0
aI1
as((S'reputable'
p5601
g2
tp5602
(S'company'
p5603
g5
tp5604
tp5605
(lp5606
I1
aI0
aI0
as((S'technical'
p5607
g2
tp5608
(S'works'
p5609
g24
tp5610
tp5611
(lp5612
I0
aI0
aI1
as(g233
(S'detrimental'
p5613
g2
tp5614
tp5615
(lp5616
I0
aI0
aI1
as((S'skill'
p5617
g5
tp5618
(S'low'
p5619
g2
tp5620
tp5621
(lp5622
I0
aI0
aI1
as((S'free'
p5623
g2
tp5624
(S'benefits'
p5625
g24
tp5626
tp5627
(lp5628
I0
aI1
aI0
as((S'Work-life'
p5629
g2
tp5630
(S'balance'
p5631
g5
tp5632
tp5633
(lp5634
I1
aI0
aI0
as((S'good'
p5635
g2
tp5636
(S'incentive'
p5637
g5
tp5638
tp5639
(lp5640
I0
aI1
aI0
as((S'lucky'
p5641
g2
tp5642
(S'enough'
p5643
g2
tp5644
tp5645
(lp5646
I1
aI0
aI1
as((S'minor'
p5647
g2
tp5648
(S'drawbacks'
p5649
g24
tp5650
tp5651
(lp5652
I1
aI0
aI0
as((S'benefits'
p5653
g24
tp5654
(S'relative'
p5655
g2
tp5656
tp5657
(lp5658
I0
aI1
aI0
as((S'large'
p5659
g2
tp5660
(S'corporation'
p5661
g5
tp5662
tp5663
(lp5664
I1
aI0
aI2
as((S'Work/life'
p5665
g2
tp5666
(S'balance'
p5667
g5
tp5668
tp5669
(lp5670
I0
aI1
aI1
as((S'old'
p5671
g2
tp5672
(S'timer'
p5673
g5
tp5674
tp5675
(lp5676
I0
aI0
aI1
as((S'always'
p5677
g29
tp5678
(S'done'
p5679
g32
tp5680
tp5681
(lp5682
I0
aI0
aI1
as((S'so'
p5683
g29
tp5684
(S'amazing'
p5685
g93
tp5686
tp5687
(lp5688
I0
aI1
aI0
as((S'negative'
p5689
g2
tp5690
(S'news'
p5691
g5
tp5692
tp5693
(lp5694
I0
aI0
aI1
as((S'never'
p5695
g29
tp5696
(S'gain'
p5697
g329
tp5698
tp5699
(lp5700
I0
aI0
aI1
as((S'other'
p5701
g2
tp5702
(S'employees'
p5703
g24
tp5704
tp5705
(lp5706
I0
aI1
aI0
as((S'positive'
p5707
g2
tp5708
(S'learning'
p5709
g5
tp5710
tp5711
(lp5712
I1
aI0
aI0
as((S'fair'
p5713
g2
tp5714
(S'employer'
p5715
g5
tp5716
tp5717
(lp5718
I1
aI0
aI0
as((S'other'
p5719
g2
tp5720
(S'technology'
p5721
g5
tp5722
tp5723
(lp5724
I0
aI0
aI1
as((S'too'
p5725
g29
tp5726
(S'big'
p5727
g2
tp5728
tp5729
(lp5730
I0
aI0
aI2
as((S'very'
p5731
g29
tp5732
(S'regimented'
p5733
g32
tp5734
tp5735
(lp5736
I1
aI0
aI0
as((S'Not'
p5737
g29
tp5738
(S'bad'
p5739
g2
tp5740
tp5741
(lp5742
I2
aI0
aI0
as((S'very'
p5743
g29
tp5744
(S'French-heavy'
p5745
g2
tp5746
tp5747
(lp5748
I0
aI0
aI1
as((S'high'
p5749
g2
tp5750
(S'salaries'
p5751
g24
tp5752
tp5753
(lp5754
I0
aI1
aI0
as((S'generous'
p5755
g2
tp5756
(S'benefits'
p5757
g24
tp5758
tp5759
(lp5760
I0
aI1
aI0
as((S'social'
p5761
g2
tp5762
(S'aspect'
p5763
g5
tp5764
tp5765
(lp5766
I0
aI0
aI1
as((S'certain'
p5767
g2
tp5768
(S'talents'
p5769
g24
tp5770
tp5771
(lp5772
I0
aI0
aI1
as((S'not'
p5773
g29
tp5774
(S'renowned'
p5775
g32
tp5776
tp5777
(lp5778
I0
aI0
aI1
as((S'great'
p5779
g2
tp5780
(S'deal'
p5781
g5
tp5782
tp5783
(lp5784
I2
aI1
aI0
as((S'European'
p5785
g2
tp5786
(S'culture'
p5787
g5
tp5788
tp5789
(lp5790
I0
aI1
aI0
as((S'unpolished'
p5791
g2
tp5792
(S'employees'
p5793
g24
tp5794
tp5795
(lp5796
I0
aI0
aI1
as((S'salary'
p5797
g5
tp5798
(S'competitive'
p5799
g2
tp5800
tp5801
(lp5802
I0
aI1
aI0
as((S'corporate'
p5803
g2
tp5804
(S'reputation'
p5805
g5
tp5806
tp5807
(lp5808
I0
aI1
aI0
as((S'way'
p5809
g5
tp5810
(S'possible'
p5811
g2
tp5812
tp5813
(lp5814
I1
aI0
aI0
as((S'reliable'
p5815
g2
tp5816
(S'company'
p5817
g5
tp5818
tp5819
(lp5820
I1
aI0
aI0
as((S'slow'
p5821
g2
tp5822
(S'salary'
p5823
g5
tp5824
tp5825
(lp5826
I0
aI0
aI1
as((S'strong'
p5827
g2
tp5828
(S'part'
p5829
g5
tp5830
tp5831
(lp5832
I0
aI1
aI0
as((S'TIght/small'
p5833
g2
tp5834
(S'working'
p5835
g5
tp5836
tp5837
(lp5838
I0
aI0
aI1
as((S'really'
p5839
g29
tp5840
(S'difficult'
p5841
g2
tp5842
tp5843
(lp5844
I0
aI0
aI1
as((S'well'
p5845
g29
tp5846
(S'thought'
p5847
g32
tp5848
tp5849
(lp5850
I0
aI1
aI0
as((S'poor'
p5851
g2
tp5852
(S'training'
p5853
g5
tp5854
tp5855
(lp5856
I0
aI0
aI1
as((S'good'
p5857
g2
tp5858
(S'wages'
p5859
g24
tp5860
tp5861
(lp5862
I0
aI1
aI0
as((S'broad'
p5863
g2
tp5864
(S'array'
p5865
g5
tp5866
tp5867
(lp5868
I0
aI1
aI0
as((S'good'
p5869
g2
tp5870
(S'company'
p5871
g5
tp5872
tp5873
(lp5874
I6
aI3
aI2
as((S'low'
p5875
g2
tp5876
(S'level'
p5877
g5
tp5878
tp5879
(lp5880
I0
aI0
aI1
as((S'Benefits'
p5881
g24
tp5882
(S'such'
p5883
g2
tp5884
tp5885
(lp5886
I0
aI1
aI0
as((S'not'
p5887
g29
tp5888
(S'go'
p5889
g329
tp5890
tp5891
(lp5892
I0
aI0
aI1
as((S'flexible'
p5893
g2
tp5894
(S'working'
p5895
g5
tp5896
tp5897
(lp5898
I0
aI2
aI0
as((S'good'
p5899
g2
tp5900
(S'years'
p5901
g24
tp5902
tp5903
(lp5904
I0
aI0
aI1
as((S'global'
p5905
g2
tp5906
(S'company'
p5907
g5
tp5908
tp5909
(lp5910
I1
aI1
aI1
as((S"n't"
p5911
g29
tp5912
(S'sure'
p5913
g2
tp5914
tp5915
(lp5916
I0
aI0
aI1
as((S'other'
p5917
g2
tp5918
(S'divisions'
p5919
g24
tp5920
tp5921
(lp5922
I0
aI0
aI1
as((S'good'
p5923
g2
tp5924
(S'Company'
p5925
g5
tp5926
tp5927
(lp5928
I1
aI0
aI0
as((S'open'
p5929
g2
tp5930
(S'workspace'
p5931
g5
tp5932
tp5933
(lp5934
I0
aI0
aI1
as((S'internal'
p5935
g2
tp5936
(S'funding'
p5937
g5
tp5938
tp5939
(lp5940
I0
aI0
aI1
as((S'quite'
p5941
g29
tp5942
(S'top-down'
p5943
g2
tp5944
tp5945
(lp5946
I0
aI0
aI1
as((S'own'
p5947
g2
tp5948
(S'career'
p5949
g5
tp5950
tp5951
(lp5952
I0
aI0
aI1
as((S'technical'
p5953
g2
tp5954
(S'support'
p5955
g5
tp5956
tp5957
(lp5958
I0
aI1
aI0
as((S'fantastic'
p5959
g2
tp5960
(S'resume'
p5961
g5
tp5962
tp5963
(lp5964
I0
aI1
aI0
as((S'corporate'
p5965
g2
tp5966
(S'structure'
p5967
g5
tp5968
tp5969
(lp5970
I0
aI1
aI0
as((S'over-worked'
p5971
g2
tp5972
(S'culture'
p5973
g5
tp5974
tp5975
(lp5976
I0
aI0
aI1
as((S'4-day'
p5977
g2
tp5978
(S'workweek'
p5979
g5
tp5980
tp5981
(lp5982
I1
aI0
aI0
as((S'depts'
p5983
g24
tp5984
(S'such'
p5985
g2
tp5986
tp5987
(lp5988
I0
aI0
aI1
as(g4976
(S'non-value'
p5989
g2
tp5990
tp5991
(lp5992
I0
aI0
aI1
as((S'global'
p5993
g2
tp5994
(S'industries'
p5995
g24
tp5996
tp5997
(lp5998
I0
aI1
aI0
as((S'many'
p5999
g2
tp6000
(S'business'
p6001
g5
tp6002
tp6003
(lp6004
I1
aI0
aI0
as((S'employees'
p6005
g24
tp6006
(S'other'
p6007
g2
tp6008
tp6009
(lp6010
I0
aI0
aI1
as((S'individual'
p6011
g2
tp6012
(S'employee'
p6013
g5
tp6014
tp6015
(lp6016
I0
aI0
aI1
as((S'financial'
p6017
g2
tp6018
(S'targes'
p6019
g24
tp6020
tp6021
(lp6022
I0
aI0
aI1
as((S'different'
p6023
g2
tp6024
(S'organizations'
p6025
g24
tp6026
tp6027
(lp6028
I0
aI1
aI0
as((S'top'
p6029
g2
tp6030
(S'talent'
p6031
g5
tp6032
tp6033
(lp6034
I1
aI0
aI0
as((S'very'
p6035
g29
tp6036
(S'slow'
p6037
g2
tp6038
tp6039
(lp6040
I0
aI0
aI1
as((S'eduactional'
p6041
g2
tp6042
(S'assistance'
p6043
g5
tp6044
tp6045
(lp6046
I0
aI1
aI0
as((S'many'
p6047
g2
tp6048
(S'god'
p6049
g5
tp6050
tp6051
(lp6052
I0
aI1
aI0
as((S'intern'
p6053
g2
tp6054
(S'activities'
p6055
g24
tp6056
tp6057
(lp6058
I0
aI0
aI1
as((S'well'
p6059
g29
tp6060
(S'known'
p6061
g32
tp6062
tp6063
(lp6064
I0
aI1
aI0
as((S'hard'
p6065
g2
tp6066
(S'worker'
p6067
g5
tp6068
tp6069
(lp6070
I0
aI2
aI0
as((S'Other'
p6071
g2
tp6072
(S'Engineers'
p6073
g24
tp6074
tp6075
(lp6076
I0
aI1
aI0
as((S'many'
p6077
g2
tp6078
(S'resources'
p6079
g24
tp6080
tp6081
(lp6082
I0
aI1
aI0
as((S'first'
p6083
g2
tp6084
(S'better'
p6085
g5
tp6086
tp6087
(lp6088
I0
aI0
aI1
as((S'sometime'
p6089
g2
tp6090
(S'reimberse'
p6091
g5
tp6092
tp6093
(lp6094
I0
aI1
aI0
as((S'Personal'
p6095
g2
tp6096
(S'Banker'
p6097
g5
tp6098
tp6099
(lp6100
I2
aI0
aI0
as((S'very'
p6101
g29
tp6102
(S'stressful'
p6103
g2
tp6104
tp6105
(lp6106
I0
aI1
aI2
as((S'corporate'
p6107
g2
tp6108
(S'way'
p6109
g5
tp6110
tp6111
(lp6112
I1
aI0
aI0
as((S'large'
p6113
g2
tp6114
(S'banks'
p6115
g24
tp6116
tp6117
(lp6118
I0
aI1
aI0
as((g1273
g5
tp6119
(S'i.e'
p6120
g2
tp6121
tp6122
(lp6123
I0
aI0
aI1
as((S'ever'
p6124
g29
tp6125
(S'worked'
p6126
g32
tp6127
tp6128
(lp6129
I1
aI0
aI0
as((S'senior'
p6130
g2
tp6131
(S'managers'
p6132
g24
tp6133
tp6134
(lp6135
I0
aI0
aI1
as((S'not'
p6136
g29
tp6137
(S'going'
p6138
g93
tp6139
tp6140
(lp6141
I0
aI0
aI1
as((S'more'
p6142
g1138
tp6143
(S'complicated'
p6144
g2
tp6145
tp6146
(lp6147
I0
aI0
aI1
as((S'Overall'
p6148
g2
tp6149
(S'Software'
p6150
g5
tp6151
tp6152
(lp6153
I0
aI1
aI0
as((S'much'
p6154
g29
tp6155
(S'hierachy'
p6156
g2
tp6157
tp6158
(lp6159
I0
aI0
aI1
as((S'full'
p6160
g2
tp6161
(S'time'
p6162
g5
tp6163
tp6164
(lp6165
I0
aI1
aI0
as((S'huge'
p6166
g2
tp6167
(S'work'
p6168
g5
tp6169
tp6170
(lp6171
I0
aI0
aI1
as((S'upward'
p6172
g2
tp6173
(S'mobility'
p6174
g5
tp6175
tp6176
(lp6177
I0
aI0
aI1
as((S'employees'
p6178
g24
tp6179
(S'happy'
p6180
g2
tp6181
tp6182
(lp6183
I0
aI1
aI0
as((S"n't"
p6184
g29
tp6185
(S'selling'
p6186
g93
tp6187
tp6188
(lp6189
I0
aI0
aI1
as((S'major'
p6190
g2
tp6191
(S'delays'
p6192
g24
tp6193
tp6194
(lp6195
I0
aI0
aI1
as((S'business/department'
p6196
g2
tp6197
(S'otherwise'
p6198
g5
tp6199
tp6200
(lp6201
I0
aI0
aI1
as((S'Looks'
p6202
g24
tp6203
(S'good'
p6204
g2
tp6205
tp6206
(lp6207
I0
aI1
aI0
as((S'many'
p6208
g2
tp6209
(S'deadweight'
p6210
g5
tp6211
tp6212
(lp6213
I0
aI0
aI1
as((S'not'
p6214
g29
tp6215
(S'reward'
p6216
g329
tp6217
tp6218
(lp6219
I0
aI0
aI1
as((S"n't"
p6220
g29
tp6221
(S'push'
p6222
g329
tp6223
tp6224
(lp6225
I0
aI0
aI1
as((S'national'
p6226
g2
tp6227
(S'projects'
p6228
g24
tp6229
tp6230
(lp6231
I0
aI1
aI0
as((S'diverse'
p6232
g2
tp6233
(S'opportunities'
p6234
g24
tp6235
tp6236
(lp6237
I0
aI1
aI0
as((S'senior'
p6238
g2
tp6239
(S'manager'
p6240
g5
tp6241
tp6242
(lp6243
I0
aI0
aI1
as((S'irregular'
p6244
g2
tp6245
(S'hours'
p6246
g24
tp6247
tp6248
(lp6249
I0
aI0
aI1
as((S'reputational'
p6250
g2
tp6251
(S'issues'
p6252
g24
tp6253
tp6254
(lp6255
I1
aI0
aI0
as((S'different'
p6256
g2
tp6257
(S'places'
p6258
g24
tp6259
tp6260
(lp6261
I0
aI1
aI0
as((S'really'
p6262
g29
tp6263
(S'bad'
p6264
g2
tp6265
tp6266
(lp6267
I0
aI0
aI1
as((S'local'
p6268
g2
tp6269
(S'branches'
p6270
g24
tp6271
tp6272
(lp6273
I0
aI0
aI1
as((S'conservative'
p6274
g2
tp6275
(S'risk'
p6276
g5
tp6277
tp6278
(lp6279
I0
aI1
aI0
as((S'good'
p6280
g2
tp6281
(S'opportunities'
p6282
g24
tp6283
tp6284
(lp6285
I0
aI3
aI0
as((S'poor'
p6286
g2
tp6287
(S'global'
p6288
g2
tp6289
tp6290
(lp6291
I0
aI0
aI1
as((S'very'
p6292
g29
tp6293
(S'dynamic'
p6294
g2
tp6295
tp6296
(lp6297
I0
aI1
aI0
as((S'flexible'
p6298
g2
tp6299
(S'hours'
p6300
g24
tp6301
tp6302
(lp6303
I0
aI5
aI0
as((S'heavy'
p6304
g2
tp6305
(S'emphasis'
p6306
g5
tp6307
tp6308
(lp6309
I0
aI1
aI0
as((S'not'
p6310
g29
tp6311
(S'seem'
p6312
g329
tp6313
tp6314
(lp6315
I1
aI0
aI0
as((S'Flexible'
p6316
g2
tp6317
(S'Clean'
p6318
g2
tp6319
tp6320
(lp6321
I0
aI1
aI0
as((S'incremental'
p6322
g2
tp6323
(S'safety'
p6324
g5
tp6325
tp6326
(lp6327
I0
aI0
aI1
as((S'replaceable'
p6328
g2
tp6329
(S'robot'
p6330
g5
tp6331
tp6332
(lp6333
I0
aI0
aI1
as((S'not'
p6334
g29
tp6335
(S'perfect'
p6336
g329
tp6337
tp6338
(lp6339
I1
aI0
aI0
as((S'technical'
p6340
g2
tp6341
(S'side'
p6342
g5
tp6343
tp6344
(lp6345
I0
aI0
aI1
as((S'great'
p6346
g2
tp6347
(S'amount'
p6348
g5
tp6349
tp6350
(lp6351
I0
aI1
aI0
as((S"n't"
p6352
g29
tp6353
(S'move'
p6354
g329
tp6355
tp6356
(lp6357
I0
aI0
aI1
as((S'usually'
p6358
g29
tp6359
(S'plenty'
p6360
g2
tp6361
tp6362
(lp6363
I0
aI1
aI0
as((S'first'
p6364
g2
tp6365
(S'opportunity'
p6366
g5
tp6367
tp6368
(lp6369
I0
aI0
aI1
as((S'periods'
p6370
g24
tp6371
(S'due'
p6372
g2
tp6373
tp6374
(lp6375
I0
aI0
aI1
as((S'not'
p6376
g29
tp6377
(S'allow'
p6378
g329
tp6379
tp6380
(lp6381
I0
aI0
aI1
as((S'perhaps'
p6382
g29
tp6383
(S'raising'
p6384
g93
tp6385
tp6386
(lp6387
I0
aI0
aI1
as((S'good'
p6388
g2
tp6389
(S'compensation'
p6390
g5
tp6391
tp6392
(lp6393
I0
aI2
aI0
as((S'technical'
p6394
g2
tp6395
(S'training'
p6396
g5
tp6397
tp6398
(lp6399
I1
aI0
aI0
as((S'much'
p6400
g2
tp6401
(S'bureaucracy'
p6402
g5
tp6403
tp6404
(lp6405
I3
aI0
aI1
as((S'Still'
p6406
g29
tp6407
(S'struggling'
p6408
g93
tp6409
tp6410
(lp6411
I0
aI0
aI1
as((S'just'
p6412
g29
tp6413
(S'So-SO'
p6414
g2
tp6415
tp6416
(lp6417
I0
aI1
aI0
as((S'enough'
p6418
g29
tp6419
(S'work'
p6420
g329
tp6421
tp6422
(lp6423
I0
aI0
aI1
as((S"n't"
p6424
g29
tp6425
(S'supportive'
p6426
g2
tp6427
tp6428
(lp6429
I0
aI0
aI1
as((S'able'
p6430
g2
tp6431
(g1273
g5
tp6432
tp6433
(lp6434
I0
aI1
aI0
as((S'casual'
p6435
g2
tp6436
(S'environment'
p6437
g5
tp6438
tp6439
(lp6440
I0
aI1
aI0
as((S'always'
p6441
g29
tp6442
(S'nice'
p6443
g2
tp6444
tp6445
(lp6446
I0
aI0
aI1
as((S'Short'
p6447
g2
tp6448
(S'contracts'
p6449
g24
tp6450
tp6451
(lp6452
I0
aI0
aI1
as((S'not'
p6453
g29
tp6454
(S'micromanaged'
p6455
g32
tp6456
tp6457
(lp6458
I0
aI1
aI0
as((S'Too'
p6459
g29
tp6460
(S'large'
p6461
g2
tp6462
tp6463
(lp6464
I0
aI0
aI1
as((S'own'
p6465
g2
tp6466
(S'experience'
p6467
g5
tp6468
tp6469
(lp6470
I1
aI0
aI0
as((S'very'
p6471
g29
tp6472
(S'bureaucratic'
p6473
g2
tp6474
tp6475
(lp6476
I2
aI0
aI0
as((S'many'
p6477
g2
tp6478
(S'reorganizations'
p6479
g24
tp6480
tp6481
(lp6482
I0
aI0
aI1
as((S'tight'
p6483
g2
tp6484
(S'budgets'
p6485
g24
tp6486
tp6487
(lp6488
I0
aI0
aI1
as((S'wind/water/power'
p6489
g2
tp6490
(S'manufacturing'
p6491
g5
tp6492
tp6493
(lp6494
I0
aI1
aI0
as((S'with..rare'
p6495
g2
tp6496
(S'exceptions'
p6497
g24
tp6498
tp6499
(lp6500
I0
aI1
aI0
as((S'good'
p6501
g2
tp6502
(S'teams'
p6503
g24
tp6504
tp6505
(lp6506
I0
aI1
aI0
as((S'environment'
p6507
g5
tp6508
(S'good'
p6509
g2
tp6510
tp6511
(lp6512
I0
aI1
aI0
as((S'normal'
p6513
g2
tp6514
(S'retail'
p6515
g5
tp6516
tp6517
(lp6518
I0
aI0
aI1
as((S'too'
p6519
g29
tp6520
(S'corporate'
p6521
g2
tp6522
tp6523
(lp6524
I0
aI0
aI1
as((S'excessive'
p6525
g2
tp6526
(S'employee'
p6527
g5
tp6528
tp6529
(lp6530
I1
aI0
aI0
as((S'part-time'
p6531
g2
tp6532
(S'job'
p6533
g5
tp6534
tp6535
(lp6536
I1
aI0
aI0
as((S"n't"
p6537
g29
tp6538
(S'know'
p6539
g329
tp6540
tp6541
(lp6542
I0
aI0
aI3
as((S'back'
p6543
g29
tp6544
(S'east'
p6545
g2
tp6546
tp6547
(lp6548
I0
aI1
aI0
as((S'too'
p6549
g29
tp6550
(S'high'
p6551
g2
tp6552
tp6553
(lp6554
I0
aI0
aI1
as((S'low'
p6555
g2
tp6556
(S'cost'
p6557
g5
tp6558
tp6559
(lp6560
I0
aI1
aI0
as((S'ever'
p6561
g29
tp6562
(S'feeling'
p6563
g93
tp6564
tp6565
(lp6566
I0
aI1
aI0
as((S'great'
p6567
g2
tp6568
(S'gym'
p6569
g5
tp6570
tp6571
(lp6572
I0
aI1
aI0
as((S'individual'
p6573
g2
tp6574
(S'advance'
p6575
g5
tp6576
tp6577
(lp6578
I0
aI0
aI1
as((S'international'
p6579
g2
tp6580
(S'bank'
p6581
g5
tp6582
tp6583
(lp6584
I0
aI1
aI0
as((S'first'
p6585
g29
tp6586
(S'started'
p6587
g154
tp6588
tp6589
(lp6590
I0
aI1
aI0
as((S'broad'
p6591
g2
tp6592
(S'project'
p6593
g5
tp6594
tp6595
(lp6596
I0
aI1
aI0
as((S'not'
p6597
g29
tp6598
(S'apply'
p6599
g329
tp6600
tp6601
(lp6602
I0
aI0
aI1
as((S'not'
p6603
g29
tp6604
(S'good'
p6605
g2
tp6606
tp6607
(lp6608
I0
aI0
aI2
as((S'other'
p6609
g2
tp6610
(S'various'
p6611
g2
tp6612
tp6613
(lp6614
I0
aI0
aI1
as((S'too'
p6615
g29
tp6616
(S'process-oriented'
p6617
g2
tp6618
tp6619
(lp6620
I0
aI0
aI1
as((S'political'
p6621
g2
tp6622
(S'recruting'
p6623
g5
tp6624
tp6625
(lp6626
I0
aI0
aI1
as((S'very'
p6627
g29
tp6628
(S'casual'
p6629
g2
tp6630
tp6631
(lp6632
I0
aI1
aI0
as((S'big'
p6633
g2
tp6634
(S'projects'
p6635
g24
tp6636
tp6637
(lp6638
I0
aI1
aI0
as((S'great'
p6639
g2
tp6640
(S'product'
p6641
g5
tp6642
tp6643
(lp6644
I0
aI2
aI0
as((S'hierarchal'
p6645
g2
tp6646
(S'structure'
p6647
g5
tp6648
tp6649
(lp6650
I0
aI0
aI1
as((S'Important'
p6651
g2
tp6652
(S'decisions'
p6653
g24
tp6654
tp6655
(lp6656
I0
aI0
aI1
as((S'sometimes'
p6657
g29
tp6658
(S'maybe'
p6659
g329
tp6660
tp6661
(lp6662
I0
aI0
aI1
as((S'good'
p6663
g2
tp6664
(S'experiences'
p6665
g24
tp6666
tp6667
(lp6668
I0
aI1
aI0
as((S'Overall'
p6669
g2
tp6670
(S'good'
p6671
g2
tp6672
tp6673
(lp6674
I1
aI0
aI0
as((S'new'
p6675
g2
tp6676
(S'learnings'
p6677
g24
tp6678
tp6679
(lp6680
I0
aI1
aI0
as((S'great'
p6681
g2
tp6682
(S'flexibility'
p6683
g5
tp6684
tp6685
(lp6686
I0
aI1
aI0
as((S'many'
p6687
g2
tp6688
(S'circumstances'
p6689
g24
tp6690
tp6691
(lp6692
I1
aI0
aI0
as((S"n't"
p6693
g29
tp6694
(S'get'
p6695
g329
tp6696
tp6697
(lp6698
I0
aI1
aI3
as((S'great'
p6699
g2
tp6700
(S'salary'
p6701
g5
tp6702
tp6703
(lp6704
I0
aI1
aI0
as((S'mutual'
p6705
g2
tp6706
(S'funds'
p6707
g24
tp6708
tp6709
(lp6710
I0
aI1
aI0
as((S'basic'
p6711
g2
tp6712
(S'understanding'
p6713
g5
tp6714
tp6715
(lp6716
I1
aI0
aI0
as((S'good'
p6717
g2
tp6718
(S'bonus'
p6719
g5
tp6720
tp6721
(lp6722
I0
aI1
aI0
as((S'international'
p6723
g2
tp6724
(S'opportunities'
p6725
g24
tp6726
tp6727
(lp6728
I1
aI2
aI0
as((S'Average'
p6729
g2
tp6730
(S'pay'
p6731
g5
tp6732
tp6733
(lp6734
I0
aI0
aI1
as((S'Global'
p6735
g2
tp6736
(S'Company'
p6737
g5
tp6738
tp6739
(lp6740
I0
aI1
aI0
as((S'Large'
p6741
g2
tp6742
(S'diverse'
p6743
g5
tp6744
tp6745
(lp6746
I0
aI1
aI0
as((S'roller-coaster'
p6747
g2
tp6748
(S'ride'
p6749
g5
tp6750
tp6751
(lp6752
I1
aI0
aI0
as((S'significant'
p6753
g2
tp6754
(S'project'
p6755
g5
tp6756
tp6757
(lp6758
I0
aI0
aI1
as((S'more'
p6759
g1138
tp6760
(S'emphasized'
p6761
g32
tp6762
tp6763
(lp6764
I0
aI0
aI1
as((S'too'
p6765
g29
tp6766
(S'bloated'
p6767
g32
tp6768
tp6769
(lp6770
I1
aI0
aI0
as((S'technical'
p6771
g2
tp6772
(S'skills'
p6773
g24
tp6774
tp6775
(lp6776
I0
aI1
aI0
as((S'group'
p6777
g5
tp6778
(S'due'
p6779
g2
tp6780
tp6781
(lp6782
I1
aI0
aI0
as((S'good'
p6783
g2
tp6784
(S'projects'
p6785
g24
tp6786
tp6787
(lp6788
I0
aI1
aI0
as((S'wear'
p6789
g2
tp6790
(S'inform'
p6791
g5
tp6792
tp6793
(lp6794
I0
aI0
aI1
as((S'different'
p6795
g2
tp6796
(S'lanaguages'
p6797
g24
tp6798
tp6799
(lp6800
I0
aI1
aI0
as((S'very'
p6801
g29
tp6802
(S'exciting'
p6803
g93
tp6804
tp6805
(lp6806
I1
aI0
aI0
as((S'Extensive'
p6807
g2
tp6808
(S'benefits'
p6809
g24
tp6810
tp6811
(lp6812
I0
aI1
aI0
as((S'heavily'
p6813
g29
tp6814
(S'dependent'
p6815
g2
tp6816
tp6817
(lp6818
I0
aI0
aI1
as((S'hard'
p6819
g29
tp6820
(S'working'
p6821
g93
tp6822
tp6823
(lp6824
I0
aI1
aI0
as((S'proper'
p6825
g2
tp6826
(S'qualifications'
p6827
g24
tp6828
tp6829
(lp6830
I0
aI0
aI1
as((S'second'
p6831
g2
tp6832
(S'shift'
p6833
g5
tp6834
tp6835
(lp6836
I1
aI0
aI0
as((S'not'
p6837
g29
tp6838
(S'familiar'
p6839
g2
tp6840
tp6841
(lp6842
I0
aI0
aI1
as((S'Long'
p6843
g2
tp6844
(S'term'
p6845
g5
tp6846
tp6847
(lp6848
I0
aI0
aI1
as((S'good'
p6849
g2
tp6850
(S'salary'
p6851
g5
tp6852
tp6853
(lp6854
I1
aI4
aI0
as((S'steady'
p6855
g2
tp6856
(S'hours'
p6857
g24
tp6858
tp6859
(lp6860
I0
aI1
aI0
as((S'good'
p6861
g2
tp6862
(S'experience'
p6863
g5
tp6864
tp6865
(lp6866
I4
aI0
aI0
as((S'bonus'
p6867
g5
tp6868
(S'high'
p6869
g2
tp6870
tp6871
(lp6872
I0
aI1
aI0
as((S'good'
p6873
g2
tp6874
(S'money'
p6875
g5
tp6876
tp6877
(lp6878
I0
aI1
aI0
as((S'strategic'
p6879
g2
tp6880
(S'focus'
p6881
g5
tp6882
tp6883
(lp6884
I1
aI0
aI0
as((S'Incomparable'
p6885
g2
tp6886
(S'compensation'
p6887
g5
tp6888
tp6889
(lp6890
I0
aI1
aI0
as((S'very'
p6891
g29
tp6892
(S'average'
p6893
g2
tp6894
tp6895
(lp6896
I0
aI0
aI1
as((S'many'
p6897
g2
tp6898
(S'departments'
p6899
g24
tp6900
tp6901
(lp6902
I0
aI0
aI1
as((S'average'
p6903
g2
tp6904
(S'Autonomy-'
p6905
g5
tp6906
tp6907
(lp6908
I0
aI1
aI0
as((S'frequently'
p6909
g29
tp6910
(S'said'
p6911
g154
tp6912
tp6913
(lp6914
I0
aI0
aI1
as((S'personal'
p6915
g2
tp6916
(S'life'
p6917
g5
tp6918
tp6919
(lp6920
I0
aI1
aI1
as((S'interesting'
p6921
g2
tp6922
(S'job'
p6923
g5
tp6924
tp6925
(lp6926
I0
aI1
aI0
as((S'work'
p6927
g5
tp6928
g2327
tp6929
(lp6930
I0
aI1
aI0
as((S'not'
p6931
g29
tp6932
(S'exist'
p6933
g329
tp6934
tp6935
(lp6936
I0
aI0
aI1
as((S'good'
p6937
g2
tp6938
(S'benefit'
p6939
g5
tp6940
tp6941
(lp6942
I0
aI2
aI0
as((S'typical'
p6943
g2
tp6944
(S'manufacturing'
p6945
g5
tp6946
tp6947
(lp6948
I0
aI0
aI1
as((S'few'
p6949
g2
tp6950
(S'management'
p6951
g5
tp6952
tp6953
(lp6954
I0
aI0
aI1
as((S'retail'
p6955
g2
tp6956
(S'atmosphere'
p6957
g5
tp6958
tp6959
(lp6960
I0
aI0
aI1
as((S'huge'
p6961
g2
tp6962
(S'amount'
p6963
g5
tp6964
tp6965
(lp6966
I0
aI0
aI1
as((S'financial'
p6967
g2
tp6968
(S'risk'
p6969
g5
tp6970
tp6971
(lp6972
I0
aI1
aI0
as((S'on-site'
p6973
g2
tp6974
(S'childcare'
p6975
g5
tp6976
tp6977
(lp6978
I0
aI1
aI0
as((S'not'
p6979
g29
tp6980
(S'comfortable'
p6981
g2
tp6982
tp6983
(lp6984
I0
aI0
aI1
as((S'good'
p6985
g2
tp6986
(S'entry'
p6987
g5
tp6988
tp6989
(lp6990
I1
aI0
aI0
as((S'morale'
p6991
g5
tp6992
(S'due'
p6993
g2
tp6994
tp6995
(lp6996
I0
aI0
aI1
as((S'Significant'
p6997
g2
tp6998
(S'opportunity'
p6999
g5
tp7000
tp7001
(lp7002
I1
aI0
aI0
as((S'great'
p7003
g2
tp7004
(S'employer'
p7005
g5
tp7006
tp7007
(lp7008
I1
aI0
aI0
as((S'critical'
p7009
g2
tp7010
(S'ones'
p7011
g24
tp7012
tp7013
(lp7014
I0
aI1
aI0
as((S'not'
p7015
g29
tp7016
(S'focus'
p7017
g329
tp7018
tp7019
(lp7020
I0
aI0
aI1
as((S'wildly'
p7021
g29
tp7022
(S'depending'
p7023
g93
tp7024
tp7025
(lp7026
I0
aI0
aI1
as((S'easily'
p7027
g29
tp7028
(S'fixed'
p7029
g32
tp7030
tp7031
(lp7032
I0
aI0
aI1
as((S'early'
p7033
g2
tp7034
(S'responsibility'
p7035
g5
tp7036
tp7037
(lp7038
I1
aI0
aI0
as((S'Terrible'
p7039
g2
tp7040
(S'support'
p7041
g5
tp7042
tp7043
(lp7044
I0
aI0
aI1
as((S'High'
p7045
g2
tp7046
(S'stress'
p7047
g5
tp7048
tp7049
(lp7050
I0
aI0
aI1
as((S'very'
p7051
g29
tp7052
(S'large'
p7053
g2
tp7054
tp7055
(lp7056
I0
aI0
aI1
as((S'certain'
p7057
g2
tp7058
(S'times'
p7059
g24
tp7060
tp7061
(lp7062
I0
aI0
aI1
as((S'just'
p7063
g29
tp7064
(S'wish'
p7065
g2
tp7066
tp7067
(lp7068
I1
aI0
aI0
as((S'new'
p7069
g2
tp7070
(S'suggestion'
p7071
g5
tp7072
tp7073
(lp7074
I0
aI0
aI1
as((S'intellectual'
p7075
g2
tp7076
(S'challenge'
p7077
g5
tp7078
tp7079
(lp7080
I0
aI0
aI1
as((S'time-off'
p7081
g2
tp7082
(S'policies'
p7083
g24
tp7084
tp7085
(lp7086
I0
aI1
aI0
as((S'Spectacular'
p7087
g2
tp7088
(S'benefits'
p7089
g24
tp7090
tp7091
(lp7092
I0
aI1
aI0
as((S'many'
p7093
g2
tp7094
(S'change'
p7095
g5
tp7096
tp7097
(lp7098
I0
aI0
aI1
as((S'properly'
p7099
g29
tp7100
(S'staffed'
p7101
g32
tp7102
tp7103
(lp7104
I0
aI0
aI1
as((S'retail'
p7105
g2
tp7106
(g1224
g5
tp7107
tp7108
(lp7109
I0
aI0
aI1
as((S'pretty'
p7110
g5
tp7111
(S'good'
p7112
g2
tp7113
tp7114
(lp7115
I0
aI1
aI0
as((S'more'
p7116
g1138
tp7117
(S'available'
p7118
g2
tp7119
tp7120
(lp7121
I0
aI1
aI0
as((S'deeply'
p7122
g29
tp7123
(S'rooted'
p7124
g32
tp7125
tp7126
(lp7127
I0
aI0
aI1
as((S'guilty'
p7128
g2
tp7129
(S'taking'
p7130
g5
tp7131
tp7132
(lp7133
I1
aI0
aI0
as((S'overall'
p7134
g2
tp7135
(S'environment'
p7136
g5
tp7137
tp7138
(lp7139
I0
aI0
aI1
as((S'Strong'
p7140
g2
tp7141
(S'desire'
p7142
g5
tp7143
tp7144
(lp7145
I0
aI1
aI0
as((S'more'
p7146
g1138
tp7147
(S'exciting'
p7148
g2
tp7149
tp7150
(lp7151
I0
aI1
aI0
as((S'seem'
p7152
g5
tp7153
(S'negligible'
p7154
g2
tp7155
tp7156
(lp7157
I0
aI0
aI1
as((S'Too'
p7158
g29
tp7159
(S'bureaucratic'
p7160
g2
tp7161
tp7162
(lp7163
I0
aI0
aI2
as((S'endless'
p7164
g2
tp7165
(S'supply'
p7166
g5
tp7167
tp7168
(lp7169
I0
aI1
aI0
as((S'much'
p7170
g29
tp7171
(S'good'
p7172
g2
tp7173
tp7174
(lp7175
I0
aI0
aI1
as((S'white'
p7176
g2
tp7177
(S'middle'
p7178
g5
tp7179
tp7180
(lp7181
I0
aI0
aI1
as((S'many'
p7182
g2
tp7183
(S'positions'
p7184
g24
tp7185
tp7186
(lp7187
I0
aI0
aI1
as((S'senior'
p7188
g2
tp7189
(S'talent'
p7190
g5
tp7191
tp7192
(lp7193
I0
aI1
aI0
as((S'Not'
p7194
g29
tp7195
(S'given'
p7196
g32
tp7197
tp7198
(lp7199
I0
aI0
aI1
as((S'Outstanding'
p7200
g2
tp7201
(S'benefits'
p7202
g24
tp7203
tp7204
(lp7205
I0
aI1
aI0
as((S'bad'
p7206
g2
tp7207
(S'place'
p7208
g5
tp7209
tp7210
(lp7211
I3
aI0
aI0
as((S'low'
p7212
g2
tp7213
(S'pay'
p7214
g5
tp7215
tp7216
(lp7217
I0
aI0
aI4
as((S'pretty'
p7218
g29
tp7219
(S'flexible'
p7220
g2
tp7221
tp7222
(lp7223
I1
aI1
aI0
as((S'difficult'
p7224
g2
tp7225
(S'move'
p7226
g5
tp7227
tp7228
(lp7229
I0
aI0
aI1
as((S'pervasive'
p7230
g2
tp7231
(S'politics'
p7232
g24
tp7233
tp7234
(lp7235
I0
aI0
aI1
as((S'secondary'
p7236
g2
tp7237
(S'mortgage'
p7238
g5
tp7239
tp7240
(lp7241
I1
aI0
aI0
as((S'so'
p7242
g29
tp7243
(S'long'
p7244
g2
tp7245
tp7246
(lp7247
I0
aI1
aI0
as((S'good'
p7248
g2
tp7249
(S'pay'
p7250
g5
tp7251
tp7252
(lp7253
I1
aI7
aI0
as((S'red'
p7254
g2
tp7255
(S'tape'
p7256
g5
tp7257
tp7258
(lp7259
I0
aI0
aI1
as((S'different'
p7260
g2
tp7261
(S'parts'
p7262
g24
tp7263
tp7264
(lp7265
I0
aI1
aI0
as((S'not'
p7266
g29
tp7267
(S'see'
p7268
g329
tp7269
tp7270
(lp7271
I0
aI0
aI1
as((S'High'
p7272
g2
tp7273
(S'turn'
p7274
g5
tp7275
tp7276
(lp7277
I0
aI0
aI1
as((S'Strong'
p7278
g2
tp7279
(S'culture'
p7280
g5
tp7281
tp7282
(lp7283
I0
aI0
aI1
as((S'average'
p7284
g2
tp7285
(S'pay'
p7286
g5
tp7287
tp7288
(lp7289
I0
aI4
aI0
as((S'technically'
p7290
g29
tp7291
(S'sound'
p7292
g2
tp7293
tp7294
(lp7295
I0
aI1
aI0
as((S'part-time'
p7296
g2
tp7297
(S'hours'
p7298
g24
tp7299
tp7300
(lp7301
I0
aI1
aI0
as((S'fairly'
p7302
g29
tp7303
(S'easy'
p7304
g2
tp7305
tp7306
(lp7307
I0
aI1
aI0
as((S'Not'
p7308
g29
tp7309
(S'welcoming'
p7310
g93
tp7311
tp7312
(lp7313
I0
aI0
aI1
as((S'local'
p7314
g2
tp7315
(S'staff'
p7316
g5
tp7317
tp7318
(lp7319
I0
aI0
aI1
as((S'only'
p7320
g29
tp7321
(S'interested'
p7322
g2
tp7323
tp7324
(lp7325
I0
aI0
aI1
as((S'high'
p7326
g2
tp7327
(S'level'
p7328
g5
tp7329
tp7330
(lp7331
I0
aI0
aI2
as((S'ever-increasing'
p7332
g2
tp7333
(S'drive'
p7334
g2
tp7335
tp7336
(lp7337
I0
aI0
aI1
as((S'technical'
p7338
g2
tp7339
(S'knowledge'
p7340
g5
tp7341
tp7342
(lp7343
I0
aI1
aI0
as((S'not'
p7344
g29
tp7345
(S'light'
p7346
g2
tp7347
tp7348
(lp7349
I0
aI0
aI1
as((S'good'
p7350
g2
tp7351
(S'training'
p7352
g5
tp7353
tp7354
(lp7355
I0
aI3
aI0
as((S'wonderful'
p7356
g2
tp7357
(S'start'
p7358
g5
tp7359
tp7360
(lp7361
I1
aI0
aI0
as((S'non-exempt'
p7362
g2
tp7363
(S'may'
p7364
g5
tp7365
tp7366
(lp7367
I0
aI0
aI1
as((S'unrealistic'
p7368
g2
tp7369
(S'sales'
p7370
g24
tp7371
tp7372
(lp7373
I0
aI0
aI1
as((S'sour-tasting'
p7374
g2
tp7375
(S'history'
p7376
g5
tp7377
tp7378
(lp7379
I0
aI0
aI1
as((S'high'
p7380
g2
tp7381
(S'visibility'
p7382
g5
tp7383
tp7384
(lp7385
I1
aI0
aI0
as((S'direct'
p7386
g2
tp7387
(S'reports'
p7388
g24
tp7389
tp7390
(lp7391
I0
aI0
aI1
as((S'managerial'
p7392
g2
tp7393
(S'approach'
p7394
g5
tp7395
tp7396
(lp7397
I0
aI0
aI1
as((S'something'
p7398
g5
tp7399
(S'new'
p7400
g2
tp7401
tp7402
(lp7403
I0
aI2
aI0
as((S"n't"
p7404
g29
tp7405
(S'retire'
p7406
g329
tp7407
tp7408
(lp7409
I1
aI0
aI0
as((S'bad'
p7410
g2
tp7411
(S'decisions'
p7412
g24
tp7413
tp7414
(lp7415
I0
aI0
aI2
as((S'affordable'
p7416
g2
tp7417
(S'cost'
p7418
g5
tp7419
tp7420
(lp7421
I0
aI1
aI0
as((S'retail'
p7422
g2
tp7423
(S'talent'
p7424
g5
tp7425
tp7426
(lp7427
I0
aI0
aI1
as((S'different'
p7428
g2
tp7429
(S'areas'
p7430
g24
tp7431
tp7432
(lp7433
I0
aI1
aI0
as((S'great'
p7434
g2
tp7435
(S'atmosphere'
p7436
g5
tp7437
tp7438
(lp7439
I0
aI1
aI0
as((S'Bad'
p7440
g2
tp7441
(S'Location'
p7442
g5
tp7443
tp7444
(lp7445
I1
aI0
aI0
as((S'Retail'
p7446
g2
tp7447
(S'hours'
p7448
g24
tp7449
tp7450
(lp7451
I0
aI0
aI1
as((S'very'
p7452
g29
tp7453
(S'mundane'
p7454
g2
tp7455
tp7456
(lp7457
I1
aI0
aI0
as((S'Mechanical'
p7458
g2
tp7459
(S'Engineering'
p7460
g5
tp7461
tp7462
(lp7463
I1
aI0
aI0
as((S'significant'
p7464
g2
tp7465
(S'change'
p7466
g5
tp7467
tp7468
(lp7469
I0
aI0
aI1
as((S'major'
p7470
g2
tp7471
(S'oil'
p7472
g5
tp7473
tp7474
(lp7475
I0
aI0
aI1
as((S'always'
p7476
g29
tp7477
(S'turbulent'
p7478
g2
tp7479
tp7480
(lp7481
I1
aI0
aI0
as((S'internal'
p7482
g2
tp7483
(S'systems'
p7484
g24
tp7485
tp7486
(lp7487
I0
aI0
aI1
as((S'real'
p7488
g2
tp7489
(S'responsibility'
p7490
g5
tp7491
tp7492
(lp7493
I0
aI1
aI0
as((S'social'
p7494
g2
tp7495
(S'work'
p7496
g5
tp7497
tp7498
(lp7499
I0
aI1
aI0
as((S'good'
p7500
g2
tp7501
(S'feedback'
p7502
g5
tp7503
tp7504
(lp7505
I1
aI0
aI0
as((S'large'
p7506
g2
tp7507
(S'space'
p7508
g5
tp7509
tp7510
(lp7511
I0
aI0
aI1
as((S'not'
p7512
g29
tp7513
(S'willing'
p7514
g2
tp7515
tp7516
(lp7517
I0
aI0
aI1
as((S'friendly'
p7518
g2
tp7519
(S'employees'
p7520
g24
tp7521
tp7522
(lp7523
I0
aI1
aI0
as((S'good'
p7524
g2
tp7525
(S'coworkers'
p7526
g24
tp7527
tp7528
(lp7529
I0
aI1
aI0
as((S'different'
p7530
g2
tp7531
(S'jobs'
p7532
g24
tp7533
tp7534
(lp7535
I0
aI1
aI0
as((S'much'
p7536
g2
tp7537
(S'travel'
p7538
g5
tp7539
tp7540
(lp7541
I0
aI0
aI1
as((S'legitimately'
p7542
g29
tp7543
(S'sick'
p7544
g2
tp7545
tp7546
(lp7547
I0
aI0
aI1
as((S'professional'
p7548
g2
tp7549
(S'engineering'
p7550
g5
tp7551
tp7552
(lp7553
I1
aI0
aI0
as((S'young'
p7554
g2
tp7555
(S'professionals'
p7556
g24
tp7557
tp7558
(lp7559
I0
aI1
aI0
as((S'great'
p7560
g2
tp7561
(S'understanding'
p7562
g5
tp7563
tp7564
(lp7565
I0
aI1
aI0
as((S'slow'
p7566
g2
tp7567
(S'presence'
p7568
g5
tp7569
tp7570
(lp7571
I0
aI0
aI1
as((S'tx'
p7572
g5
tp7573
(S'due'
p7574
g2
tp7575
tp7576
(lp7577
I0
aI0
aI1
as((S'new'
p7578
g2
tp7579
(S'systems'
p7580
g24
tp7581
tp7582
(lp7583
I0
aI1
aI0
as((S'well'
p7584
g29
tp7585
(S'developed'
p7586
g154
tp7587
tp7588
(lp7589
I0
aI1
aI1
as((S'Flexible'
p7590
g2
tp7591
(S'sch'
p7592
g5
tp7593
tp7594
(lp7595
I0
aI1
aI0
as((S'very'
p7596
g29
tp7597
(S'challenging'
p7598
g93
tp7599
tp7600
(lp7601
I2
aI0
aI3
as((S'other'
p7602
g2
tp7603
(S'banks'
p7604
g24
tp7605
tp7606
(lp7607
I0
aI0
aI1
as((S'not'
p7608
g29
tp7609
(S'certain'
p7610
g2
tp7611
tp7612
(lp7613
I0
aI0
aI1
as((S'only'
p7614
g29
tp7615
(S'say'
p7616
g329
tp7617
tp7618
(lp7619
I1
aI0
aI0
as((S'organic'
p7620
g2
tp7621
(S'growth'
p7622
g5
tp7623
tp7624
(lp7625
I0
aI0
aI1
as((S'less'
p7626
g1138
tp7627
(S'compared'
p7628
g32
tp7629
tp7630
(lp7631
I0
aI0
aI1
as((S'new'
p7632
g2
tp7633
(S'development'
p7634
g5
tp7635
tp7636
(lp7637
I0
aI0
aI1
as((S'organizational'
p7638
g2
tp7639
(S'culture'
p7640
g5
tp7641
tp7642
(lp7643
I0
aI1
aI0
as((S'good'
p7644
g2
tp7645
(S'facilities'
p7646
g24
tp7647
tp7648
(lp7649
I0
aI1
aI0
as((S'other'
p7650
g2
tp7651
(S'industries'
p7652
g24
tp7653
tp7654
(lp7655
I0
aI0
aI1
as((S'many'
p7656
g2
tp7657
(S'locations'
p7658
g24
tp7659
tp7660
(lp7661
I0
aI1
aI0
as((S'actually'
p7662
g29
tp7663
(S'get'
p7664
g329
tp7665
tp7666
(lp7667
I0
aI0
aI1
as((S'work/life'
p7668
g2
tp7669
(S'balance'
p7670
g5
tp7671
tp7672
(lp7673
I0
aI2
aI0
as((S'great'
p7674
g2
tp7675
(S'career'
p7676
g5
tp7677
tp7678
(lp7679
I1
aI1
aI0
as((S'professional'
p7680
g2
tp7681
(S'experiences'
p7682
g24
tp7683
tp7684
(lp7685
I1
aI0
aI0
as((S'personal'
p7686
g2
tp7687
(S'bank'
p7688
g5
tp7689
tp7690
(lp7691
I0
aI0
aI1
as((S'not'
p7692
g29
tp7693
(S'leaving'
p7694
g93
tp7695
tp7696
(lp7697
I0
aI1
aI0
as((S'positive'
p7698
g2
tp7699
(S'experience'
p7700
g5
tp7701
tp7702
(lp7703
I0
aI1
aI0
as((S'upward'
p7704
g2
tp7705
(S'once'
p7706
g5
tp7707
tp7708
(lp7709
I0
aI0
aI1
as((S'financial'
p7710
g2
tp7711
(S'storm'
p7712
g5
tp7713
tp7714
(lp7715
I0
aI0
aI1
as((S"n't"
p7716
g29
tp7717
(S'working'
p7718
g93
tp7719
tp7720
(lp7721
I0
aI0
aI1
as((S'aggressively'
p7722
g29
tp7723
(S'take'
p7724
g329
tp7725
tp7726
(lp7727
I0
aI0
aI1
as((S'technical'
p7728
g2
tp7729
(S'work'
p7730
g5
tp7731
tp7732
(lp7733
I0
aI1
aI0
as((S'Direct'
p7734
g2
tp7735
(S'supervisors'
p7736
g24
tp7737
tp7738
(lp7739
I0
aI1
aI0
as((S'extremely'
p7740
g29
tp7741
(S'helpful'
p7742
g2
tp7743
tp7744
(lp7745
I0
aI3
aI0
as((S'.but'
p7746
g2
tp7747
(S'get'
p7748
g5
tp7749
tp7750
(lp7751
I0
aI1
aI0
as((S'junior'
p7752
g2
tp7753
(S'employee'
p7754
g5
tp7755
tp7756
(lp7757
I0
aI0
aI1
as((S'long'
p7758
g2
tp7759
(S'hours'
p7760
g24
tp7761
tp7762
(lp7763
I0
aI1
aI4
as((S'little'
p7764
g29
tp7765
(S'overboard'
p7766
g2
tp7767
tp7768
(lp7769
I0
aI0
aI1
as((S'Financial'
p7770
g2
tp7771
(S'services'
p7772
g24
tp7773
tp7774
(lp7775
I1
aI0
aI0
as((S'corporate'
p7776
g2
tp7777
(S'management'
p7778
g5
tp7779
tp7780
(lp7781
I0
aI0
aI1
as((S'different'
p7782
g2
tp7783
(S'steps'
p7784
g24
tp7785
tp7786
(lp7787
I0
aI0
aI1
as((S'enable'
p7788
g2
tp7789
(S'growth'
p7790
g5
tp7791
tp7792
(lp7793
I0
aI1
aI0
as((S'very'
p7794
g29
tp7795
(S'conservative'
p7796
g2
tp7797
tp7798
(lp7799
I0
aI0
aI1
as((S'very'
p7800
g29
tp7801
(S'common'
p7802
g2
tp7803
tp7804
(lp7805
I0
aI1
aI1
as(g2047
(S'willing'
p7806
g2
tp7807
tp7808
(lp7809
I0
aI1
aI0
as((S'usually'
p7810
g29
tp7811
(S'negative'
p7812
g2
tp7813
tp7814
(lp7815
I0
aI0
aI1
as((S'good'
p7816
g2
tp7817
(S'learning'
p7818
g5
tp7819
tp7820
(lp7821
I2
aI1
aI0
as((S'ever'
p7822
g29
tp7823
(S'had'
p7824
g32
tp7825
tp7826
(lp7827
I1
aI0
aI0
as((S'administrative'
p7828
g2
tp7829
(S'work'
p7830
g5
tp7831
tp7832
(lp7833
I0
aI0
aI1
as((S'big'
p7834
g2
tp7835
(S'push'
p7836
g5
tp7837
tp7838
(lp7839
I0
aI0
aI1
as((S'decent'
p7840
g2
tp7841
(S'benefits'
p7842
g24
tp7843
tp7844
(lp7845
I0
aI1
aI0
as((S'many'
p7846
g2
tp7847
(S'chiefs'
p7848
g24
tp7849
tp7850
(lp7851
I1
aI0
aI0
as((S'certain'
p7852
g2
tp7853
(S'fields'
p7854
g24
tp7855
tp7856
(lp7857
I0
aI0
aI1
as((S'great'
p7858
g2
tp7859
(S'sense'
p7860
g5
tp7861
tp7862
(lp7863
I1
aI0
aI0
as((S'good'
p7864
g2
tp7865
(S'career'
p7866
g5
tp7867
tp7868
(lp7869
I1
aI1
aI0
as((S'more'
p7870
g1138
tp7871
(S'engineering'
p7872
g93
tp7873
tp7874
(lp7875
I0
aI0
aI1
as((S'much'
p7876
g29
tp7877
(S'change'
p7878
g329
tp7879
tp7880
(lp7881
I0
aI0
aI1
as((S'good'
p7882
g2
tp7883
(S'environment'
p7884
g5
tp7885
tp7886
(lp7887
I0
aI3
aI0
as((S'wonderful'
p7888
g2
tp7889
(S'people'
p7890
g24
tp7891
tp7892
(lp7893
I0
aI1
aI0
as((S'many'
p7894
g2
tp7895
(S'functions'
p7896
g24
tp7897
tp7898
(lp7899
I0
aI0
aI1
as((S'promotional'
p7900
g2
tp7901
(S'opportunities'
p7902
g24
tp7903
tp7904
(lp7905
I0
aI0
aI3
as((S'there'
p7906
g29
tp7907
(S'ranking'
p7908
g93
tp7909
tp7910
(lp7911
I0
aI1
aI0
as((S'long'
p7912
g29
tp7913
(S'working'
p7914
g93
tp7915
tp7916
(lp7917
I1
aI0
aI0
as((S'own'
p7918
g2
tp7919
(S'tools'
p7920
g24
tp7921
tp7922
(lp7923
I0
aI0
aI1
as((S'very'
p7924
g29
tp7925
(S'humid'
p7926
g2
tp7927
tp7928
(lp7929
I0
aI0
aI1
as((S'professional'
p7930
g2
tp7931
(S'skills'
p7932
g24
tp7933
tp7934
(lp7935
I0
aI1
aI0
as((S'wide'
p7936
g2
tp7937
(S'array'
p7938
g5
tp7939
tp7940
(lp7941
I0
aI1
aI0
as((S'professional'
p7942
g2
tp7943
(S'positions'
p7944
g24
tp7945
tp7946
(lp7947
I0
aI1
aI0
as((S'big'
p7948
g2
tp7949
(S'company'
p7950
g5
tp7951
tp7952
(lp7953
I0
aI2
aI5
as((S'always'
p7954
g29
tp7955
(S'decided'
p7956
g154
tp7957
tp7958
(lp7959
I0
aI0
aI2
as((S'potential'
p7960
g2
tp7961
(S'bonus'
p7962
g5
tp7963
tp7964
(lp7965
I0
aI1
aI0
as((S'current'
p7966
g2
tp7967
(S'reduction'
p7968
g5
tp7969
tp7970
(lp7971
I0
aI0
aI1
as((S'Family'
p7972
g29
tp7973
(S'oriented'
p7974
g32
tp7975
tp7976
(lp7977
I0
aI1
aI0
as((S'different'
p7978
g2
tp7979
(S'problems'
p7980
g24
tp7981
tp7982
(lp7983
I0
aI1
aI0
as((S'only'
p7984
g2
tp7985
(S'relates'
p7986
g24
tp7987
tp7988
(lp7989
I1
aI0
aI0
as((S'very'
p7990
g29
tp7991
(S'rude'
p7992
g2
tp7993
tp7994
(lp7995
I0
aI0
aI1
as((S'mechanic'
p7996
g2
tp7997
(S'job'
p7998
g5
tp7999
tp8000
(lp8001
I1
aI0
aI0
as((S'additional'
p8002
g2
tp8003
(S'compensations'
p8004
g24
tp8005
tp8006
(lp8007
I0
aI0
aI1
as((S"n't"
p8008
g29
tp8009
(S'needed'
p8010
g32
tp8011
tp8012
(lp8013
I0
aI0
aI1
as((S'financial'
p8014
g2
tp8015
(S'industry'
p8016
g5
tp8017
tp8018
(lp8019
I0
aI1
aI0
as((S'Total'
p8020
g2
tp8021
(S'compensation'
p8022
g5
tp8023
tp8024
(lp8025
I0
aI1
aI0
as((S'much'
p8026
g2
tp8027
(S'moving'
p8028
g5
tp8029
tp8030
(lp8031
I0
aI0
aI1
as((S'new'
p8032
g2
tp8033
(S'people'
p8034
g24
tp8035
tp8036
(lp8037
I0
aI1
aI0
as((S'small'
p8038
g2
tp8039
(S'enviroment'
p8040
g5
tp8041
tp8042
(lp8043
I0
aI0
aI1
as((S'really'
p8044
g29
tp8045
(S'care'
p8046
g329
tp8047
tp8048
(lp8049
I0
aI1
aI0
as((S'global'
p8050
g2
tp8051
(S'hiring'
p8052
g5
tp8053
tp8054
(lp8055
I0
aI0
aI1
as((S'totally'
p8056
g29
tp8057
(S'unimportant'
p8058
g2
tp8059
tp8060
(lp8061
I0
aI0
aI1
as((S'many'
p8062
g2
tp8063
(S'decesions'
p8064
g24
tp8065
tp8066
(lp8067
I0
aI0
aI1
as((S'traditional'
p8068
g2
tp8069
(S'market'
p8070
g5
tp8071
tp8072
(lp8073
I0
aI0
aI1
as((S'very'
p8074
g29
tp8075
(S'political'
p8076
g2
tp8077
tp8078
(lp8079
I1
aI0
aI4
as((S'large'
p8080
g2
tp8081
(S'number'
p8082
g5
tp8083
tp8084
(lp8085
I1
aI0
aI0
as((S'superior'
p8086
g2
tp8087
(S'opportunities'
p8088
g24
tp8089
tp8090
(lp8091
I1
aI0
aI0
as((S'always'
p8092
g29
tp8093
(S'willing'
p8094
g2
tp8095
tp8096
(lp8097
I0
aI1
aI0
as((S'such'
p8098
g2
tp8099
(S'experiences'
p8100
g24
tp8101
tp8102
(lp8103
I0
aI0
aI1
as((S'not'
p8104
g29
tp8105
(S'move'
p8106
g329
tp8107
tp8108
(lp8109
I1
aI0
aI0
as((S'never'
p8110
g29
tp8111
(S'followed'
p8112
g32
tp8113
tp8114
(lp8115
I0
aI0
aI1
as((S'many'
p8116
g2
tp8117
(S'expats'
p8118
g24
tp8119
tp8120
(lp8121
I0
aI0
aI1
as((S'Stable'
p8122
g2
tp8123
(S'business'
p8124
g5
tp8125
tp8126
(lp8127
I1
aI0
aI0
as((S'Technical'
p8128
g2
tp8129
(S'Sales'
p8130
g24
tp8131
tp8132
(lp8133
I1
aI0
aI0
as((S'too'
p8134
g29
tp8135
(S'bad'
p8136
g2
tp8137
tp8138
(lp8139
I1
aI0
aI0
as(g5430
(S'capped'
p8140
g2
tp8141
tp8142
(lp8143
I0
aI0
aI1
as((S'new'
p8144
g2
tp8145
(S'cool'
p8146
g5
tp8147
tp8148
(lp8149
I0
aI1
aI0
as((S'upper'
p8150
g2
tp8151
(S'ranks'
p8152
g24
tp8153
tp8154
(lp8155
I1
aI0
aI0
as((S'relatively'
p8156
g29
tp8157
(S'simple'
p8158
g2
tp8159
tp8160
(lp8161
I0
aI1
aI0
as((S'quite'
p8162
g29
tp8163
(S'difficult'
p8164
g2
tp8165
tp8166
(lp8167
I0
aI0
aI1
as((S'much'
p8168
g2
tp8169
(S'access'
p8170
g5
tp8171
tp8172
(lp8173
I0
aI0
aI1
as((S'not'
p8174
g29
tp8175
(S'empowered'
p8176
g32
tp8177
tp8178
(lp8179
I0
aI0
aI1
as((S'very'
p8180
g29
tp8181
(S'limited'
p8182
g32
tp8183
tp8184
(lp8185
I1
aI0
aI0
as((S'relatively'
p8186
g29
tp8187
(S'easy'
p8188
g2
tp8189
tp8190
(lp8191
I0
aI1
aI0
as((S'big'
p8192
g2
tp8193
(S'sales'
p8194
g24
tp8195
tp8196
(lp8197
I0
aI0
aI1
as((S'international'
p8198
g2
tp8199
(S'experience'
p8200
g5
tp8201
tp8202
(lp8203
I1
aI1
aI0
as((S'solid'
p8204
g2
tp8205
(S'support'
p8206
g5
tp8207
tp8208
(lp8209
I0
aI1
aI0
as((S'approachable'
p8210
g2
tp8211
(S'management'
p8212
g5
tp8213
tp8214
(lp8215
I0
aI1
aI0
as((S'potential'
p8216
g2
tp8217
(S'jobs'
p8218
g24
tp8219
tp8220
(lp8221
I0
aI1
aI0
as((S'geographic'
p8222
g2
tp8223
(S'differences'
p8224
g24
tp8225
tp8226
(lp8227
I0
aI0
aI1
as((S'nice'
p8228
g2
tp8229
(S'coworkers'
p8230
g24
tp8231
tp8232
(lp8233
I1
aI0
aI0
as((S'low'
p8234
g2
tp8235
(S'employee'
p8236
g5
tp8237
tp8238
(lp8239
I0
aI0
aI1
as((S'Flexible'
p8240
g2
tp8241
(S'scheduling'
p8242
g5
tp8243
tp8244
(lp8245
I0
aI1
aI0
as((S"n't"
p8246
g29
tp8247
(S'bad'
p8248
g2
tp8249
tp8250
(lp8251
I0
aI1
aI0
as((S'very'
p8252
g29
tp8253
(S'high'
p8254
g2
tp8255
tp8256
(lp8257
I0
aI1
aI1
as((S'high'
p8258
g2
tp8259
(S'demand'
p8260
g5
tp8261
tp8262
(lp8263
I0
aI0
aI1
as((S'clear'
p8264
g2
tp8265
(S'direction'
p8266
g5
tp8267
tp8268
(lp8269
I0
aI0
aI1
as((S'most'
p8270
g1241
tp8271
(S'beneficial'
p8272
g2
tp8273
tp8274
(lp8275
I0
aI1
aI0
as((S'employees'
p8276
g24
tp8277
(S'such'
p8278
g2
tp8279
tp8280
(lp8281
I0
aI1
aI0
as((S'retail'
p8282
g2
tp8283
(S'side'
p8284
g5
tp8285
tp8286
(lp8287
I0
aI0
aI2
as((S'considerate'
p8288
g2
tp8289
(S'Managers'
p8290
g24
tp8291
tp8292
(lp8293
I0
aI1
aI0
as((S'too'
p8294
g29
tp8295
(S'much'
p8296
g2
tp8297
tp8298
(lp8299
I0
aI0
aI1
as((S'strong'
p8300
g2
tp8301
(S'values'
p8302
g24
tp8303
tp8304
(lp8305
I0
aI1
aI0
as((S'not'
p8306
g29
tp8307
(S'know'
p8308
g329
tp8309
tp8310
(lp8311
I0
aI0
aI1
as((S'good'
p8312
g2
tp8313
(S'people'
p8314
g24
tp8315
tp8316
(lp8317
I0
aI6
aI1
as((S'much'
p8318
g29
tp8319
(S'red'
p8320
g32
tp8321
tp8322
(lp8323
I0
aI0
aI1
as((S'very'
p8324
g29
tp8325
(S'unappreciated'
p8326
g32
tp8327
tp8328
(lp8329
I1
aI0
aI0
as((S'negative'
p8330
g2
tp8331
(S'light'
p8332
g5
tp8333
tp8334
(lp8335
I0
aI0
aI1
as((S'easy'
p8336
g2
tp8337
(S'job'
p8338
g5
tp8339
tp8340
(lp8341
I0
aI2
aI0
as((S'very'
p8342
g29
tp8343
(S'accommodating'
p8344
g93
tp8345
tp8346
(lp8347
I1
aI0
aI0
as((S'fair'
p8348
g2
tp8349
(S'pay'
p8350
g5
tp8351
tp8352
(lp8353
I0
aI1
aI0
as((S'very'
p8354
g29
tp8355
(S'underpaid'
p8356
g154
tp8357
tp8358
(lp8359
I0
aI0
aI1
as((S'previous'
p8360
g2
tp8361
(S'person'
p8362
g5
tp8363
tp8364
(lp8365
I0
aI0
aI1
as((S'yet'
p8366
g29
tp8367
(S'time-consuming'
p8368
g2
tp8369
tp8370
(lp8371
I1
aI0
aI0
as((S'many'
p8372
g2
tp8373
(S'control'
p8374
g5
tp8375
tp8376
(lp8377
I1
aI0
aI0
as((S'sub-par'
p8378
g2
tp8379
(S'relative'
p8380
g2
tp8381
tp8382
(lp8383
I0
aI0
aI1
as((S'quantitative'
p8384
g2
tp8385
(S'factor'
p8386
g5
tp8387
tp8388
(lp8389
I0
aI0
aI1
as((S'individual'
p8390
g2
tp8391
(S'assignment'
p8392
g5
tp8393
tp8394
(lp8395
I0
aI0
aI1
as((S'very'
p8396
g29
tp8397
(S'inefficient'
p8398
g2
tp8399
tp8400
(lp8401
I0
aI0
aI1
as((S'big'
p8402
g2
tp8403
(S'Corporation'
p8404
g5
tp8405
tp8406
(lp8407
I1
aI0
aI0
as((S'next'
p8408
g2
tp8409
(S'advancement'
p8410
g5
tp8411
tp8412
(lp8413
I0
aI0
aI1
as((S'tough'
p8414
g2
tp8415
(S'city'
p8416
g5
tp8417
tp8418
(lp8419
I0
aI0
aI1
as((S'Mostly'
p8420
g29
tp8421
(S'Satisfied'
p8422
g32
tp8423
tp8424
(lp8425
I1
aI0
aI0
as((S'o.t'
p8426
g2
tp8427
(g1224
g5
tp8428
tp8429
(lp8430
I0
aI1
aI0
as((S'internal'
p8431
g2
tp8432
(S'issues'
p8433
g24
tp8434
tp8435
(lp8436
I0
aI0
aI1
as((S'truly'
p8437
g29
tp8438
(S'represented'
p8439
g32
tp8440
tp8441
(lp8442
I0
aI0
aI1
as((S'geographical'
p8443
g2
tp8444
(S'locations'
p8445
g24
tp8446
tp8447
(lp8448
I0
aI1
aI0
as((S'not'
p8449
g29
tp8450
(S'easy'
p8451
g2
tp8452
tp8453
(lp8454
I1
aI0
aI0
as((S'good'
p8455
g2
tp8456
(S'atmosphere'
p8457
g5
tp8458
tp8459
(lp8460
I0
aI1
aI0
as((S'general'
p8461
g2
tp8462
(S'insurance'
p8463
g5
tp8464
tp8465
(lp8466
I0
aI1
aI0
as((S'basic'
p8467
g2
tp8468
(S'things'
p8469
g24
tp8470
tp8471
(lp8472
I0
aI1
aI0
as((S'poor'
p8473
g2
tp8474
g6119
tp8475
(lp8476
I0
aI0
aI1
as((S'sharp'
p8477
g2
tp8478
(S'people'
p8479
g24
tp8480
tp8481
(lp8482
I0
aI1
aI0
as((S'not-so-great'
p8483
g2
tp8484
(S'pay'
p8485
g5
tp8486
tp8487
(lp8488
I1
aI0
aI0
as((S'much'
p8489
g2
tp8490
(S'politics'
p8491
g24
tp8492
tp8493
(lp8494
I0
aI0
aI1
as.