(dp0
(S'functional'
p1
S'JJ'
p2
tp3
I4
s(S'actually'
p4
S'RB'
p5
tp6
I4
s(S'co-op'
p7
S'NN'
p8
tp9
I3
s(S'stuff'
p10
g8
tp11
I5
s(S'low'
p12
g2
tp13
I20
s(S'Stable'
p14
g2
tp15
I5
s(S'fumbly'
p16
g5
tp17
I3
s(S'usual'
p18
g2
tp19
I4
s(S'internally'
p20
g5
tp21
I5
s(S'diverse'
p22
g2
tp23
I5
s(S'happene'
p24
g8
tp25
I3
s(S'non-management'
p26
g2
tp27
I4
s(S'track'
p28
g8
tp29
I3
s(S'idealistic'
p30
g2
tp31
I3
s(S'reliable'
p32
g2
tp33
I3
s(S'weak'
p34
g2
tp35
I3
s(S'together'
p36
g5
tp37
I3
s(S'young'
p38
g2
tp39
I6
s(S'onsite'
p40
g2
tp41
I4
s(S'add'
p42
g2
tp43
I3
s(S'level'
p44
g8
tp45
I6
s(S'red'
p46
g2
tp47
I3
s(S'previous'
p48
g2
tp49
I3
s(S'manager'
p50
g8
tp51
I4
s(S'ahead'
p52
g5
tp53
I3
s(S'daily'
p54
g2
tp55
I5
s(S'sharp'
p56
g2
tp57
I3
s(S'geographic'
p58
g2
tp59
I4
s(S'organizational'
p60
g2
tp61
I7
s(S'strategic'
p62
g2
tp63
I5
s(S'wide'
p64
g2
tp65
I9
s(S'moral'
p66
g2
tp67
I3
s(S'mechanic'
p68
g2
tp69
I3
s(S'inadequate'
p70
g2
tp71
I3
s(S'gas'
p72
g8
tp73
I4
s(S'Confortable'
p74
g2
tp75
I3
s(S'interactions'
p76
S'NNS'
p77
tp78
I3
s(S'wind/water/power'
p79
g2
tp80
I3
s(S'Incredible'
p81
g2
tp82
I4
s(S'leads.Your'
p83
g2
tp84
I3
s(S'corporation'
p85
g8
tp86
I3
s(S'ever'
p87
g5
tp88
I10
s(S'bad'
p89
g2
tp90
I25
s(S'floor'
p91
g8
tp92
I3
s(S'REALLY'
p93
g5
tp94
I4
s(S'safe'
p95
g2
tp96
I3
s(S'endless'
p97
g2
tp98
I4
s(S'tight'
p99
g2
tp100
I3
s(S'still'
p101
g5
tp102
I9
s(S'prisoner'
p103
g8
tp104
I3
s(S'-Work/Life'
p105
g2
tp106
I3
s(S'small'
p107
g2
tp108
I4
s(S'here'
p109
g5
tp110
I5
s(S'equitable'
p111
g2
tp112
I3
s(S'unpolished'
p113
g2
tp114
I3
s(S'lifestyle'
p115
g8
tp116
I3
s(S'Work-life'
p117
g2
tp118
I3
s(S'second'
p119
g2
tp120
I4
s(S'client'
p121
g8
tp122
I3
s(S'innovative'
p123
g2
tp124
I4
s(S'just'
p125
g5
tp126
I6
s(S'bureaucratic'
p127
g2
tp128
I7
s(S'downhill'
p129
g5
tp130
I3
s(S'poorly'
p131
g5
tp132
I3
s(S'old'
p133
g2
tp134
I6
s(S'economic'
p135
g2
tp136
I4
s(S'pretty'
p137
g8
tp138
I3
s(S'favorites'
p139
g77
tp140
I3
s(S'manageable'
p141
g2
tp142
I3
s(S'valuable'
p143
g2
tp144
I4
s(S'volume'
p145
g8
tp146
I3
s(S'world-class'
p147
g2
tp148
I3
s(S'significant'
p149
g2
tp150
I7
s(S'america'
p151
g8
tp152
I3
s(S'casual'
p153
g2
tp154
I4
s(S'high'
p155
g2
tp156
I26
s(S'first'
p157
g5
tp158
I5
s(S'bureaucracy'
p159
g8
tp160
I4
s(S'tech'
p161
g8
tp162
I3
s(S'Ridiculous'
p163
g2
tp164
I3
s(S'Just'
p165
g5
tp166
I4
s(S'heavily'
p167
g5
tp168
I3
s(S'underqualified'
p169
g2
tp170
I3
s(S'.but'
p171
g2
tp172
I3
s(S'international'
p173
g2
tp174
I10
s(S'heavy'
p175
g2
tp176
I3
s(S'Various'
p177
g2
tp178
I3
s(S'cincy'
p179
g8
tp180
I3
s(S'completely'
p181
g5
tp182
I3
s(S'exact'
p183
g2
tp184
I3
s(S'factory'
p185
g8
tp186
I3
s(S'mouth'
p187
g8
tp188
I3
s(S'activities'
p189
g77
tp190
I3
s(S'buddy'
p191
g2
tp192
I3
s(S'regulatory'
p193
g2
tp194
I3
s(S'outstanding'
p195
g2
tp196
I3
s(S'frequently'
p197
g5
tp198
I3
s(S'Still'
p199
g5
tp200
I3
s(S'Oddly'
p201
g5
tp202
I3
s(S'part-time'
p203
g2
tp204
I5
s(S'Huge'
p205
g2
tp206
I5
s(S'non-exempt'
p207
g2
tp208
I4
s(S'institutional'
p209
g2
tp210
I3
s(S'area'
p211
g8
tp212
I4
s(S'Once'
p213
g5
tp214
I3
s(S'demanding'
p215
g8
tp216
I3
s(S'intense'
p217
g2
tp218
I3
s(S'technologically'
p219
g5
tp220
I3
s(S'more'
p221
S'RBR'
p222
tp223
I13
s(S'redundancy'
p224
g8
tp225
I3
s(S'Banker'
p226
g8
tp227
I4
s(S'operations'
p228
g77
tp229
I3
s(S'communication'
p230
g8
tp231
I3
s(S'now'
p232
g5
tp233
I7
s(S'unfair'
p234
g2
tp235
I3
s(S'inflexible'
p236
g2
tp237
I3
s(S'customers'
p238
g77
tp239
I3
s(S'attractive'
p240
g2
tp241
I3
s(S'adequate'
p242
g2
tp243
I3
s(S'relatively'
p244
g5
tp245
I6
s(S'fantastic'
p246
g2
tp247
I4
s(S'global'
p248
g2
tp249
I23
s(S'messy'
p250
g2
tp251
I3
s(S'merit'
p252
g8
tp253
I3
s(S'plants'
p254
g77
tp255
I3
s(S'Analyst'
p256
g8
tp257
I3
s(S'yesterday'
p258
g8
tp259
I3
s(S'good'
p260
g2
tp261
I195
s(S'new'
p262
g2
tp263
I26
s(S'roller-coaster'
p264
g2
tp265
I3
s(S'skilled'
p266
g2
tp267
I3
s(S'store..excellent'
p268
g2
tp269
I3
s(S'little'
p270
g2
tp271
I9
s(S'verbal'
p272
g2
tp273
I3
s(S'mental'
p274
g2
tp275
I3
s(S'merger'
p276
g8
tp277
I3
s(S'guilty'
p278
g2
tp279
I3
s(S'lucky'
p280
g2
tp281
I4
s(S'seasonal'
p282
g2
tp283
I3
s(S'knowledgable'
p284
g2
tp285
I4
s(S'Bad'
p286
g2
tp287
I7
s(S'absolutely'
p288
g5
tp289
I3
s(S'regardless'
p290
g8
tp291
I3
s(S'knowledge'
p292
g8
tp293
I4
s(S'solid'
p294
g2
tp295
I7
s(S'computers'
p296
g77
tp297
I3
s(S'experiences'
p298
g77
tp299
I4
s(S'middle'
p300
g2
tp301
I4
s(S'time-off'
p302
g2
tp303
I3
s(S'mostly'
p304
g5
tp305
I3
s(S'quite'
p306
g5
tp307
I5
s(S'overtime'
p308
g8
tp309
I4
s(S'seasoned'
p310
g2
tp311
I3
s(S'street'
p312
g8
tp313
I3
s(S'pretty'
p314
g5
tp315
I8
s(S'perspective'
p316
g2
tp317
I3
s(S'nothing'
p318
g8
tp319
I3
s(S'social'
p320
g2
tp321
I6
s(S'On-site'
p322
g2
tp323
I3
s(S'technically'
p324
g5
tp325
I3
s(S'Experience'
p326
g8
tp327
I3
s(S'mission'
p328
g8
tp329
I3
s(S'approachable'
p330
g2
tp331
I3
s(S'locations'
p332
g77
tp333
I3
s(S'plan'
p334
g8
tp335
I3
s(S'reasonably'
p336
g5
tp337
I3
s(S'structure'
p338
g8
tp339
I5
s(S'even'
p340
g5
tp341
I6
s(S'minimum'
p342
g2
tp343
I4
s(S'Significant'
p344
g2
tp345
I3
s(S'unemployment'
p346
g8
tp347
I3
s(S'knowledgeable'
p348
g2
tp349
I3
s(S'open'
p350
g2
tp351
I5
s(S'perpetual'
p352
g2
tp353
I3
s(S'Generous'
p354
g2
tp355
I3
s(S'incremental'
p356
g2
tp357
I3
s(S'third'
p358
g2
tp359
I3
s(S'usually'
p360
g5
tp361
I5
s(S'medical'
p362
g2
tp363
I5
s(S'shift'
p364
g8
tp365
I4
s(S'signifcant'
p366
g2
tp367
I3
s(S'Overly'
p368
g5
tp369
I3
s(S'-Solid'
p370
g2
tp371
I3
s(S'promotion'
p372
g8
tp373
I3
s(S'spills'
p374
g77
tp375
I3
s(S'aggressively'
p376
g5
tp377
I3
s(S'professional'
p378
g2
tp379
I19
s(S'entitlement'
p380
g8
tp381
I3
s(S'extremely'
p382
g5
tp383
I7
s(S'hard'
p384
g2
tp385
I6
s(S'minor'
p386
g2
tp387
I3
s(S'educational'
p388
g2
tp389
I6
s(S'sensitive'
p390
g2
tp391
I3
s(S')'
p392
g8
tp393
I4
s(S'bit'
p394
g8
tp395
I4
s(S'median'
p396
g2
tp397
I3
s(S'work'
p398
g8
tp399
I13
s(S'promotional'
p400
g2
tp401
I5
s(S'wrong'
p402
g2
tp403
I3
s(S'technical'
p404
g2
tp405
I13
s(S'region'
p406
g8
tp407
I3
s(S'break-through'
p408
g2
tp409
I3
s(S'outside'
p410
g2
tp411
I3
s(S'few'
p412
g2
tp413
I13
s(S'important'
p414
g2
tp415
I3
s(S'Spectacular'
p416
g2
tp417
I3
s(S'couple'
p418
g2
tp419
I3
s(S'equal'
p420
g2
tp421
I3
s(S'market'
p422
g8
tp423
I6
s(S'livable'
p424
g2
tp425
I3
s(S'own'
p426
g2
tp427
I15
s(S'slow'
p428
g2
tp429
I9
s(S'Extensive'
p430
g2
tp431
I3
s(S'Always'
p432
g5
tp433
I4
s(S'replaceable'
p434
g2
tp435
I3
s(S'expansion'
p436
g8
tp437
I3
s(S'eventually'
p438
g5
tp439
I3
s(S'mentioning'
p440
g8
tp441
I3
s(S'tape'
p442
g8
tp443
I3
s(S'Free-Fire'
p444
g2
tp445
I3
s(S'incredible'
p446
g2
tp447
I3
s(S'companies'
p448
g77
tp449
I3
s(S'analyst'
p450
g8
tp451
I3
s(S'appropriate'
p452
g2
tp453
I3
s(S'consulting'
p454
g8
tp455
I3
s(S'good/bad'
p456
g2
tp457
I3
s(S'neck'
p458
g8
tp459
I3
s(S'standard'
p460
g2
tp461
I4
s(S'-Old'
p462
g2
tp463
I3
s(S'issues'
p464
g77
tp465
I4
s(S'tough'
p466
g2
tp467
I5
s(S'code'
p468
g8
tp469
I3
s(S'fairly'
p470
g5
tp471
I3
s(S'kaizen'
p472
g8
tp473
I3
s(S'crime-filled'
p474
g2
tp475
I3
s(S'back'
p476
g5
tp477
I3
s(S'exposure'
p478
g8
tp479
I3
s(S'managers'
p480
g77
tp481
I3
s(S'slow-moving'
p482
g2
tp483
I3
s(S'enable'
p484
g2
tp485
I3
s(S'anything'
p486
g8
tp487
I3
s(S'broad'
p488
g2
tp489
I5
s(S'promotion/'
p490
g2
tp491
I3
s(S'executive'
p492
g2
tp493
I4
s(S'excellent'
p494
g2
tp495
I3
s(S'Passive'
p496
g2
tp497
I3
s(S'products'
p498
g77
tp499
I6
s(S'monthly'
p500
g2
tp501
I3
s(S'steady'
p502
g2
tp503
I4
s(S'departments'
p504
g77
tp505
I6
s(S'school'
p506
g8
tp507
I4
s(S'book'
p508
g8
tp509
I3
s(S'raise'
p510
g8
tp511
I3
s(S'clear'
p512
g2
tp513
I7
s(S'diff'
p514
g8
tp515
I3
s(S'crafts-people'
p516
g2
tp517
I3
s(S'worth'
p518
g2
tp519
I4
s(S'projects'
p520
g77
tp521
I4
s(S'wold'
p522
g8
tp523
I3
s(S'pay'
p524
g8
tp525
I4
s(S'generally'
p526
g5
tp527
I8
s(S'free'
p528
g2
tp529
I8
s(S'however'
p530
g5
tp531
I3
s(S'morale'
p532
g8
tp533
I5
s(S'engineer'
p534
g8
tp535
I5
s(S'Self-imposed'
p536
g2
tp537
I3
s(S'talent'
p538
g8
tp539
I4
s(S'many'
p540
g2
tp541
I81
s(S'number'
p542
g8
tp543
I4
s(S'formal'
p544
g2
tp545
I3
s(S'wear'
p546
g2
tp547
I3
s(S'stupid'
p548
g2
tp549
I3
s(S'Work/life'
p550
g2
tp551
I4
s(S'Average'
p552
g2
tp553
I3
s(S'such'
p554
g2
tp555
I4
s(S'Overall'
p556
g2
tp557
I4
s(S'vacation'
p558
g8
tp559
I3
s(S'Competitive'
p560
g2
tp561
I9
s(S'reputation'
p562
g8
tp563
I3
s(S'Too'
p564
g5
tp565
I14
s(S'very'
p566
g5
tp567
I96
s(S'deeply'
p568
g5
tp569
I3
s(S'*Great'
p570
g2
tp571
I3
s(S'essential'
p572
g2
tp573
I3
s(S'days'
p574
g77
tp575
I3
s(S'non-existent'
p576
g2
tp577
I3
s(S'education'
p578
g8
tp579
I3
s(S'-People'
p580
g2
tp581
I3
s(S'noticeable'
p582
g2
tp583
I3
s(S'proper'
p584
g2
tp585
I3
s(S'glorious'
p586
g2
tp587
I3
s(S'well'
p588
g5
tp589
I17
s(S'insight'
p590
g8
tp591
I3
s(S'Sucks'
p592
g77
tp593
I5
s(S'sour-tasting'
p594
g2
tp595
I3
s(S'walmart'
p596
g8
tp597
I4
s(S'Large'
p598
g2
tp599
I21
s(S'merchandising'
p600
g8
tp601
I3
s(S'interesting'
p602
g2
tp603
I11
s(S'secondary'
p604
g2
tp605
I3
s(S'genuinely'
p606
g5
tp607
I3
s(S'engineering'
p608
g8
tp609
I3
s(S'complex'
p610
g2
tp611
I4
s(S'healthy'
p612
g2
tp613
I3
s(S'cult-like'
p614
g2
tp615
I3
s(S'meritocracy'
p616
g8
tp617
I3
s(S'line'
p618
g8
tp619
I4
s(S'Promotions'
p620
g77
tp621
I3
s(S'somewhat'
p622
g5
tp623
I5
s(S'builder'
p624
g8
tp625
I3
s(S'weeks'
p626
g77
tp627
I3
s(S'initiatives'
p628
g77
tp629
I3
s(S'inwardly'
p630
g5
tp631
I3
s(S'quick'
p632
g2
tp633
I3
s(S'officer'
p634
g8
tp635
I3
s(S'mundane'
p636
g2
tp637
I3
s(S'sub-par'
p638
g2
tp639
I3
s(S'Direct'
p640
g2
tp641
I3
s(S'namely'
p642
g5
tp643
I3
s(S'easily'
p644
g5
tp645
I3
s(S'OK'
p646
g8
tp647
I5
s(S'press'
p648
g8
tp649
I3
s(S'changes'
p650
g77
tp651
I3
s(S'rich'
p652
g2
tp653
I3
s(S'instantly'
p654
g5
tp655
I3
s(S'teamwork'
p656
g8
tp657
I3
s(S'students'
p658
g77
tp659
I4
s(S'complete'
p660
g2
tp661
I3
s(S'Appliances'
p662
g77
tp663
I3
s(S'greedy'
p664
g2
tp665
I3
s(S'logistics'
p666
g77
tp667
I3
s(S'future'
p668
g8
tp669
I3
s(S'dysfunctional'
p670
g2
tp671
I3
s(S'almost'
p672
g5
tp673
I3
s(S'extensive'
p674
g2
tp675
I3
s(S'catastrophic'
p676
g2
tp677
I3
s(S'annual'
p678
g2
tp679
I5
s(S'Casual'
p680
g2
tp681
I3
s(S'Inter-group'
p682
g2
tp683
I3
s(S'major'
p684
g2
tp685
I5
s(S'goods'
p686
g77
tp687
I3
s(S'uncapped'
p688
g2
tp689
I3
s(S'respectful'
p690
g2
tp691
I4
s(S'continuously'
p692
g5
tp693
I3
s(S"'ole"
p694
g2
tp695
I3
s(S'Unmatched'
p696
g2
tp697
I3
s(S'direction'
p698
g8
tp699
I4
s(S'finance'
p700
g8
tp701
I3
s(S'able'
p702
g2
tp703
I3
s(S'fruition'
p704
g8
tp705
I3
s(S'chiefs'
p706
g77
tp707
I3
s(S'contractor'
p708
g8
tp709
I3
s(S'frugal'
p710
g2
tp711
I3
s(S'fiercely'
p712
g5
tp713
I3
s(S'Incomparable'
p714
g2
tp715
I3
s(S'Kids'
p716
g77
tp717
I3
s(S'fresh'
p718
g2
tp719
I4
s(S'enthusiastic'
p720
g2
tp721
I3
s(S'retail'
p722
g2
tp723
I17
s(S'Terrible'
p724
g2
tp725
I3
s(S'..the'
p726
g2
tp727
I3
s(S'location'
p728
g8
tp729
I3
s(S'much'
p730
g2
tp731
I24
s(S'reasonable'
p732
g2
tp733
I6
s(S'literally'
p734
g5
tp735
I3
s(S'resume'
p736
g8
tp737
I4
s(S'economics'
p738
g77
tp739
I3
s(S'creative'
p740
g2
tp741
I4
s(S'hard'
p742
g5
tp743
I6
s(S'cubical'
p744
g2
tp745
I3
s(S'advancement'
p746
g8
tp747
I5
s(S'pragmatic'
p748
g2
tp749
I3
s(S'prosper'
p750
g8
tp751
I3
s(S'awful'
p752
g2
tp753
I4
s(S'extra'
p754
g2
tp755
I3
s(S'expensive'
p756
g2
tp757
I3
s(S'Enormously'
p758
g5
tp759
I3
s(S'next'
p760
g2
tp761
I4
s(S'upper'
p762
g2
tp763
I11
s(S'growth'
p764
g8
tp765
I6
s(S'space'
p766
g8
tp767
I3
s(S'co-operative'
p768
g2
tp769
I3
s(S'making/closing'
p770
g2
tp771
I3
s(S'term'
p772
g2
tp773
I3
s(S'paths'
p774
g77
tp775
I3
s(S'fundamentals'
p776
g77
tp777
I3
s(S'equitqable'
p778
g2
tp779
I3
s(S'developers'
p780
g77
tp781
I3
s(S'insiders'
p782
g77
tp783
I3
s(S'opportunities'
p784
g77
tp785
I6
s(S'ground'
p786
g8
tp787
I3
s(S'paltry'
p788
g8
tp789
I3
s(S'and/or'
p790
g2
tp791
I3
s(S'walls'
p792
g77
tp793
I3
s(S'friends'
p794
g77
tp795
I4
s(S'-Some'
p796
g2
tp797
I3
s(S'Global'
p798
g2
tp799
I6
s(S'specific'
p800
g2
tp801
I3
s(S'upward'
p802
g2
tp803
I4
s(S'bonuses'
p804
g77
tp805
I4
s(S'Other'
p806
g2
tp807
I3
s(S'banks'
p808
g77
tp809
I3
s(S'quantitative'
p810
g2
tp811
I3
s(S'ongoing'
p812
g2
tp813
I3
s(S'Reasonable'
p814
g2
tp815
I3
s(S'Technical'
p816
g2
tp817
I3
s(S'stable'
p818
g2
tp819
I4
s(S'marketable'
p820
g2
tp821
I3
s(S'decent'
p822
g2
tp823
I3
s(S'administrative'
p824
g2
tp825
I3
s(S'reputational'
p826
g2
tp827
I3
s(S'reality'
p828
g8
tp829
I3
s(S'effectively'
p830
g5
tp831
I3
s(S'competitive'
p832
g2
tp833
I10
s(S'schedule'
p834
g8
tp835
I3
s(S'French'
p836
g2
tp837
I6
s(S'comfortable'
p838
g2
tp839
I5
s(S'stone'
p840
g8
tp841
I3
s(S'slowly'
p842
g5
tp843
I4
s(S'fundamental'
p844
g2
tp845
I3
s(S'always'
p846
g5
tp847
I26
s(S'senior'
p848
g2
tp849
I15
s(S'Many'
p850
g2
tp851
I10
s(S'unrealistic'
p852
g2
tp853
I3
s(S'expenses'
p854
g77
tp855
I4
s(S'comparable'
p856
g2
tp857
I4
s(S'bp'
p858
g8
tp859
I3
s(S'Not'
p860
g5
tp861
I15
s(S'top'
p862
g2
tp863
I10
s(S'stre'
p864
g8
tp865
I3
s(S'hierarchal'
p866
g2
tp867
I3
s(S'years'
p868
g77
tp869
I7
s(S'truly'
p870
g5
tp871
I4
s(S'seem'
p872
g8
tp873
I3
s(S'peers'
p874
g77
tp875
I3
s(S'technician'
p876
g8
tp877
I3
s(S'la'
p878
g8
tp879
I3
s(S'rough'
p880
g2
tp881
I3
s(S'depts'
p882
g77
tp883
I3
s(S'-Faire'
p884
g2
tp885
I3
s(S'standards'
p886
g77
tp887
I3
s(S'salary'
p888
g8
tp889
I4
s(S'reactive'
p890
g2
tp891
I3
s(S'supervisors'
p892
g77
tp893
I3
s(S'Mostly'
p894
g5
tp895
I3
s(S'Organizational'
p896
g2
tp897
I3
s(S'time'
p898
g8
tp899
I5
s(S'primary'
p900
g2
tp901
I3
s(S'recreational'
p902
g2
tp903
I3
s(S'poor'
p904
g2
tp905
I19
s(S'certain'
p906
g2
tp907
I8
s(S'worker'
p908
g8
tp909
I3
s(S'Executive'
p910
g2
tp911
I3
s(S'clearly'
p912
g5
tp913
I3
s(S'typical'
p914
g2
tp915
I3
s(S'constantly'
p916
g5
tp917
I7
s(S'Vindictive'
p918
g2
tp919
I3
s(S'understaffing'
p920
g8
tp921
I3
s(S'strong'
p922
g2
tp923
I13
s(S'dead'
p924
g2
tp925
I3
s(S'easy-going'
p926
g2
tp927
I3
s(S'beneffit'
p928
g8
tp929
I3
s(S'everyone'
p930
g8
tp931
I3
s(S'cutthroat'
p932
g2
tp933
I3
s(S'less'
p934
g222
tp935
I3
s(S'Never'
p936
g5
tp937
I4
s(S'hours'
p938
g77
tp939
I10
s(S'workforce'
p940
g8
tp941
I3
s(S'Poorly'
p942
g5
tp943
I4
s(S'divisions'
p944
g77
tp945
I4
s(S'business/department'
p946
g2
tp947
I3
s(S'academic'
p948
g2
tp949
I3
s(S'eduactional'
p950
g2
tp951
I3
s(S'Flexible'
p952
g2
tp953
I10
s(S'Total'
p954
g2
tp955
I3
s(S'recognition'
p956
g8
tp957
I4
s(S'on-site'
p958
g2
tp959
I4
s(S'sprawling'
p960
g2
tp961
I3
s(S'guidance'
p962
g8
tp963
I3
s(S'lunch'
p964
g8
tp965
I3
s(S'internal'
p966
g2
tp967
I9
s(S'service'
p968
g8
tp969
I5
s(S'autonomous'
p970
g2
tp971
I3
s(S'firms'
p972
g77
tp973
I3
s(S'Constantly'
p974
g5
tp975
I3
s(S'experience'
p976
g8
tp977
I17
s(S'happy'
p978
g2
tp979
I3
s(S'entrepreneurial'
p980
g2
tp981
I3
s(S'skills'
p982
g77
tp983
I4
s(S'under-controlled'
p984
g2
tp985
I3
s(S'immediately'
p986
g5
tp987
I4
s(S'routine'
p988
g8
tp989
I3
s(S'politically'
p990
g5
tp991
I3
s(S'semiannual'
p992
g2
tp993
I3
s(S'ok'
p994
g8
tp995
I3
s(S'traditional'
p996
g2
tp997
I3
s(S'minutes'
p998
g77
tp999
I3
s(S'-Arrogant'
p1000
g2
tp1001
I3
s(S'junior'
p1002
g2
tp1003
I3
s(S'customer'
p1004
g8
tp1005
I5
s(S'cool'
p1006
g2
tp1007
I5
s(S'necessary'
p1008
g2
tp1009
I3
s(S'legitimately'
p1010
g5
tp1011
I3
s(S'long'
p1012
g2
tp1013
I19
s(S'employee'
p1014
g8
tp1015
I4
s(S'much'
p1016
g5
tp1017
I11
s(S'Horrible'
p1018
g2
tp1019
I3
s(S'travel'
p1020
g8
tp1021
I3
s(S'responsive'
p1022
g2
tp1023
I3
s(S'whole'
p1024
g2
tp1025
I3
s(S'locomotive'
p1026
g2
tp1027
I3
s(S'self-serving'
p1028
g2
tp1029
I3
s(S'financial'
p1030
g2
tp1031
I14
s(S'investigative'
p1032
g2
tp1033
I3
s(S'th'
p1034
g8
tp1035
I3
s(S'long'
p1036
g5
tp1037
I3
s(S'problems'
p1038
g77
tp1039
I3
s(S'overall'
p1040
g2
tp1041
I10
s(S'laziness'
p1042
g8
tp1043
I3
s(S'work-life'
p1044
g2
tp1045
I5
s(S'-Ignorant/impatient/rude'
p1046
g2
tp1047
I3
s(S'necessarily'
p1048
g5
tp1049
I4
s(S'names'
p1050
g77
tp1051
I3
s(S'touch'
p1052
g2
tp1053
I3
s(S'there'
p1054
g5
tp1055
I5
s(S'unbelievably'
p1056
g5
tp1057
I3
s(S'over-worked'
p1058
g2
tp1059
I3
s(S'wor'
p1060
g8
tp1061
I3
s(S'offices'
p1062
g77
tp1063
I4
s(S'e-commerce'
p1064
g2
tp1065
I3
s(S'exciting'
p1066
g2
tp1067
I3
s(S'other'
p1068
g2
tp1069
I29
s(S'highly'
p1070
g5
tp1071
I7
s(S'People'
p1072
g77
tp1073
I3
s(S'recent'
p1074
g2
tp1075
I4
s(S'Outstanding'
p1076
g2
tp1077
I4
s(S'away'
p1078
g5
tp1079
I3
s(S'male'
p1080
g2
tp1081
I3
s(S'fast'
p1082
g2
tp1083
I3
s(S'sympathizers'
p1084
g77
tp1085
I3
s(S'accessible'
p1086
g2
tp1087
I3
s(S'management'
p1088
g8
tp1089
I13
s(S'matrix'
p1090
g8
tp1091
I3
s(S'Mechanical'
p1092
g2
tp1093
I3
s(S'-Slow'
p1094
g2
tp1095
I3
s(S'lifelong'
p1096
g2
tp1097
I4
s(S'expectations'
p1098
g77
tp1099
I3
s(S'Great'
p1100
g2
tp1101
I4
s(S'hourly'
p1102
g5
tp1103
I4
s(S'year'
p1104
g8
tp1105
I3
s(S'lateral'
p1106
g2
tp1107
I4
s(S'opportunity'
p1108
g8
tp1109
I9
s(S'single'
p1110
g2
tp1111
I3
s(S'with..rare'
p1112
g2
tp1113
I3
s(S'Japanese'
p1114
g2
tp1115
I9
s(S'affiliates'
p1116
g77
tp1117
I3
s(S'consrvatorship'
p1118
g8
tp1119
I3
s(S'severely'
p1120
g5
tp1121
I3
s(S'correctly'
p1122
g5
tp1123
I4
s(S'rather'
p1124
g5
tp1125
I3
s(S'nonflexible'
p1126
g2
tp1127
I3
s(S'Ever-changing'
p1128
g2
tp1129
I3
s(S'similar'
p1130
g2
tp1131
I4
s(S'back'
p1132
g8
tp1133
I3
s(S'great'
p1134
g2
tp1135
I154
s(S'strict'
p1136
g2
tp1137
I3
s(S'Strong'
p1138
g2
tp1139
I7
s(S'Economic'
p1140
g2
tp1141
I3
s(S'career'
p1142
g8
tp1143
I7
s(S'lean'
p1144
g2
tp1145
I3
s(S'bank'
p1146
g8
tp1147
I3
s(S'day'
p1148
g8
tp1149
I4
s(S'salaries'
p1150
g77
tp1151
I3
s(S'history'
p1152
g8
tp1153
I3
s(S'okay'
p1154
g8
tp1155
I3
s(S'real'
p1156
g2
tp1157
I11
s(S'referrals,'
p1158
g2
tp1159
I3
s(S'performance'
p1160
g8
tp1161
I4
s(S'big'
p1162
g2
tp1163
I20
s(S'intern'
p1164
g8
tp1165
I3
s(S'graduates'
p1166
g77
tp1167
I3
s(S'managment'
p1168
g8
tp1169
I3
s(S'emphasis'
p1170
g8
tp1171
I3
s(S'Long'
p1172
g2
tp1173
I9
s(S'excessive'
p1174
g2
tp1175
I3
s(S'reputable'
p1176
g2
tp1177
I3
s(S'forward'
p1178
g5
tp1179
I3
s(S'culture'
p1180
g8
tp1181
I5
s(S'non-business'
p1182
g2
tp1183
I3
s(S'employees'
p1184
g77
tp1185
I20
s(S'Important'
p1186
g2
tp1187
I3
s(S'Opportunities'
p1188
g77
tp1189
I3
s(S'periods'
p1190
g77
tp1191
I3
s(S'inform'
p1192
g8
tp1193
I3
s(S'compartmentalized'
p1194
g2
tp1195
I3
s(S'greatly'
p1196
g5
tp1197
I3
s(S'trajectory'
p1198
g8
tp1199
I3
s(S'-Great'
p1200
g2
tp1201
I3
s(S'excel'
p1202
g8
tp1203
I3
s(S'multi-focus'
p1204
g2
tp1205
I3
s(S'profits'
p1206
g77
tp1207
I3
s(S'generous'
p1208
g2
tp1209
I3
s(S'wonderful'
p1210
g2
tp1211
I8
s(S'especially'
p1212
g5
tp1213
I4
s(S'alone'
p1214
g5
tp1215
I3
s(S'fat'
p1216
g2
tp1217
I3
s(S'Conservative'
p1218
g2
tp1219
I3
s(S'benefits'
p1220
g77
tp1221
I7
s(S're-org'
p1222
g2
tp1223
I3
s(S'German'
p1224
g2
tp1225
I3
s(S'far'
p1226
g5
tp1227
I3
s(S'o.t'
p1228
g2
tp1229
I3
s(S'late'
p1230
g2
tp1231
I3
s(S'life'
p1232
g8
tp1233
I3
s(S'balance'
p1234
g8
tp1235
I7
s(S'definitely'
p1236
g5
tp1237
I3
s(S'associates'
p1238
g77
tp1239
I3
s(S'skin'
p1240
g8
tp1241
I3
s(S'optimal'
p1242
g2
tp1243
I3
s(S'workers'
p1244
g77
tp1245
I3
s(S'development'
p1246
g8
tp1247
I4
s(S'are'
p1248
g2
tp1249
I3
s(S'tactical'
p1250
g2
tp1251
I3
s(S'blows'
p1252
g77
tp1253
I3
s(S'Years'
p1254
g77
tp1255
I3
s(S'sales'
p1256
g77
tp1257
I5
s(S'possibly'
p1258
g5
tp1259
I3
s(S'Financial'
p1260
g2
tp1261
I3
s(S'perhaps'
p1262
g5
tp1263
I3
s(S'allowing'
p1264
g8
tp1265
I3
s(S'skill'
p1266
g8
tp1267
I3
s(S'privacy'
p1268
g8
tp1269
I3
s(S'main'
p1270
g2
tp1271
I3
s(S'college'
p1272
g8
tp1273
I4
s(S'circumstances'
p1274
g77
tp1275
I3
s(S'Outside'
p1276
g2
tp1277
I3
s(S'so'
p1278
g5
tp1279
I12
s(S'geographical'
p1280
g2
tp1281
I3
s(S'department'
p1282
g8
tp1283
I4
s(S'ever-changing'
p1284
g2
tp1285
I3
s(S'Sometimes'
p1286
g5
tp1287
I3
s(S'full'
p1288
g2
tp1289
I7
s(S'yet'
p1290
g5
tp1291
I3
s(S'large'
p1292
g2
tp1293
I23
s(S'automation'
p1294
g8
tp1295
I3
s(S'Management'
p1296
g8
tp1297
I3
s(S'throat'
p1298
g2
tp1299
I3
s(S'downtime'
p1300
g8
tp1301
I3
s(S'serious'
p1302
g2
tp1303
I3
s(S'employment'
p1304
g8
tp1305
I3
s(S'geologists'
p1306
g77
tp1307
I3
s(S'crap'
p1308
g8
tp1309
I3
s(S'hectic'
p1310
g2
tp1311
I3
s(S'Daily'
p1312
g5
tp1313
I3
s(S'TIght/small'
p1314
g2
tp1315
I3
s(S'competition'
p1316
g8
tp1317
I3
s(S'intimidation'
p1318
g8
tp1319
I3
s(S'Relatively'
p1320
g5
tp1321
I3
s(S'different'
p1322
g2
tp1323
I31
s(S'critical'
p1324
g2
tp1325
I3
s(S'Often'
p1326
g5
tp1327
I3
s(S'conceptual'
p1328
g2
tp1329
I3
s(S'upstairs'
p1330
g77
tp1331
I3
s(S'intellectual'
p1332
g2
tp1333
I4
s(S'average'
p1334
g2
tp1335
I10
s(S'Benifits'
p1336
g77
tp1337
I3
s(S'personal'
p1338
g2
tp1339
I11
s(S'steadily'
p1340
g5
tp1341
I4
s(S'automotive'
p1342
g2
tp1343
I6
s(S'responsible'
p1344
g2
tp1345
I3
s(S'public'
p1346
g2
tp1347
I6
s(S'difficult'
p1348
g2
tp1349
I3
s(S'little'
p1350
g5
tp1351
I7
s(S'development/training'
p1352
g2
tp1353
I3
s(S'Vertical'
p1354
g2
tp1355
I3
s(S'additional'
p1356
g2
tp1357
I5
s(S'flexible'
p1358
g2
tp1359
I28
s(S'immediate'
p1360
g2
tp1361
I5
s(S'engineers'
p1362
g77
tp1363
I3
s(S'friendly'
p1364
g2
tp1365
I4
s(S'conservative'
p1366
g2
tp1367
I5
s(S'sucks'
p1368
g77
tp1369
I3
s(S'various'
p1370
g2
tp1371
I6
s(S'brands'
p1372
g77
tp1373
I3
s(S'actual'
p1374
g2
tp1375
I6
s(S'Innovative'
p1376
g2
tp1377
I3
s(S'transistion'
p1378
g8
tp1379
I3
s(S'pleasant'
p1380
g2
tp1381
I4
s(S'Little'
p1382
g5
tp1383
I3
s(S'last'
p1384
g2
tp1385
I3
s(S'Consistently'
p1386
g5
tp1387
I3
s(S'ship'
p1388
g8
tp1389
I5
s(S'package'
p1390
g8
tp1391
I3
s(S'complain'
p1392
g8
tp1393
I3
s(S'mora'
p1394
g8
tp1395
I3
s(S'busy'
p1396
g2
tp1397
I3
s(S'affordable'
p1398
g2
tp1399
I3
s(S'roles'
p1400
g77
tp1401
I3
s(S'white'
p1402
g2
tp1403
I3
s(S'Positive'
p1404
g2
tp1405
I5
s(S'totally'
p1406
g5
tp1407
I3
s(S'holidays'
p1408
g77
tp1409
I3
s(S'really'
p1410
g5
tp1411
I10
s(S'useful'
p1412
g2
tp1413
I3
s(S'people'
p1414
g77
tp1415
I14
s(S'bonus'
p1416
g8
tp1417
I4
s(S'security'
p1418
g8
tp1419
I3
s(S'effo'
p1420
g8
tp1421
I3
s(S'reorganizations'
p1422
g77
tp1423
I3
s(S'only'
p1424
g2
tp1425
I4
s(S'vastly'
p1426
g5
tp1427
I3
s(S'normal'
p1428
g2
tp1429
I3
s(S'easy'
p1430
g2
tp1431
I6
s(S'desirable'
p1432
g2
tp1433
I3
s(S"n't"
p1434
g5
tp1435
I64
s(S'European'
p1436
g2
tp1437
I3
s(S'willing'
p1438
g2
tp1439
I3
s(S'improvement'
p1440
g8
tp1441
I8
s(S'same'
p1442
g2
tp1443
I8
s(S'general'
p1444
g2
tp1445
I4
s(S'Highly'
p1446
g5
tp1447
I7
s(S'utterly'
p1448
g5
tp1449
I3
s(S'Family'
p1450
g5
tp1451
I3
s(S'firm-wide'
p1452
g2
tp1453
I3
s(S'opportunites'
p1454
g77
tp1455
I3
s(S'Benefits'
p1456
g77
tp1457
I3
s(S'hierarchical'
p1458
g2
tp1459
I3
s(S'workplace'
p1460
g8
tp1461
I3
s(S'ages'
p1462
g77
tp1463
I3
s(S'time-consuming'
p1464
g2
tp1465
I3
s(S'dynamic'
p1466
g2
tp1467
I3
s(S'abundant'
p1468
g2
tp1469
I3
s(S'fast'
p1470
g5
tp1471
I3
s(S'profitable'
p1472
g2
tp1473
I3
s(S'British'
p1474
g2
tp1475
I3
s(S'product'
p1476
g8
tp1477
I3
s(S'continuous'
p1478
g2
tp1479
I3
s(S'Zone'
p1480
g8
tp1481
I3
s(S'too'
p1482
g5
tp1483
I31
s(S'corporate'
p1484
g2
tp1485
I23
s(S'regional'
p1486
g2
tp1487
I4
s(S'early'
p1488
g2
tp1489
I5
s(S'game'
p1490
g8
tp1491
I4
s(S'most'
p1492
S'RBS'
p1493
tp1494
I4
s(S'ride'
p1495
g8
tp1496
I3
s(S'ever-increasing'
p1497
g2
tp1498
I3
s(S'unit'
p1499
g8
tp1500
I3
s(S'Corporation'
p1501
g8
tp1502
I3
s(S'political'
p1503
g2
tp1504
I9
s(S'change'
p1505
g8
tp1506
I4
s(S'areas'
p1507
g77
tp1508
I4
s(S'pervasive'
p1509
g2
tp1510
I3
s(S'intern'
p1511
g2
tp1512
I3
s(S'economy'
p1513
g8
tp1514
I3
s(S'environment'
p1515
g8
tp1516
I10
s(S'togather'
p1517
g8
tp1518
I3
s(S'fellow'
p1519
g2
tp1520
I3
s(S'training'
p1521
g8
tp1522
I6
s(S'sometimes'
p1523
g5
tp1524
I9
s(S'individual'
p1525
g2
tp1526
I9
s(S'irregular'
p1527
g2
tp1528
I3
s(S'work/life'
p1529
g2
tp1530
I5
s(S'-Workable'
p1531
g2
tp1532
I3
s(S'banking'
p1533
g8
tp1534
I3
s(S'clueless'
p1535
g8
tp1536
I3
s(S'raises'
p1537
g77
tp1538
I3
s(S'research'
p1539
g8
tp1540
I3
s(S'charitable'
p1541
g2
tp1542
I3
s(S'partly'
p1543
g5
tp1544
I3
s(S'innovation'
p1545
g8
tp1546
I3
s(S'Incentive'
p1547
g2
tp1548
I3
s(S'impossible'
p1549
g2
tp1550
I3
s(S'impersonal'
p1551
g2
tp1552
I3
s(S'politics'
p1553
g77
tp1554
I7
s(S'monetary'
p1555
g2
tp1556
I3
s(S'short'
p1557
g2
tp1558
I9
s(S'contractors'
p1559
g77
tp1560
I4
s(S'overwork/overstressed'
p1561
g2
tp1562
I3
s(S'offer'
p1563
g8
tp1564
I3
s(S'considerate'
p1565
g2
tp1566
I3
s(S'Extremely'
p1567
g5
tp1568
I5
s(S'4-day'
p1569
g2
tp1570
I4
s(S'current'
p1571
g2
tp1572
I9
s(S'silo'
p1573
g5
tp1574
I3
s(S'supervisiors'
p1575
g77
tp1576
I3
s(S'competitors'
p1577
g77
tp1578
I3
s(S'only'
p1579
g5
tp1580
I11
s(S'+year'
p1581
g2
tp1582
I3
s(S'better'
p1583
g222
tp1584
I4
s(S'else'
p1585
g5
tp1586
I3
s(S'Medical'
p1587
g2
tp1588
I3
s(S'team-oriented'
p1589
g2
tp1590
I3
s(S'b'
p1591
g5
tp1592
I3
s(S'homeless'
p1593
g2
tp1594
I3
s(S'price'
p1595
g8
tp1596
I4
s(S'toyota'
p1597
g8
tp1598
I3
s(S'departmentalize'
p1599
g8
tp1600
I3
s(S'Fantastic'
p1601
g2
tp1602
I3
s(S'managers.And'
p1603
g2
tp1604
I3
s(S'acceptable'
p1605
g2
tp1606
I3
s(S'aspect'
p1607
g8
tp1608
I3
s(S'Politically'
p1609
g5
tp1610
I3
s(S'-Poor'
p1611
g2
tp1612
I3
s(S'direct'
p1613
g2
tp1614
I4
s(S'managerial'
p1615
g2
tp1616
I3
s(S'superior'
p1617
g2
tp1618
I4
s(S'sears'
p1619
g77
tp1620
I4
s(S'tremendous'
p1621
g2
tp1622
I4
s(S'wildly'
p1623
g5
tp1624
I3
s(S'Repetitive'
p1625
g2
tp1626
I3
s(S'lines.Your'
p1627
g2
tp1628
I3
s(S'times'
p1629
g77
tp1630
I6
s(S'first'
p1631
g2
tp1632
I9
s(S'ergonomics'
p1633
g77
tp1634
I3
s(S'High'
p1635
g2
tp1636
I12
s(S'crises'
p1637
g77
tp1638
I3
s(S'process'
p1639
g8
tp1640
I6
s(S'mirrors'
p1641
g77
tp1642
I3
s(S'then'
p1643
g5
tp1644
I4
s(S'not-so-great'
p1645
g2
tp1646
I3
s(S'potential'
p1647
g2
tp1648
I5
s(S'negative'
p1649
g2
tp1650
I9
s(S'stores'
p1651
g77
tp1652
I3
s(S'again'
p1653
g5
tp1654
I3
s(S'end'
p1655
g8
tp1656
I4
s(S'progress'
p1657
g8
tp1658
I3
s(S'flexibility'
p1659
g8
tp1660
I3
s(S'recently'
p1661
g5
tp1662
I3
s(S'environme'
p1663
g8
tp1664
I3
s(S'fair'
p1665
g2
tp1666
I5
s(S'something'
p1667
g8
tp1668
I4
s(S'Continuously'
p1669
g5
tp1670
I3
s(S'movement'
p1671
g8
tp1672
I3
s(S'enough'
p1673
g5
tp1674
I7
s(S'entire'
p1675
g2
tp1676
I4
s(S'local'
p1677
g2
tp1678
I7
s(S'Looks'
p1679
g77
tp1680
I3
s(S'challenge'
p1681
g8
tp1682
I3
s(S'centers'
p1683
g77
tp1684
I3
s(S'macroscopic'
p1685
g2
tp1686
I3
s(S'manner'
p1687
g8
tp1688
I3
s(S'ideas'
p1689
g77
tp1690
I3
s(S'maintain'
p1691
g5
tp1692
I3
s(S'Internship'
p1693
g8
tp1694
I3
s(S'large-scale'
p1695
g2
tp1696
I3
s(S'delays'
p1697
g77
tp1698
I3
s(S'painless'
p1699
g8
tp1700
I3
s(S'vision'
p1701
g8
tp1702
I3
s(S'stability'
p1703
g8
tp1704
I3
s(S'house'
p1705
g8
tp1706
I3
s(S'national'
p1707
g2
tp1708
I4
s(S'ethical'
p1709
g2
tp1710
I3
s(S'processes'
p1711
g77
tp1712
I4
s(S'Personal'
p1713
g2
tp1714
I5
s(S'company'
p1715
g8
tp1716
I34
s(S'boa'
p1717
g8
tp1718
I3
s(S'downsides'
p1719
g77
tp1720
I3
s(S'positions'
p1721
g77
tp1722
I3
s(S'workweek'
p1723
g8
tp1724
I3
s(S'future'
p1725
g2
tp1726
I5
s(S'them.I'
p1727
g2
tp1728
I3
s(S'grow'
p1729
g8
tp1730
I4
s(S'Under-appreciated'
p1731
g2
tp1732
I3
s(S'huge'
p1733
g2
tp1734
I8
s(S'name'
p1735
g8
tp1736
I3
s(S'dogs'
p1737
g77
tp1738
I3
s(S'never'
p1739
g5
tp1740
I14
s(S'arrogant'
p1741
g2
tp1742
I3
s(S'profile'
p1743
g8
tp1744
I3
s(S'movemoent'
p1745
g2
tp1746
I3
s(S'numbingly'
p1747
g5
tp1748
I3
s(S'constant'
p1749
g2
tp1750
I10
s(S'sometime'
p1751
g2
tp1752
I3
s(S'way'
p1753
g8
tp1754
I3
s(S'often'
p1755
g5
tp1756
I4
s(S'challenges'
p1757
g77
tp1758
I5
s(S'Retail'
p1759
g2
tp1760
I4
s(S'monthly'
p1761
g5
tp1762
I3
s(S'laid'
p1763
g2
tp1764
I3
s(S'needs'
p1765
g77
tp1766
I4
s(S'leadership'
p1767
g8
tp1768
I3
s(S'mentorship/training'
p1769
g2
tp1770
I3
s(S'tx'
p1771
g8
tp1772
I3
s(S'positive'
p1773
g2
tp1774
I6
s(S'technologies'
p1775
g77
tp1776
I3
s(S'common'
p1777
g2
tp1778
I4
s(S'mutual'
p1779
g2
tp1780
I3
s(S'soon-to-be-completed'
p1781
g2
tp1782
I3
s(S'place'
p1783
g8
tp1784
I5
s(S'prioritized'
p1785
g2
tp1786
I3
s(S'not'
p1787
g5
tp1788
I95
s(S'leaders'
p1789
g77
tp1790
I3
s(S'in-house'
p1791
g2
tp1792
I3
s(S'organic'
p1793
g2
tp1794
I3
s(S'Junior-level'
p1795
g2
tp1796
I3
s(S'ta'
p1797
g8
tp1798
I3
s(S'Part-time'
p1799
g2
tp1800
I3
s(S'particular'
p1801
g2
tp1802
I3
s(S'industry'
p1803
g8
tp1804
I7
s(S'true'
p1805
g2
tp1806
I3
s(S'Corporate'
p1807
g2
tp1808
I5
s(S'nice'
p1809
g2
tp1810
I11
s(S'compensation'
p1811
g8
tp1812
I4
s(S'ending'
p1813
g8
tp1814
I3
s(S'bag'
p1815
g8
tp1816
I3
s(S'('
p1817
g8
tp1818
I4
s(S'supportive'
p1819
g2
tp1820
I6
s(S'group'
p1821
g8
tp1822
I3
s(S'terrible'
p1823
g2
tp1824
I6
s(S'cafeteria,'
p1825
g8
tp1826
I3
s(S'chase'
p1827
g8
tp1828
I3
s(S'hires'
p1829
g77
tp1830
I3
s(S'limited'
p1831
g2
tp1832
I3
s(S'Short'
p1833
g2
tp1834
I3
s(S'unclear'
p1835
g2
tp1836
I3
s(S'human'
p1837
g2
tp1838
I3
s(S'money'
p1839
g8
tp1840
I3
s(S'deplorable'
p1841
g2
tp1842
I3
s(S'blocks'
p1843
g77
tp1844
I3
s(S'friendly'
p1845
g5
tp1846
I3
s(S'unstoppable'
p1847
g2
tp1848
I3
s(S'job'
p1849
g8
tp1850
I9
s(S'central'
p1851
g2
tp1852
I3
s(S'properly'
p1853
g5
tp1854
I3
s(S'ample'
p1855
g2
tp1856
I4
s(S'stressful'
p1857
g2
tp1858
I6
s(S'probably'
p1859
g5
tp1860
I3
s(S'basic'
p1861
g2
tp1862
I5
s(S'autocratic'
p1863
g2
tp1864
I3
s(S'*Better'
p1865
g2
tp1866
I3
s.