(dp0
S'limited'
p1
(lp2
I1
aI1
aI2
aI2
asS'sales'
p3
(lp4
I1
aI2
aI3
aI4
asS'global'
p5
(lp6
I1
aF13.304350000000003
aF3.9710100000000002
aI11
asS'skin'
p7
(lp8
I1
aI1
aF1.9710100000000002
aI2
asS'messy'
p9
(lp10
I1
aI1
aI2
aI2
asS'abundant'
p11
(lp12
I1
aI1
aF2.9855100000000001
aI2
asS'centers'
p13
(lp14
I1
aI1
aI2
aI2
asS'poorly'
p15
(lp16
I1
aI2
aI1
aI2
asS'good/bad'
p17
(lp18
I1
aI2
aI1
aI2
asS'crises'
p19
(lp20
I1
aI1
aI2
aI2
asS'numbingly'
p21
(lp22
I1
aI2
aI1
aI2
asS'opportunities'
p23
(lp24
I1
aF8.1159400000000002
aI1
aI4
asS'environment'
p25
(lp26
I1
aF5.0
aI1
aI3
asS'*Great'
p27
(lp28
I1
aF2.0434800000000002
aI1
aI2
asS'th'
p29
(lp30
I1
aF4.0
aI1
aI2
asS'stable'
p31
(lp32
I1
aF2.0434800000000002
aI1
aI2
asS'Not'
p33
(lp34
I1
aF3.0434800000000002
aF8.9855099999999997
aI10
asS'friendly'
p35
(lp36
I1
aF4.0
aF2.9710100000000002
aI4
asS'Benifits'
p37
(lp38
I1
aF3.0579700000000001
aI1
aI2
asS'activities'
p39
(lp40
I1
aI1
aI2
aI2
asS'very'
p41
(lp42
I1
aF31.782610000000005
aF30.927529999999997
aI49
asS'regional'
p43
(lp44
I1
aI1
aI2
aI2
asS'time-off'
p45
(lp46
I1
aF2.0434800000000002
aI1
aI2
asS'vastly'
p47
(lp48
I1
aF2.0434800000000002
aI1
aI2
asS'exact'
p49
(lp50
I1
aI1
aI2
aI2
asS'cool'
p51
(lp52
I1
aF5.1159400000000002
aF2.9855100000000001
aI4
asS'school'
p53
(lp54
I1
aF3.0869600000000004
aI1
aI3
asS'internally'
p55
(lp56
I1
aF2.0434800000000002
aI3
aI4
asS'level'
p57
(lp58
I1
aF3.0579700000000001
aI3
aI4
asS'positions'
p59
(lp60
I1
aF3.0579700000000001
aI1
aI2
asS'Global'
p61
(lp62
I1
aF4.1014499999999998
aI1
aI3
asS'large'
p63
(lp64
I1
aF14.376820000000006
aF4.9710099999999997
aI14
asS'Innovative'
p65
(lp66
I1
aF3.0579700000000001
aI1
aI2
asS'quick'
p67
(lp68
I1
aI1
aF1.9710100000000002
aI2
asS'deplorable'
p69
(lp70
I1
aI1
aF1.9710100000000002
aI2
asS'ride'
p71
(lp72
I1
aF2.0434800000000002
aI1
aI2
asS'upper'
p73
(lp74
I1
aF4.0579700000000001
aF4.9710099999999997
aI7
asS'pragmatic'
p75
(lp76
I1
aF4.0
aI1
aI2
asS'direct'
p77
(lp78
I1
aI1
aI2
aI2
asS'Long'
p79
(lp80
I1
aF3.0579700000000001
aI5
aI6
asS'second'
p81
(lp82
I1
aF3.0869600000000004
aI1
aI3
asS'street'
p83
(lp84
I1
aI1
aI2
aI2
asS'perspective'
p85
(lp86
I1
aF3.0579700000000001
aI1
aI2
asS'casual'
p87
(lp88
I1
aF3.0579700000000001
aF1.9710100000000002
aI3
asS'even'
p89
(lp90
I1
aI2
aI4
aI5
asS'hourly'
p91
(lp92
I1
aF4.1014499999999998
aI1
aI3
asS'transistion'
p93
(lp94
I1
aF2.0434800000000002
aI1
aI2
asS'stressful'
p95
(lp96
I1
aF4.1014499999999998
aI1
aI3
asS'resume'
p97
(lp98
I1
aI1
aF1.9710100000000002
aI2
asS'current'
p99
(lp100
I1
aI3
aF2.9710100000000002
aI5
asS'bonuses'
p101
(lp102
I1
aI1
aI2
aI2
asS'new'
p103
(lp104
I1
aF20.260870000000001
aF6.9130300000000009
aI17
asS'firms'
p105
(lp106
I1
aI1
aI2
aI2
asS'European'
p107
(lp108
I1
aF3.0579700000000001
aI1
aI2
asS'ever'
p109
(lp110
I1
aF8.0434800000000006
aI2
aI5
asS'Short'
p111
(lp112
I1
aI1
aI2
aI2
asS'never'
p113
(lp114
I1
aF6.0
aI3
aI6
asS'here'
p115
(lp116
I1
aF5.0434800000000006
aI1
aI3
asS'hours'
p117
(lp118
I1
aF5.1159400000000002
aF2.9420200000000003
aI5
asS'slow'
p119
(lp120
I1
aI1
aI6
aI6
asS'expansion'
p121
(lp122
I1
aI1
aI2
aI2
asS'strong'
p123
(lp124
I1
aF7.1594199999999999
aF1.9710100000000002
aI6
asS'change'
p125
(lp126
I1
aF2.0434800000000002
aI2
aI3
asS'great'
p127
(lp128
I1
aF116.62320999999999
aF11.81157
aI75
asS'talent'
p129
(lp130
I1
aF2.0434800000000002
aI1
aI2
asS'work/life'
p131
(lp132
I1
aF4.0
aI1
aI2
asS'noticeable'
p133
(lp134
I1
aI1
aI2
aI2
asS'technical'
p135
(lp136
I1
aF11.173909999999999
aI2
aI7
asS'employees'
p137
(lp138
I1
aF7.1014499999999998
aF6.9565199999999994
aI9
asS'Repetitive'
p139
(lp140
I1
aI1
aI2
aI2
asS'completely'
p141
(lp142
I1
aI1
aI2
aI2
asS'experience'
p143
(lp144
I1
aF11.21739
aF2.9420200000000003
aI8
asS'-Slow'
p145
(lp146
I1
aI1
aI2
aI2
asS'products'
p147
(lp148
I1
aF3.0579700000000001
aF2.9420200000000003
aI4
asS'social'
p149
(lp150
I1
aF3.0579700000000001
aI4
aI5
asS'Organizational'
p151
(lp152
I1
aI1
aI2
aI2
asS'boa'
p153
(lp154
I1
aF4.0
aI1
aI2
asS'changes'
p155
(lp156
I1
aI1
aI2
aI2
asS'genuinely'
p157
(lp158
I1
aF3.0579700000000001
aI1
aI2
asS'fantastic'
p159
(lp160
I1
aF3.0869600000000004
aI1
aI3
asS'useful'
p161
(lp162
I1
aF2.0434800000000002
aI1
aI2
asS'signifcant'
p163
(lp164
I1
aF2.0434800000000002
aI1
aI2
asS'highly'
p165
(lp166
I1
aF2.0434800000000002
aI2
aI3
asS'flexibility'
p167
(lp168
I1
aF3.0579700000000001
aI1
aI2
asS'moral'
p169
(lp170
I1
aI1
aI2
aI2
asS'names'
p171
(lp172
I1
aF2.0434800000000002
aI1
aI2
asS'total'
p173
I0
sS'market'
p174
(lp175
I1
aF6.1594199999999999
aI1
aI4
asS'sub-par'
p176
(lp177
I1
aI1
aI2
aI2
asS'Overall'
p178
(lp179
I1
aF4.1014499999999998
aI1
aI3
asS'negative'
p180
(lp181
I1
aF2.0434800000000002
aI4
aI5
asS'next'
p182
(lp183
I1
aI2
aI1
aI2
asS'few'
p184
(lp185
I1
aF5.1449300000000004
aI7
aI10
asS'minor'
p186
(lp187
I1
aF2.0434800000000002
aI1
aI2
asS'more'
p188
(lp189
I1
aF4.0
aI4
aI5
asS'bureaucracy'
p190
(lp191
I1
aF4.1014499999999998
aI1
aI3
asS'Benefits'
p192
(lp193
I1
aF3.0579700000000001
aI1
aI2
asS'pretty'
p194
(lp195
I1
aF6.1594199999999999
aI1
aI4
asS'silo'
p196
(lp197
I1
aI1
aI2
aI2
asS'company'
p198
(lp199
I1
aF25.579710000000002
aF4.9710099999999997
aI18
asS'Fantastic'
p200
(lp201
I1
aF3.0579700000000001
aI1
aI2
asS'Work-life'
p202
(lp203
I1
aF2.0434800000000002
aI1
aI2
asS'particular'
p204
(lp205
I1
aF4.0
aI1
aI2
asS'actual'
p206
(lp207
I1
aF3.0579700000000001
aI2
aI3
asS'Retail'
p208
(lp209
I1
aI1
aI2
aI2
asS'customer'
p210
(lp211
I1
aF4.0
aF2.9420200000000003
aI4
asS'Strong'
p212
(lp213
I1
aF7.1739100000000002
aI2
aI5
asS'Financial'
p214
(lp215
I1
aF2.0434800000000002
aI1
aI2
asS'middle'
p216
(lp217
I1
aI1
aI2
aI2
asS'German'
p218
(lp219
I1
aI1
aF1.9710100000000002
aI2
asS'local'
p220
(lp221
I1
aF3.0579700000000001
aI2
aI3
asS'challenge'
p222
(lp223
I1
aF2.0434800000000002
aI1
aI2
asS'work'
p224
(lp225
I1
aF3.0869600000000004
aF5.9710099999999997
aI8
asS'sucks'
p226
(lp227
I1
aI1
aI2
aI2
asS'worth'
p228
(lp229
I1
aF2.0434800000000002
aI1
aI2
asS'male'
p230
(lp231
I1
aI1
aI2
aI2
asS'mirrors'
p232
(lp233
I1
aI1
aF1.9710100000000002
aI2
asS'process'
p234
(lp235
I1
aF3.0579700000000001
aF2.9710100000000002
aI4
asS'Positive'
p236
(lp237
I1
aF3.0579700000000001
aI1
aI2
asS'Constantly'
p238
(lp239
I1
aI1
aF1.9710100000000002
aI2
asS'promotional'
p240
(lp241
I1
aI1
aI3
aI3
asS'high'
p242
(lp243
I1
aF16.217390000000002
aF7.9855099999999997
aI15
asS'effectively'
p244
(lp245
I1
aI1
aI2
aI2
asS'Under-appreciated'
p246
(lp247
I1
aF2.0434800000000002
aI1
aI2
asS'minimum'
p248
(lp249
I1
aI2
aI1
aI2
asS'something'
p250
(lp251
I1
aF7.0
aI1
aI3
asS'gas'
p252
(lp253
I1
aI1
aF2.9855100000000001
aI2
asS'sharp'
p254
(lp255
I1
aF2.0434800000000002
aI1
aI2
asS'Years'
p256
(lp257
I1
aF3.0579700000000001
aI1
aI2
asS'huge'
p258
(lp259
I1
aI1
aI5
aI5
asS'needs'
p260
(lp261
I1
aF4.0
aI2
aI3
asS'redundancy'
p262
(lp263
I1
aI1
aI2
aI2
asS'end'
p264
(lp265
I1
aI1
aI2
aI2
asS'departments'
p266
(lp267
I1
aI1
aI3
aI3
asS'travel'
p268
(lp269
I1
aI1
aF1.9710100000000002
aI2
asS'far'
p270
(lp271
I1
aI1
aI2
aI2
asS'-Ignorant/impatient/rude'
p272
(lp273
I1
aI1
aI2
aI2
asS'Significant'
p274
(lp275
I1
aF2.0434800000000002
aI1
aI2
asS'optimal'
p276
(lp277
I1
aI1
aI2
aI2
asS'economy'
p278
(lp279
I1
aI1
aI2
aI2
asS'product'
p280
(lp281
I1
aF4.0
aI1
aI2
asS'okay'
p282
(lp283
I1
aF2.0434800000000002
aI1
aI2
asS'traditional'
p284
(lp285
I1
aI1
aI2
aI2
asS'Technical'
p286
(lp287
I1
aF3.0579700000000001
aI1
aI2
asS'Always'
p288
(lp289
I1
aI1
aI2
aI2
asS'educational'
p290
(lp291
I1
aF3.0579700000000001
aI1
aI2
asS'demanding'
p292
(lp293
I1
aF3.0579700000000001
aI1
aI2
asS'chiefs'
p294
(lp295
I1
aF2.0434800000000002
aI1
aI2
asS'such'
p296
(lp297
I1
aI1
aI2
aI2
asS'movemoent'
p298
(lp299
I1
aF2.0434800000000002
aI1
aI2
asS'Corporate'
p300
(lp301
I1
aF5.1159400000000002
aI2
aI4
asS'grow'
p302
(lp303
I1
aF3.0579700000000001
aI1
aI2
asS'unbelievably'
p304
(lp305
I1
aI2
aI1
aI2
asS'Large'
p306
(lp307
I1
aF10.333340000000002
aI4
aI11
asS'short'
p308
(lp309
I1
aF2.0434800000000002
aI3
aI4
asS'third'
p310
(lp311
I1
aI1
aI2
aI2
asS'Competitive'
p312
(lp313
I1
aF3.0579700000000001
aI1
aI2
asS'inform'
p314
(lp315
I1
aI1
aI2
aI2
asS'maintain'
p316
(lp317
I1
aI1
aI2
aI2
asS'so'
p318
(lp319
I1
aF6.1884100000000002
aI3
aI7
asS'fundamental'
p320
(lp321
I1
aI1
aF1.9710100000000002
aI2
asS'banks'
p322
(lp323
I1
aF2.0434800000000002
aI1
aI2
asS'geographic'
p324
(lp325
I1
aF4.0
aI1
aI2
asS'stre'
p326
(lp327
I1
aF4.0
aI1
aI2
asS'typical'
p328
(lp329
I1
aI1
aI2
aI2
asS'operations'
p330
(lp331
I1
aI1
aI2
aI2
asS'ever-changing'
p332
(lp333
I1
aF2.0434800000000002
aI1
aI2
asS'insight'
p334
(lp335
I1
aI1
aF1.9710100000000002
aI2
asS'mission'
p336
(lp337
I1
aF3.0579700000000001
aI1
aI2
asS'Opportunities'
p338
(lp339
I1
aI1
aF1.9710100000000002
aI2
asS'years'
p340
(lp341
I1
aF2.0434800000000002
aF2.9710100000000002
aI4
asS'innovative'
p342
(lp343
I1
aI1
aF1.9710100000000002
aI2
asS'responsive'
p344
(lp345
I1
aF4.0
aI1
aI2
asS'still'
p346
(lp347
I1
aF4.1014499999999998
aI1
aI3
asS'group'
p348
(lp349
I1
aF3.0579700000000001
aI1
aI2
asS'la'
p350
(lp351
I1
aF2.0434800000000002
aI1
aI2
asS'personal'
p352
(lp353
I1
aF5.0434800000000006
aF3.9710100000000002
aI6
asS'interesting'
p354
(lp355
I1
aF10.231890000000002
aF1.9710100000000002
aI8
asS'lateral'
p356
(lp357
I1
aF4.0579700000000001
aI1
aI3
asS'recreational'
p358
(lp359
I1
aI1
aI2
aI2
asS'actually'
p360
(lp361
I1
aI1
aF3.9855100000000001
aI3
asS'better'
p362
(lp363
I1
aI1
aI3
aI3
asS'main'
p364
(lp365
I1
aF3.0579700000000001
aI1
aI2
asS'then'
p366
(lp367
I1
aF2.0434800000000002
aI2
aI3
asS'good'
p368
(lp369
I1
aF122.10147999999998
aF32.52169
aI100
asS'average'
p370
(lp371
I1
aF9.21739
aI1
aI6
asS'intimidation'
p372
(lp373
I1
aI1
aF1.9710100000000002
aI2
asS'primary'
p374
(lp375
I1
aI1
aI2
aI2
asS'lunch'
p376
(lp377
I1
aI1
aI2
aI2
asS'Bad'
p378
(lp379
I1
aI2
aI1
aI2
asS'Banker'
p380
(lp381
I1
aF4.1014499999999998
aI1
aI3
asS'not'
p382
(lp383
I1
aF27.43479
aF34.84057
aI53
asS'now'
p384
(lp385
I1
aI2
aI1
aI2
asS'lifelong'
p386
(lp387
I1
aI1
aF3.9565200000000003
aI3
asS'bank'
p388
(lp389
I1
aF3.0579700000000001
aI1
aI2
asS'easily'
p390
(lp391
I1
aI1
aI2
aI2
asS'mentorship/training'
p392
(lp393
I1
aI1
aI2
aI2
asS'name'
p394
(lp395
I1
aF2.0434800000000002
aI1
aI2
asS'always'
p396
(lp397
I1
aF6.0434800000000006
aF6.9710099999999997
aI10
asS'not-so-great'
p398
(lp399
I1
aF3.0579700000000001
aI1
aI2
asS'4-day'
p400
(lp401
I1
aF3.0869600000000004
aI1
aI3
asS'sour-tasting'
p402
(lp403
I1
aI1
aI2
aI2
asS'reasonable'
p404
(lp405
I1
aF5.1159400000000002
aI1
aI3
asS'everyone'
p406
(lp407
I1
aF2.0434800000000002
aI1
aI2
asS'financial'
p408
(lp409
I1
aF8.1449300000000004
aI2
aI6
asS'mental'
p410
(lp411
I1
aI2
aI1
aI2
asS'hard'
p412
(lp413
I1
aF3.0869600000000004
aF2.9710100000000002
aI5
asS'sears'
p414
(lp415
I1
aF2.0434800000000002
aF1.9710100000000002
aI3
asS'investigative'
p416
(lp417
I1
aF2.0434800000000002
aI1
aI2
asS'year'
p418
(lp419
I1
aI1
aI2
aI2
asS'blocks'
p420
(lp421
I1
aI1
aI2
aI2
asS'really'
p422
(lp423
I1
aF3.0869600000000004
aI2
aI4
asS'initiatives'
p424
(lp425
I1
aI1
aI2
aI2
asS'leads.Your'
p426
(lp427
I1
aI2
aI1
aI2
asS'research'
p428
(lp429
I1
aF3.0579700000000001
aI1
aI2
asS'laid'
p430
(lp431
I1
aI1
aF1.9710100000000002
aI2
asS'stuff'
p432
(lp433
I1
aI1
aF2.9710100000000002
aI3
asS'technically'
p434
(lp435
I1
aF3.0579700000000001
aI1
aI2
asS'merchandising'
p436
(lp437
I1
aI1
aF1.9710100000000002
aI2
asS'interactions'
p438
(lp439
I1
aI1
aF1.9710100000000002
aI2
asS'Sometimes'
p440
(lp441
I1
aI1
aI2
aI2
asS'Junior-level'
p442
(lp443
I1
aI1
aI2
aI2
asS'free'
p444
(lp445
I1
aF4.1014499999999998
aF4.9565200000000003
aI6
asS'quite'
p446
(lp447
I1
aI1
aI3
aI3
asS'pleasant'
p448
(lp449
I1
aF3.0579700000000001
aI1
aI2
asS'small'
p450
(lp451
I1
aI1
aI2
aI2
asS'inwardly'
p452
(lp453
I1
aF2.0434800000000002
aI1
aI2
asS'onsite'
p454
(lp455
I1
aF2.0434800000000002
aI1
aI2
asS'training'
p456
(lp457
I1
aF7.0
aI1
aI3
asS'organic'
p458
(lp459
I1
aI1
aI2
aI2
asS'People'
p460
(lp461
I1
aF3.0579700000000001
aI1
aI2
asS'computers'
p462
(lp463
I1
aI1
aI2
aI2
asS'days'
p464
(lp465
I1
aI1
aI2
aI2
asS'times'
p466
(lp467
I1
aF2.0434800000000002
aI2
aI3
asS'retail'
p468
(lp469
I1
aF13.275360000000001
aI8
aI14
asS'first'
p470
(lp471
I1
aF5.1739200000000007
aI2
aI6
asS'Huge'
p472
(lp473
I1
aF4.0
aI2
aI3
asS'major'
p474
(lp475
I1
aI1
aI2
aI2
asS'there'
p476
(lp477
I1
aF3.0434800000000002
aI2
aI4
asS'under-controlled'
p478
(lp479
I1
aI1
aI2
aI2
asS'number'
p480
(lp481
I1
aF2.0434800000000002
aI1
aI2
asS'strategic'
p482
(lp483
I1
aF3.0579700000000001
aI2
aI3
asS'fast'
p484
(lp485
I1
aF4.1014499999999998
aI1
aI3
asS'impossible'
p486
(lp487
I1
aF4.0
aI1
aI2
asS'blows'
p488
(lp489
I1
aI1
aF1.9710100000000002
aI2
asS'open'
p490
(lp491
I1
aF3.0579700000000001
aI1
aI2
asS'little'
p492
(lp493
I1
aF4.0869600000000004
aI4
aI7
asS'management'
p494
(lp495
I1
aF11.318840000000002
aI2
aI8
asS'service'
p496
(lp497
I1
aF4.0
aI2
aI3
asS'privacy'
p498
(lp499
I1
aI1
aI2
aI2
asS'fumbly'
p500
(lp501
I1
aF2.0434800000000002
aI1
aI2
asS'top'
p502
(lp503
I1
aF9.2608700000000006
aF2.9710100000000002
aI8
asS'wonderful'
p504
(lp505
I1
aF3.0869600000000004
aI1
aI3
asS'too'
p506
(lp507
I1
aF13.434790000000003
aF10.97101
aI20
asS'white'
p508
(lp509
I1
aI1
aI2
aI2
asS'dogs'
p510
(lp511
I1
aI1
aI2
aI2
asS'pervasive'
p512
(lp513
I1
aI1
aI2
aI2
asS'paltry'
p514
(lp515
I1
aF2.0434800000000002
aI1
aI2
asS'mostly'
p516
(lp517
I1
aF2.0434800000000002
aI1
aI2
asS'continuous'
p518
(lp519
I1
aI2
aI1
aI2
asS'-Poor'
p520
(lp521
I1
aI1
aI2
aI2
asS'immediate'
p522
(lp523
I1
aI1
aI2
aI2
asS'Oddly'
p524
(lp525
I1
aF2.0434800000000002
aI1
aI2
asS'unrealistic'
p526
(lp527
I1
aI1
aI2
aI2
asS'Important'
p528
(lp529
I1
aI1
aI2
aI2
asS'wide'
p530
(lp531
I1
aF4.1014499999999998
aF1.9710100000000002
aI4
asS'b'
p532
(lp533
I1
aI1
aF1.9710100000000002
aI2
asS'Enormously'
p534
(lp535
I1
aI1
aF1.9710100000000002
aI2
asS'impersonal'
p536
(lp537
I1
aI2
aI1
aI2
asS'frugal'
p538
(lp539
I1
aF4.0
aI1
aI2
asS'compensation'
p540
(lp541
I1
aI1
aF2.9420200000000003
aI3
asS'future'
p542
(lp543
I1
aF3.0579700000000001
aI1
aI2
asS'Various'
p544
(lp545
I1
aF3.0579700000000001
aI1
aI2
asS'outstanding'
p546
(lp547
I1
aF2.0434800000000002
aI1
aI2
asS'locations'
p548
(lp549
I1
aI1
aF1.9710100000000002
aI2
asS'comfortable'
p550
(lp551
I1
aF6.0579700000000001
aF1.9710100000000002
aI4
asS'Other'
p552
(lp553
I1
aF2.0434800000000002
aI1
aI2
asS'manner'
p554
(lp555
I1
aI2
aI1
aI2
asS'throat'
p556
(lp557
I1
aI1
aI2
aI2
asS'seem'
p558
(lp559
I1
aI1
aI2
aI2
asS'relatively'
p560
(lp561
I1
aF4.1014499999999998
aI1
aI3
asS're-org'
p562
(lp563
I1
aI1
aF1.9710100000000002
aI2
asS'e-commerce'
p564
(lp565
I1
aF3.0579700000000001
aI1
aI2
asS'able'
p566
(lp567
I1
aF3.0579700000000001
aI1
aI2
asS'client'
p568
(lp569
I1
aF3.0579700000000001
aI1
aI2
asS'emphasis'
p570
(lp571
I1
aI1
aI2
aI2
asS'potential'
p572
(lp573
I1
aF4.0
aI1
aI2
asS'autocratic'
p574
(lp575
I1
aI2
aI1
aI2
asS'hires'
p576
(lp577
I1
aI2
aI1
aI2
asS'Work/life'
p578
(lp579
I1
aI1
aI2
aI2
asS'normal'
p580
(lp581
I1
aI1
aI2
aI2
asS'price'
p582
(lp583
I1
aI1
aF2.9855100000000001
aI2
asS'most'
p584
(lp585
I1
aF5.0434800000000006
aI1
aI3
asS'experiences'
p586
(lp587
I1
aF3.0579700000000001
aI2
aI3
asS'significant'
p588
(lp589
I1
aF2.0434800000000002
aI1
aI2
asS'prisoner'
p590
(lp591
I1
aI1
aF2.9855100000000001
aI2
asS'america'
p592
(lp593
I1
aF3.0579700000000001
aI1
aI2
asS'extremely'
p594
(lp595
I1
aF6.0579700000000001
aI1
aI3
asS'salary'
p596
(lp597
I1
aF3.0869600000000004
aI1
aI3
asS'especially'
p598
(lp599
I1
aI1
aI3
aI3
asS'medical'
p600
(lp601
I1
aF2.0434800000000002
aI2
aI3
asS'sometimes'
p602
(lp603
I1
aF3.0579700000000001
aI7
aI8
asS'steady'
p604
(lp605
I1
aI1
aF1.9710100000000002
aI2
asS'departmentalize'
p606
(lp607
I1
aI1
aI2
aI2
asS'High'
p608
(lp609
I1
aF4.0579700000000001
aI4
aI6
asS'charitable'
p610
(lp611
I1
aI1
aF1.9710100000000002
aI2
asS'competitors'
p612
(lp613
I1
aI1
aI2
aI2
asS'definitely'
p614
(lp615
I1
aI2
aI1
aI2
asS'tech'
p616
(lp617
I1
aF3.0579700000000001
aI1
aI2
asS'professional'
p618
(lp619
I1
aF9.1594200000000008
aI1
aI5
asS'senior'
p620
(lp621
I1
aF5.1014499999999998
aI6
aI9
asS'Incredible'
p622
(lp623
I1
aF3.0579700000000001
aI1
aI2
asS'ending'
p624
(lp625
I1
aI1
aF1.9710100000000002
aI2
asS'inflexible'
p626
(lp627
I1
aI1
aI2
aI2
asS'excessive'
p628
(lp629
I1
aF2.0434800000000002
aI1
aI2
asS'rough'
p630
(lp631
I1
aI1
aF1.9710100000000002
aI2
asS'line'
p632
(lp633
I1
aI1
aF2.9420200000000003
aI3
asS'ground'
p634
(lp635
I1
aF3.0579700000000001
aI1
aI2
asS'busy'
p636
(lp637
I1
aI1
aI2
aI2
asS'knowledge'
p638
(lp639
I1
aF2.0434800000000002
aI1
aI2
asS'Internship'
p640
(lp641
I1
aF3.0579700000000001
aI1
aI2
asS'('
p642
(lp643
I1
aI1
aF1.9710100000000002
aI2
asS'delays'
p644
(lp645
I1
aI1
aI2
aI2
asS'heavily'
p646
(lp647
I1
aI1
aI2
aI2
asS'outside'
p648
(lp649
I1
aF3.0579700000000001
aI1
aI2
asS'French'
p650
(lp651
I1
aI1
aF6.9710200000000002
aI5
asS'junior'
p652
(lp653
I1
aI1
aI2
aI2
asS'technologically'
p654
(lp655
I1
aF2.0434800000000002
aI1
aI2
asS'reactive'
p656
(lp657
I1
aI1
aI2
aI2
asS'only'
p658
(lp659
I1
aF5.0434800000000006
aF3.9710100000000002
aI6
asS'tape'
p660
(lp661
I1
aF2.0434800000000002
aI1
aI2
asS'dysfunctional'
p662
(lp663
I1
aI1
aI2
aI2
asS'employee'
p664
(lp665
I1
aF3.0579700000000001
aI1
aI2
asS'adequate'
p666
(lp667
I1
aF3.0579700000000001
aI1
aI2
asS'them.I'
p668
(lp669
I1
aI2
aI1
aI2
asS'-Old'
p670
(lp671
I1
aI1
aI2
aI2
asS'firm-wide'
p672
(lp673
I1
aF2.0434800000000002
aI1
aI2
asS'overall'
p674
(lp675
I1
aF5.1449300000000004
aI4
aI7
asS'lucky'
p676
(lp677
I1
aF2.0434800000000002
aI2
aI3
asS'compartmentalized'
p678
(lp679
I1
aI1
aI2
aI2
asS'downtime'
p680
(lp681
I1
aI1
aI2
aI2
asS'considerate'
p682
(lp683
I1
aF3.0579700000000001
aI1
aI2
asS'areas'
p684
(lp685
I1
aF2.0434800000000002
aI1
aI2
asS'processes'
p686
(lp687
I1
aF2.0434800000000002
aI2
aI3
asS'uncapped'
p688
(lp689
I1
aI1
aI2
aI2
asS'workweek'
p690
(lp691
I1
aF2.0434800000000002
aI1
aI2
asS'banking'
p692
(lp693
I1
aF4.0
aI1
aI2
asS'bad'
p694
(lp695
I1
aF8.2028999999999996
aF8.9420199999999994
aI14
asS'stupid'
p696
(lp697
I1
aI2
aI1
aI2
asS'common'
p698
(lp699
I1
aI1
aI3
aI3
asS'vision'
p700
(lp701
I1
aI1
aI2
aI2
asS'Generous'
p702
(lp703
I1
aI1
aF2.9855100000000001
aI2
asS'human'
p704
(lp705
I1
aI1
aI2
aI2
asS'fair'
p706
(lp707
I1
aF3.0579700000000001
aI1
aI2
asS'national'
p708
(lp709
I1
aF4.1014499999999998
aI1
aI3
asS'culture'
p710
(lp711
I1
aF3.0869600000000004
aI1
aI3
asS'namely'
p712
(lp713
I1
aF2.0434800000000002
aI1
aI2
asS'individual'
p714
(lp715
I1
aF6.0579700000000001
aI3
aI5
asS'college'
p716
(lp717
I1
aF3.0869600000000004
aI1
aI3
asS'are'
p718
(lp719
I1
aI1
aF1.9710100000000002
aI2
asS'REALLY'
p720
(lp721
I1
aI1
aI2
aI2
asS'enough'
p722
(lp723
I1
aF2.0434800000000002
aI3
aI4
asS'routine'
p724
(lp725
I1
aI1
aI2
aI2
asS'conceptual'
p726
(lp727
I1
aF3.0579700000000001
aI1
aI2
asS'probably'
p728
(lp729
I1
aI1
aI2
aI2
asS'affordable'
p730
(lp731
I1
aF2.0434800000000002
aI1
aI2
asS'comparable'
p732
(lp733
I1
aI1
aI2
aI2
asS'recently'
p734
(lp735
I1
aI1
aI2
aI2
asS'weak'
p736
(lp737
I1
aI1
aI2
aI2
asS'however'
p738
(lp739
I1
aI1
aF1.9710100000000002
aI2
asS'unstoppable'
p740
(lp741
I1
aF2.0434800000000002
aI1
aI2
asS'self-serving'
p742
(lp743
I1
aI1
aI2
aI2
asS'job'
p744
(lp745
I1
aI1
aF3.9855100000000001
aI3
asS'affiliates'
p746
(lp747
I1
aI1
aI2
aI2
asS'Reasonable'
p748
(lp749
I1
aF4.0
aI1
aI2
asS'irregular'
p750
(lp751
I1
aI1
aI2
aI2
asS'career'
p752
(lp753
I1
aF3.0579700000000001
aI1
aI2
asS'many'
p754
(lp755
I1
aF31.695669999999996
aF31.927529999999997
aI52
asS'region'
p756
(lp757
I1
aI1
aF1.9710100000000002
aI2
asS'annual'
p758
(lp759
I1
aI1
aI2
aI2
asS'equal'
p760
(lp761
I1
aF4.0
aI1
aI2
asS'business/department'
p762
(lp763
I1
aI1
aI2
aI2
asS'workplace'
p764
(lp765
I1
aI1
aF1.9710100000000002
aI2
asS'-Arrogant'
p766
(lp767
I1
aI2
aI1
aI2
asS'wear'
p768
(lp769
I1
aI1
aI2
aI2
asS'tough'
p770
(lp771
I1
aI1
aI4
aI4
asS'large-scale'
p772
(lp773
I1
aF4.0
aI1
aI2
asS'underqualified'
p774
(lp775
I1
aF2.0434800000000002
aI1
aI2
asS'diff'
p776
(lp777
I1
aF2.0434800000000002
aI1
aI2
asS'bureaucratic'
p778
(lp779
I1
aI1
aI3
aI3
asS'late'
p780
(lp781
I1
aI1
aI2
aI2
asS'raise'
p782
(lp783
I1
aI1
aI2
aI2
asS'tremendous'
p784
(lp785
I1
aF2.0434800000000002
aI1
aI2
asS'trajectory'
p786
(lp787
I1
aF2.0434800000000002
aI1
aI2
asS'political'
p788
(lp789
I1
aF4.0434800000000006
aI1
aI4
asS'much'
p790
(lp791
I1
aF7.1449300000000004
aF10.942019999999999
aI16
asS'teamwork'
p792
(lp793
I1
aI1
aF1.9710100000000002
aI2
asS'basic'
p794
(lp795
I1
aF3.0579700000000001
aI1
aI2
asS'flexible'
p796
(lp797
I1
aF24.594209999999997
aF2.9420200000000003
aI17
asS'life'
p798
(lp799
I1
aI1
aI2
aI2
asS'enable'
p800
(lp801
I1
aF3.0579700000000001
aI1
aI2
asS'partly'
p802
(lp803
I1
aI2
aI1
aI2
asS'cincy'
p804
(lp805
I1
aF3.0579700000000001
aI1
aI2
asS'Sucks'
p806
(lp807
I1
aI1
aF1.9710100000000002
aI2
asS'else'
p808
(lp809
I1
aI1
aI2
aI2
asS'benefits'
p810
(lp811
I1
aF10.173909999999999
aI1
aI5
asS'-Great'
p812
(lp813
I1
aF3.0579700000000001
aI1
aI2
asS'divisions'
p814
(lp815
I1
aI2
aF1.9710100000000002
aI3
asS'terrible'
p816
(lp817
I1
aI2
aF3.9710100000000002
aI5
asS'solid'
p818
(lp819
I1
aF8.2173900000000017
aI2
aI6
asS'reliable'
p820
(lp821
I1
aF3.0579700000000001
aI1
aI2
asS'engineering'
p822
(lp823
I1
aI1
aI2
aI2
asS"n't"
p824
(lp825
I1
aF7.0434800000000006
aF32.884060000000005
aI33
asS'sometime'
p826
(lp827
I1
aF3.0579700000000001
aI1
aI2
asS'ongoing'
p828
(lp829
I1
aF2.0434800000000002
aI1
aI2
asS'balance'
p830
(lp831
I1
aF4.1014499999999998
aF1.9710100000000002
aI4
asS'periods'
p832
(lp833
I1
aI1
aI2
aI2
asS'eventually'
p834
(lp835
I1
aI1
aI2
aI2
asS'Incentive'
p836
(lp837
I1
aI1
aI2
aI2
asS'expenses'
p838
(lp839
I1
aI1
aF3.9855100000000001
aI3
asS'cafeteria,'
p840
(lp841
I1
aI1
aI2
aI2
asS'-Solid'
p842
(lp843
I1
aI1
aF1.9710100000000002
aI2
asS'Kids'
p844
(lp845
I1
aF2.0434800000000002
aI1
aI2
asS'Flexible'
p846
(lp847
I1
aF5.1449300000000004
aI1
aI4
asS'chase'
p848
(lp849
I1
aF4.0
aI1
aI2
asS'different'
p850
(lp851
I1
aF20.521740000000001
aF5.9710099999999997
aI17
asS'perhaps'
p852
(lp853
I1
aI1
aI2
aI2
asS'pay'
p854
(lp855
I1
aF3.0579700000000001
aI1
aI2
asS'same'
p856
(lp857
I1
aI2
aI4
aI5
asS'geographical'
p858
(lp859
I1
aF3.0579700000000001
aI1
aI2
asS'Many'
p860
(lp861
I1
aF2.0434800000000002
aF2.9710100000000002
aI4
asS'difficult'
p862
(lp863
I1
aI1
aI2
aI2
asS'development'
p864
(lp865
I1
aI1
aI2
aI2
asS'Medical'
p866
(lp867
I1
aI1
aI2
aI2
asS'painless'
p868
(lp869
I1
aF2.0434800000000002
aI1
aI2
asS'managment'
p870
(lp871
I1
aI1
aF1.9710100000000002
aI2
asS'automation'
p872
(lp873
I1
aF3.0579700000000001
aI1
aI2
asS'usually'
p874
(lp875
I1
aI1
aI2
aI2
asS'favorites'
p876
(lp877
I1
aI1
aF1.9710100000000002
aI2
asS'contractors'
p878
(lp879
I1
aI1
aI2
aI2
asS'opportunity'
p880
(lp881
I1
aF5.1159400000000002
aF2.9710100000000002
aI5
asS'recent'
p882
(lp883
I1
aI1
aF1.9710100000000002
aI2
asS'builder'
p884
(lp885
I1
aI1
aF1.9710100000000002
aI2
asS'incredible'
p886
(lp887
I1
aI1
aF1.9710100000000002
aI2
asS'well'
p888
(lp889
I1
aF9.1884100000000011
aI3
aI8
asS'academic'
p890
(lp891
I1
aI1
aI2
aI2
asS'Economic'
p892
(lp893
I1
aI1
aI2
aI2
asS'quantitative'
p894
(lp895
I1
aI1
aI2
aI2
asS'corporate'
p896
(lp897
I1
aF14.260870000000001
aI7
aI15
asS'Casual'
p898
(lp899
I1
aF2.0434800000000002
aI1
aI2
asS'usual'
p900
(lp901
I1
aF2.0434800000000002
aI1
aI2
asS'endless'
p902
(lp903
I1
aF4.0
aI1
aI2
asS'stores'
p904
(lp905
I1
aF3.0579700000000001
aI1
aI2
asS'just'
p906
(lp907
I1
aF5.1014499999999998
aI1
aI4
asS'less'
p908
(lp909
I1
aI1
aI2
aI2
asS'generally'
p910
(lp911
I1
aF4.1014499999999998
aI1
aI3
asS'executive'
p912
(lp913
I1
aI1
aI3
aI3
asS'unfair'
p914
(lp915
I1
aI1
aI2
aI2
asS'competitive'
p916
(lp917
I1
aI1
aF2.9855100000000001
aI2
asS'Conservative'
p918
(lp919
I1
aF2.0434800000000002
aI1
aI2
asS'Consistently'
p920
(lp921
I1
aF4.0
aI1
aI2
asS'reputable'
p922
(lp923
I1
aF3.0579700000000001
aI1
aI2
asS'aspect'
p924
(lp925
I1
aF4.0
aI1
aI2
asS'Horrible'
p926
(lp927
I1
aI1
aI2
aI2
asS'touch'
p928
(lp929
I1
aI1
aF2.9855100000000001
aI2
asS'yet'
p930
(lp931
I1
aF2.0434800000000002
aI1
aI2
asS'profitable'
p932
(lp933
I1
aF2.0434800000000002
aI1
aI2
asS'workers'
p934
(lp935
I1
aF2.0434800000000002
aI1
aI2
asS'advancement'
p936
(lp937
I1
aF3.0579700000000001
aI2
aI3
asS'improvement'
p938
(lp939
I1
aF4.1014499999999998
aF3.9130300000000005
aI6
asS'add'
p940
(lp941
I1
aI1
aF2.9855100000000001
aI2
asS'Ridiculous'
p942
(lp943
I1
aI2
aI1
aI2
asS'meritocracy'
p944
(lp945
I1
aI1
aI2
aI2
asS'easy'
p946
(lp947
I1
aF7.1014499999999998
aI1
aI4
asS'real'
p948
(lp949
I1
aF4.0869600000000004
aI3
aI6
asS'reorganizations'
p950
(lp951
I1
aF2.0434800000000002
aI1
aI2
asS'ample'
p952
(lp953
I1
aF4.0
aI1
aI2
asS'big'
p954
(lp955
I1
aF5.1449300000000004
aI6
aI9
asS'Terrible'
p956
(lp957
I1
aI1
aI2
aI2
asS'early'
p958
(lp959
I1
aF3.0579700000000001
aI1
aI2
asS'possibly'
p960
(lp961
I1
aI1
aF1.9710100000000002
aI2
asS'game'
p962
(lp963
I1
aI1
aI2
aI2
asS'supervisiors'
p964
(lp965
I1
aF2.0434800000000002
aI1
aI2
asS'.but'
p966
(lp967
I1
aF2.0434800000000002
aI1
aI2
asS'press'
p968
(lp969
I1
aI1
aI2
aI2
asS'bit'
p970
(lp971
I1
aI1
aI3
aI3
asS'-Workable'
p972
(lp973
I1
aF3.0579700000000001
aI1
aI2
asS'formal'
p974
(lp975
I1
aF2.0434800000000002
aI1
aI2
asS'necessary'
p976
(lp977
I1
aI2
aI1
aI2
asS'work-life'
p978
(lp979
I1
aF3.0579700000000001
aI2
aI3
asS'Self-imposed'
p980
(lp981
I1
aI1
aI2
aI2
asS'beneffit'
p982
(lp983
I1
aI1
aF1.9710100000000002
aI2
asS'officer'
p984
(lp985
I1
aF2.0434800000000002
aI1
aI2
asS'Ever-changing'
p986
(lp987
I1
aF2.0434800000000002
aI1
aI2
asS'Too'
p988
(lp989
I1
aI3
aI7
aI9
asS'accessible'
p990
(lp991
I1
aF3.0579700000000001
aI1
aI2
asS'Little'
p992
(lp993
I1
aI1
aI2
aI2
asS'often'
p994
(lp995
I1
aI1
aI2
aI2
asS'verbal'
p996
(lp997
I1
aI2
aI1
aI2
asS'people'
p998
(lp999
I1
aF4.1014499999999998
aF3.9420200000000003
aI6
asS'TIght/small'
p1000
(lp1001
I1
aI1
aI2
aI2
asS'back'
p1002
(lp1003
I1
aF2.0434800000000002
aI2
aI3
asS'intern'
p1004
(lp1005
I1
aI1
aF2.9710100000000002
aI3
asS'economic'
p1006
(lp1007
I1
aI1
aI3
aI3
asS'Stable'
p1008
(lp1009
I1
aF4.1014499999999998
aI1
aI3
asS'referrals,'
p1010
(lp1011
I1
aI1
aI2
aI2
asS'Highly'
p1012
(lp1013
I1
aF5.0
aF1.9710100000000002
aI4
asS'recognition'
p1014
(lp1015
I1
aI1
aI3
aI3
asS'Overly'
p1016
(lp1017
I1
aI1
aI2
aI2
asS'Mostly'
p1018
(lp1019
I1
aF3.0579700000000001
aI1
aI2
asS'broad'
p1020
(lp1021
I1
aF4.1014499999999998
aI1
aI3
asS'salaries'
p1022
(lp1023
I1
aI1
aF1.9710100000000002
aI2
asS'creative'
p1024
(lp1025
I1
aF2.0434800000000002
aI1
aI2
asS'expensive'
p1026
(lp1027
I1
aI1
aI2
aI2
asS'innovation'
p1028
(lp1029
I1
aI1
aI2
aI2
asS'Daily'
p1030
(lp1031
I1
aI1
aF1.9710100000000002
aI2
asS'graduates'
p1032
(lp1033
I1
aI1
aF1.9710100000000002
aI2
asS'hectic'
p1034
(lp1035
I1
aI1
aI2
aI2
asS'Continuously'
p1036
(lp1037
I1
aF2.0434800000000002
aI1
aI2
asS'ok'
p1038
(lp1039
I1
aF2.0434800000000002
aI1
aI2
asS'anything'
p1040
(lp1041
I1
aI2
aI1
aI2
asS'package'
p1042
(lp1043
I1
aI1
aF1.9710100000000002
aI2
asS'industry'
p1044
(lp1045
I1
aI1
aF2.9710100000000002
aI3
asS'hierarchal'
p1046
(lp1047
I1
aI1
aI2
aI2
asS'monthly'
p1048
(lp1049
I1
aI1
aF1.9710100000000002
aI2
asS'Looks'
p1050
(lp1051
I1
aF3.0579700000000001
aI1
aI2
asS'steadily'
p1052
(lp1053
I1
aI1
aF3.9855100000000001
aI3
asS'time-consuming'
p1054
(lp1055
I1
aF2.0434800000000002
aI1
aI2
asS'Still'
p1056
(lp1057
I1
aI1
aI2
aI2
asS'Inter-group'
p1058
(lp1059
I1
aF3.0579700000000001
aI1
aI2
asS'own'
p1060
(lp1061
I1
aF6.0
aF5.9130300000000009
aI9
asS'communication'
p1062
(lp1063
I1
aI1
aI2
aI2
asS'skilled'
p1064
(lp1065
I1
aI2
aI1
aI2
asS'intellectual'
p1066
(lp1067
I1
aI1
aI2
aI2
asS'ever-increasing'
p1068
(lp1069
I1
aI1
aI2
aI2
asS'appropriate'
p1070
(lp1071
I1
aF4.0
aI1
aI2
asS'raises'
p1072
(lp1073
I1
aI1
aI2
aI2
asS'Often'
p1074
(lp1075
I1
aI1
aI2
aI2
asS'upstairs'
p1076
(lp1077
I1
aI1
aI2
aI2
asS'additional'
p1078
(lp1079
I1
aI1
aI3
aI3
asS'Spectacular'
p1080
(lp1081
I1
aF4.0
aI1
aI2
asS'managers.And'
p1082
(lp1083
I1
aI2
aI1
aI2
asS'constantly'
p1084
(lp1085
I1
aF4.1014499999999998
aI2
aI4
asS'long'
p1086
(lp1087
I1
aF4.1014499999999998
aF7.9710099999999997
aI10
asS'overtime'
p1088
(lp1089
I1
aI1
aI2
aI2
asS'downsides'
p1090
(lp1091
I1
aI1
aI2
aI2
asS'low'
p1092
(lp1093
I1
aF6.0579700000000001
aI7
aI11
asS'way'
p1094
(lp1095
I1
aF4.0
aI1
aI2
asS'forward'
p1096
(lp1097
I1
aI1
aF1.9710100000000002
aI2
asS'slowly'
p1098
(lp1099
I1
aI1
aI2
aI2
asS'Promotions'
p1100
(lp1101
I1
aI1
aI2
aI2
asS'mundane'
p1102
(lp1103
I1
aF3.0579700000000001
aI1
aI2
asS'offer'
p1104
(lp1105
I1
aF4.0
aI1
aI2
asS'fundamentals'
p1106
(lp1107
I1
aF3.0579700000000001
aI1
aI2
asS'Experience'
p1108
(lp1109
I1
aF4.0
aI1
aI2
asS'technician'
p1110
(lp1111
I1
aF2.0434800000000002
aI1
aI2
asS'technologies'
p1112
(lp1113
I1
aF3.0579700000000001
aI1
aI2
asS'analyst'
p1114
(lp1115
I1
aF4.0
aI1
aI2
asS'non-management'
p1116
(lp1117
I1
aI1
aF2.9855100000000001
aI2
asS'full'
p1118
(lp1119
I1
aF6.0869600000000013
aI1
aI4
asS'growth'
p1120
(lp1121
I1
aF7.0
aF1.9710100000000002
aI4
asS'making/closing'
p1122
(lp1123
I1
aI1
aI2
aI2
asS'continuously'
p1124
(lp1125
I1
aI1
aI2
aI2
asS'similar'
p1126
(lp1127
I1
aI1
aI2
aI2
asS'clear'
p1128
(lp1129
I1
aF4.1014499999999998
aI2
aI4
asS'Poorly'
p1130
(lp1131
I1
aI2
aF2.9855100000000001
aI3
asS'non-existent'
p1132
(lp1133
I1
aI1
aI2
aI2
asS'constant'
p1134
(lp1135
I1
aF7.1594199999999999
aI2
aI6
asS'Personal'
p1136
(lp1137
I1
aF7.1014499999999998
aI1
aI4
asS'certain'
p1138
(lp1139
I1
aI1
aI4
aI4
asS'direction'
p1140
(lp1141
I1
aI1
aI2
aI2
asS'Unmatched'
p1142
(lp1143
I1
aI1
aF1.9710100000000002
aI2
asS'general'
p1144
(lp1145
I1
aF3.0579700000000001
aI1
aI2
asS'Outside'
p1146
(lp1147
I1
aI1
aF2.9855100000000001
aI2
asS'conservative'
p1148
(lp1149
I1
aF4.1014499999999998
aI1
aI3
asS'together'
p1150
(lp1151
I1
aF3.0579700000000001
aI1
aI2
asS'organizational'
p1152
(lp1153
I1
aF4.0
aI1
aI2
asS'politics'
p1154
(lp1155
I1
aI1
aI3
aI3
asS'ship'
p1156
(lp1157
I1
aF4.1014499999999998
aF1.9710100000000002
aI4
asS'internal'
p1158
(lp1159
I1
aF3.0579700000000001
aI4
aI5
asS'sympathizers'
p1160
(lp1161
I1
aI1
aF2.9855100000000001
aI2
asS'again'
p1162
(lp1163
I1
aF3.0579700000000001
aI1
aI2
asS'mutual'
p1164
(lp1165
I1
aF3.0579700000000001
aI1
aI2
asS'supportive'
p1166
(lp1167
I1
aF6.0579700000000001
aI1
aI3
asS'floor'
p1168
(lp1169
I1
aF2.0434800000000002
aI1
aI2
asS'Never'
p1170
(lp1171
I1
aI2
aI2
aI3
asS'excel'
p1172
(lp1173
I1
aF3.0579700000000001
aI1
aI2
asS'part-time'
p1174
(lp1175
I1
aF2.0434800000000002
aI1
aI2
asS'reality'
p1176
(lp1177
I1
aF2.0434800000000002
aI1
aI2
asS'environme'
p1178
(lp1179
I1
aF2.0434800000000002
aI1
aI2
asS'cult-like'
p1180
(lp1181
I1
aI1
aF2.9855100000000001
aI2
asS'other'
p1182
(lp1183
I1
aF10.115940000000002
aF13.913029999999999
aI19
asS'lifestyle'
p1184
(lp1185
I1
aF4.0
aI1
aI2
asS'cutthroat'
p1186
(lp1187
I1
aF3.0579700000000001
aI1
aI2
asS'department'
p1188
(lp1189
I1
aI1
aI2
aI2
asS'Extremely'
p1190
(lp1191
I1
aI2
aF1.9710100000000002
aI3
asS'acceptable'
p1192
(lp1193
I1
aF2.0434800000000002
aI1
aI2
asS'nice'
p1194
(lp1195
I1
aF8.1449300000000022
aI1
aI5
asS'poor'
p1196
(lp1197
I1
aF5.1014499999999998
aF4.9710099999999997
aI8
asS'students'
p1198
(lp1199
I1
aF6.0579700000000001
aI1
aI3
asS'worker'
p1200
(lp1201
I1
aF3.0579700000000001
aI1
aI2
asS'time'
p1202
(lp1203
I1
aF3.0579700000000001
aF1.9710100000000002
aI3
asS'problems'
p1204
(lp1205
I1
aI1
aI2
aI2
asS'Part-time'
p1206
(lp1207
I1
aI1
aI2
aI2
asS'important'
p1208
(lp1209
I1
aI1
aI2
aI2
asS'utterly'
p1210
(lp1211
I1
aI1
aI2
aI2
asS'fresh'
p1212
(lp1213
I1
aF3.0579700000000001
aI1
aI2
asS'brands'
p1214
(lp1215
I1
aI1
aI2
aI2
asS'equitable'
p1216
(lp1217
I1
aF3.0579700000000001
aI1
aI2
asS'friends'
p1218
(lp1219
I1
aF4.0
aI1
aI2
asS'structure'
p1220
(lp1221
I1
aF5.1159400000000002
aI1
aI3
asS'exposure'
p1222
(lp1223
I1
aI1
aI2
aI2
asS'minutes'
p1224
(lp1225
I1
aI1
aI2
aI2
asS'overwork/overstressed'
p1226
(lp1227
I1
aI2
aI1
aI2
asS'depts'
p1228
(lp1229
I1
aI1
aI2
aI2
asS'Direct'
p1230
(lp1231
I1
aF2.0434800000000002
aI1
aI2
asS'daily'
p1232
(lp1233
I1
aI2
aI1
aI2
asS'lines.Your'
p1234
(lp1235
I1
aI2
aI1
aI2
asS'opportunites'
p1236
(lp1237
I1
aF3.0579700000000001
aI1
aI2
asS'literally'
p1238
(lp1239
I1
aI2
aI1
aI2
asS'international'
p1240
(lp1241
I1
aF6.1594199999999999
aI1
aI4
asS'profits'
p1242
(lp1243
I1
aF2.0434800000000002
aI1
aI2
as.