(dp0
(S'actually'
p1
S'RB'
p2
tp3
(lp4
I1
aI1
aI2
as(S'stuff'
p5
S'NN'
p6
tp7
(lp8
I1
aI1
aI2
as(S'low'
p9
S'JJ'
p10
tp11
(lp12
I1
aI5
aI1
as(S'gas'
p13
g6
tp14
(lp15
I1
aI1
aI2
as(S'REALLY'
p16
g2
tp17
(lp18
I1
aI1
aI2
as(S'happene'
p19
g6
tp20
(lp21
I1
aI2
aI1
as(S'non-management'
p22
g10
tp23
(lp24
I1
aI3
aI1
as(S'idealistic'
p25
g10
tp26
(lp27
I1
aI1
aI2
as(S'strong'
p28
g10
tp29
(lp30
I1
aI2
aI2
as(S'dead'
p31
g10
tp32
(lp33
I1
aI2
aI1
as(S'young'
p34
g10
tp35
(lp36
I1
aI2
aI1
as(S'onsite'
p37
g10
tp38
(lp39
I1
aI1
aI2
as(S'add'
p40
g10
tp41
(lp42
I1
aI2
aI1
as(S'good/bad'
p43
g10
tp44
(lp45
I1
aI2
aI1
as(S'level'
p46
g6
tp47
(lp48
I1
aI2
aI1
as(S'global'
p49
g10
tp50
(lp51
I1
aI3
aI3
as(S'hours'
p52
S'NNS'
p53
tp54
(lp55
I1
aI1
aI5
as(S'workforce'
p56
g6
tp57
(lp58
I1
aI2
aI1
as(S'Poorly'
p59
g2
tp60
(lp61
I1
aI3
aI1
as(S'manager'
p62
g6
tp63
(lp64
I1
aI2
aI1
as(S'divisions'
p65
g53
tp66
(lp67
I1
aI3
aI1
as(S'personal'
p68
g10
tp69
(lp70
I1
aI4
aI2
as(S'sprawling'
p71
g10
tp72
(lp73
I1
aI2
aI1
as(S'wide'
p74
g10
tp75
(lp76
I1
aI1
aI3
as(S'other'
p77
g10
tp78
(lp79
I1
aI4
aI4
as(S'service'
p80
g6
tp81
(lp82
I1
aI1
aI2
as(S'Constantly'
p83
g2
tp84
(lp85
I1
aI2
aI1
as(S'experience'
p86
g6
tp87
(lp88
I1
aI2
aI3
as(S'skills'
p89
g53
tp90
(lp91
I1
aI1
aI2
as(S'interactions'
p92
g53
tp93
(lp94
I1
aI1
aI2
as(S'Incredible'
p95
g10
tp96
(lp97
I1
aI1
aI2
as(S'leads.Your'
p98
g10
tp99
(lp100
I1
aI2
aI1
as(S'politically'
p101
g2
tp102
(lp103
I1
aI2
aI1
as(S'Ridiculous'
p104
g10
tp105
(lp106
I1
aI2
aI1
as(S'bad'
p107
g10
tp108
(lp109
I1
aI6
aI2
as(S'safe'
p110
g10
tp111
(lp112
I1
aI1
aI2
as(S'glorious'
p113
g10
tp114
(lp115
I1
aI2
aI1
as(S'customer'
p116
g6
tp117
(lp118
I1
aI2
aI2
as(S'cool'
p119
g10
tp120
(lp121
I1
aI1
aI2
as(S'cult-like'
p122
g10
tp123
(lp124
I1
aI2
aI1
as(S'necessary'
p125
g10
tp126
(lp127
I1
aI2
aI1
as(S'nothing'
p128
g6
tp129
(lp130
I1
aI1
aI2
as(S'quick'
p131
g10
tp132
(lp133
I1
aI1
aI2
as(S'Daily'
p134
g2
tp135
(lp136
I1
aI2
aI1
as(S'innovative'
p137
g10
tp138
(lp139
I1
aI1
aI2
as(S'just'
p140
g2
tp141
(lp142
I1
aI2
aI1
as(S'literally'
p143
g2
tp144
(lp145
I1
aI2
aI1
as(S'bureaucratic'
p146
g10
tp147
(lp148
I1
aI2
aI1
as(S'downhill'
p149
g2
tp150
(lp151
I1
aI2
aI1
as(S'Vindictive'
p152
g10
tp153
(lp154
I1
aI2
aI1
as(S'poorly'
p155
g2
tp156
(lp157
I1
aI2
aI1
as(S'old'
p158
g10
tp159
(lp160
I1
aI3
aI1
as(S'favorites'
p161
g53
tp162
(lp163
I1
aI2
aI1
as(S'overall'
p164
g10
tp165
(lp166
I1
aI2
aI1
as(S'manageable'
p167
g10
tp168
(lp169
I1
aI1
aI2
as(S'competitive'
p170
g10
tp171
(lp172
I1
aI2
aI4
as(S'highly'
p173
g2
tp174
(lp175
I1
aI1
aI2
as(S'consulting'
p176
g6
tp177
(lp178
I1
aI2
aI1
as(S'world-class'
p179
g10
tp180
(lp181
I1
aI1
aI2
as(S'significant'
p182
g10
tp183
(lp184
I1
aI2
aI1
as(S'locations'
p185
g53
tp186
(lp187
I1
aI1
aI2
as(S'there'
p188
g2
tp189
(lp190
I1
aI2
aI1
as(S'unbelievably'
p191
g2
tp192
(lp193
I1
aI2
aI1
as(S'casual'
p194
g10
tp195
(lp196
I1
aI1
aI2
as(S'high'
p197
g10
tp198
(lp199
I1
aI4
aI2
as(S'offices'
p200
g53
tp201
(lp202
I1
aI1
aI3
as(S'internal'
p203
g10
tp204
(lp205
I1
aI2
aI1
as(S'very'
p206
g2
tp207
(lp208
I1
aI11
aI9
as(S'Outstanding'
p209
g10
tp210
(lp211
I1
aI1
aI2
as(S'away'
p212
g2
tp213
(lp214
I1
aI2
aI1
as(S'long'
p215
g10
tp216
(lp217
I1
aI2
aI2
as(S'sympathizers'
p218
g53
tp219
(lp220
I1
aI2
aI1
as(S'management'
p221
g6
tp222
(lp223
I1
aI2
aI1
as(S'so'
p224
g2
tp225
(lp226
I1
aI2
aI1
as(S'lifelong'
p227
g10
tp228
(lp229
I1
aI1
aI3
as(S'only'
p230
g10
tp231
(lp232
I1
aI1
aI2
as(S'buddy'
p233
g10
tp234
(lp235
I1
aI2
aI1
as(S'forward'
p236
g2
tp237
(lp238
I1
aI1
aI2
as(S'lateral'
p239
g10
tp240
(lp241
I1
aI2
aI1
as(S'opportunity'
p242
g6
tp243
(lp244
I1
aI2
aI1
as(S'Japanese'
p245
g10
tp246
(lp247
I1
aI2
aI2
as(S're-org'
p248
g10
tp249
(lp250
I1
aI2
aI1
as(S'Huge'
p251
g10
tp252
(lp253
I1
aI2
aI1
as(S'non-exempt'
p254
g10
tp255
(lp256
I1
aI1
aI2
as(S'rather'
p257
g2
tp258
(lp259
I1
aI2
aI1
as(S'ending'
p260
g6
tp261
(lp262
I1
aI2
aI1
as(S'Great'
p263
g10
tp264
(lp265
I1
aI1
aI2
as(S'them.I'
p266
g10
tp267
(lp268
I1
aI2
aI1
as(S'career'
p269
g6
tp270
(lp271
I1
aI3
aI1
as(S'now'
p272
g2
tp273
(lp274
I1
aI5
aI1
as(S'day'
p275
g6
tp276
(lp277
I1
aI2
aI1
as(S'salaries'
p278
g53
tp279
(lp280
I1
aI1
aI2
as(S'Many'
p281
g10
tp282
(lp283
I1
aI3
aI2
as(S'graduates'
p284
g53
tp285
(lp286
I1
aI1
aI2
as(S'single'
p287
g10
tp288
(lp289
I1
aI2
aI1
as(S'Never'
p290
g2
tp291
(lp292
I1
aI2
aI1
as(S'employees'
p293
g53
tp294
(lp295
I1
aI6
aI2
as(S'plants'
p296
g53
tp297
(lp298
I1
aI1
aI2
as(S'Opportunities'
p299
g53
tp300
(lp301
I1
aI2
aI1
as(S'good'
p302
g10
tp303
(lp304
I1
aI12
aI26
as(S'skilled'
p305
g10
tp306
(lp307
I1
aI2
aI1
as(S'great'
p308
g10
tp309
(lp310
I1
aI7
aI14
as(S'wonderful'
p311
g10
tp312
(lp313
I1
aI2
aI1
as(S'verbal'
p314
g10
tp315
(lp316
I1
aI2
aI1
as(S'manner'
p317
g6
tp318
(lp319
I1
aI2
aI1
as(S'alone'
p320
g2
tp321
(lp322
I1
aI2
aI1
as(S'seasonal'
p323
g10
tp324
(lp325
I1
aI2
aI1
as(S'Bad'
p326
g10
tp327
(lp328
I1
aI3
aI1
as(S'knowledge'
p329
g6
tp330
(lp331
I1
aI2
aI1
as(S'German'
p332
g10
tp333
(lp334
I1
aI1
aI2
as(S'never'
p335
g2
tp336
(lp337
I1
aI7
aI1
as(S'definitely'
p338
g2
tp339
(lp340
I1
aI2
aI1
as(S'skin'
p341
g6
tp342
(lp343
I1
aI2
aI1
as(S'overtime'
p344
g6
tp345
(lp346
I1
aI1
aI2
as(S'pretty'
p347
g2
tp348
(lp349
I1
aI1
aI2
as(S'are'
p350
g10
tp351
(lp352
I1
aI1
aI2
as(S'prisoner'
p353
g6
tp354
(lp355
I1
aI2
aI1
as(S'tactical'
p356
g10
tp357
(lp358
I1
aI2
aI1
as(S'On-site'
p359
g10
tp360
(lp361
I1
aI1
aI2
as(S'blows'
p362
g53
tp363
(lp364
I1
aI2
aI1
as(S'times'
p365
g53
tp366
(lp367
I1
aI2
aI1
as(S'sales'
p368
g53
tp369
(lp370
I1
aI2
aI1
as(S'possibly'
p371
g2
tp372
(lp373
I1
aI1
aI2
as(S'actual'
p374
g10
tp375
(lp376
I1
aI2
aI1
as(S'even'
p377
g2
tp378
(lp379
I1
aI2
aI1
as(S'Outside'
p380
g10
tp381
(lp382
I1
aI1
aI2
as(S'minimum'
p383
g10
tp384
(lp385
I1
aI2
aI1
as(S'benefits'
p386
g53
tp387
(lp388
I1
aI1
aI2
as(S'knowledgeable'
p389
g10
tp390
(lp391
I1
aI1
aI2
as(S'large'
p392
g10
tp393
(lp394
I1
aI1
aI2
as(S'Generous'
p395
g10
tp396
(lp397
I1
aI1
aI2
as(S'much'
p398
g2
tp399
(lp400
I1
aI2
aI1
as(S'enough'
p401
g2
tp402
(lp403
I1
aI2
aI1
as(S'average'
p404
g10
tp405
(lp406
I1
aI2
aI1
as(S'professional'
p407
g10
tp408
(lp409
I1
aI3
aI1
as(S'-Solid'
p410
g10
tp411
(lp412
I1
aI1
aI2
as(S'serious'
p413
g10
tp414
(lp415
I1
aI2
aI1
as(S'local'
p416
g10
tp417
(lp418
I1
aI2
aI1
as(S'hard'
p419
g10
tp420
(lp421
I1
aI2
aI1
as(S'intimidation'
p422
g6
tp423
(lp424
I1
aI2
aI1
as(S'educational'
p425
g10
tp426
(lp427
I1
aI2
aI2
as(S'Enormously'
p428
g2
tp429
(lp430
I1
aI2
aI1
as(S'work'
p431
g6
tp432
(lp433
I1
aI2
aI2
as(S'wrong'
p434
g10
tp435
(lp436
I1
aI2
aI1
as(S'technical'
p437
g10
tp438
(lp439
I1
aI3
aI1
as(S'steadily'
p440
g2
tp441
(lp442
I1
aI2
aI1
as(S'region'
p443
g6
tp444
(lp445
I1
aI1
aI2
as(S'automotive'
p446
g10
tp447
(lp448
I1
aI1
aI4
as(S'flexible'
p449
g10
tp450
(lp451
I1
aI2
aI4
as(S'couple'
p452
g10
tp453
(lp454
I1
aI2
aI1
as(S'vacation'
p455
g6
tp456
(lp457
I1
aI2
aI1
as(S'creative'
p458
g10
tp459
(lp460
I1
aI2
aI1
as(S'various'
p461
g10
tp462
(lp463
I1
aI1
aI3
as(S'own'
p464
g10
tp465
(lp466
I1
aI3
aI4
as(S'Always'
p467
g2
tp468
(lp469
I1
aI2
aI1
as(S'mentioning'
p470
g6
tp471
(lp472
I1
aI1
aI2
as(S'last'
p473
g10
tp474
(lp475
I1
aI2
aI1
as(S'Free-Fire'
p476
g10
tp477
(lp478
I1
aI2
aI1
as(S'incredible'
p479
g10
tp480
(lp481
I1
aI1
aI2
as(S'ship'
p482
g6
tp483
(lp484
I1
aI2
aI1
as(S'poor'
p485
g10
tp486
(lp487
I1
aI6
aI2
as(S'beneffit'
p488
g6
tp489
(lp490
I1
aI1
aI2
as(S'absolutely'
p491
g2
tp492
(lp493
I1
aI2
aI1
as(S'guidance'
p494
g6
tp495
(lp496
I1
aI2
aI1
as(S'High'
p497
g10
tp498
(lp499
I1
aI4
aI1
as(S'code'
p500
g6
tp501
(lp502
I1
aI1
aI2
as(S'people'
p503
g53
tp504
(lp505
I1
aI1
aI3
as(S'bonus'
p506
g6
tp507
(lp508
I1
aI1
aI2
as(S'exciting'
p509
g10
tp510
(lp511
I1
aI1
aI2
as(S'managers'
p512
g53
tp513
(lp514
I1
aI2
aI1
as(S'sears'
p515
g53
tp516
(lp517
I1
aI2
aI1
as(S'rich'
p518
g10
tp519
(lp520
I1
aI1
aI2
as(S'promotion/'
p521
g10
tp522
(lp523
I1
aI2
aI1
as(S"n't"
p524
g2
tp525
(lp526
I1
aI17
aI6
as(S'intern'
p527
g6
tp528
(lp529
I1
aI2
aI1
as(S'almost'
p530
g2
tp531
(lp532
I1
aI1
aI2
as(S'steady'
p533
g10
tp534
(lp535
I1
aI1
aI2
as(S'same'
p536
g10
tp537
(lp538
I1
aI3
aI1
as(S'departments'
p539
g53
tp540
(lp541
I1
aI1
aI3
as(S'Highly'
p542
g2
tp543
(lp544
I1
aI4
aI1
as(S'worth'
p545
g10
tp546
(lp547
I1
aI1
aI2
as(S'workplace'
p548
g6
tp549
(lp550
I1
aI1
aI2
as(S'new'
p551
g10
tp552
(lp553
I1
aI5
aI3
as(S'dynamic'
p554
g10
tp555
(lp556
I1
aI2
aI1
as(S'abundant'
p557
g10
tp558
(lp559
I1
aI1
aI2
as(S'free'
p560
g10
tp561
(lp562
I1
aI1
aI4
as(S'however'
p563
g2
tp564
(lp565
I1
aI1
aI2
as(S'Zone'
p566
g6
tp567
(lp568
I1
aI2
aI1
as(S'too'
p569
g2
tp570
(lp571
I1
aI6
aI2
as(S'many'
p572
g10
tp573
(lp574
I1
aI10
aI6
as(S'corporate'
p575
g10
tp576
(lp577
I1
aI5
aI1
as(S'regional'
p578
g10
tp579
(lp580
I1
aI2
aI1
as(S'ergonomics'
p581
g53
tp582
(lp583
I1
aI1
aI2
as(S'stupid'
p584
g10
tp585
(lp586
I1
aI2
aI1
as(S'such'
p587
g10
tp588
(lp589
I1
aI2
aI1
as(S'political'
p590
g10
tp591
(lp592
I1
aI5
aI1
as(S'daily'
p593
g10
tp594
(lp595
I1
aI3
aI1
as(S'environment'
p596
g6
tp597
(lp598
I1
aI4
aI1
as(S'Too'
p599
g2
tp600
(lp601
I1
aI3
aI1
as(S'ta'
p602
g6
tp603
(lp604
I1
aI2
aI1
as(S'essential'
p605
g10
tp606
(lp607
I1
aI2
aI1
as(S'products'
p608
g53
tp609
(lp610
I1
aI1
aI3
as(S'individual'
p611
g10
tp612
(lp613
I1
aI2
aI1
as(S'work/life'
p614
g10
tp615
(lp616
I1
aI1
aI2
as(S'-Arrogant'
p617
g10
tp618
(lp619
I1
aI2
aI1
as(S'well'
p620
g2
tp621
(lp622
I1
aI2
aI1
as(S'insight'
p623
g6
tp624
(lp625
I1
aI2
aI1
as(S'walmart'
p626
g6
tp627
(lp628
I1
aI2
aI1
as(S'merchandising'
p629
g6
tp630
(lp631
I1
aI1
aI2
as(S'interesting'
p632
g10
tp633
(lp634
I1
aI1
aI2
as(S'charitable'
p635
g10
tp636
(lp637
I1
aI1
aI2
as(S'partly'
p638
g2
tp639
(lp640
I1
aI2
aI1
as(S'line'
p641
g6
tp642
(lp643
I1
aI3
aI1
as(S'impersonal'
p644
g10
tp645
(lp646
I1
aI2
aI1
as(S'still'
p647
g2
tp648
(lp649
I1
aI2
aI1
as(S'senior'
p650
g10
tp651
(lp652
I1
aI3
aI1
as(S'overwork/overstressed'
p653
g10
tp654
(lp655
I1
aI2
aI1
as(S'builder'
p656
g6
tp657
(lp658
I1
aI1
aI2
as(S'ever'
p659
g2
tp660
(lp661
I1
aI3
aI1
as(S'true'
p662
g10
tp663
(lp664
I1
aI2
aI1
as(S'current'
p665
g10
tp666
(lp667
I1
aI4
aI3
as(S'Once'
p668
g2
tp669
(lp670
I1
aI2
aI1
as(S'+year'
p671
g10
tp672
(lp673
I1
aI2
aI1
as(S'OK'
p674
g6
tp675
(lp676
I1
aI2
aI1
as(S'b'
p677
g2
tp678
(lp679
I1
aI2
aI1
as(S'price'
p680
g6
tp681
(lp682
I1
aI1
aI2
as(S'recent'
p683
g10
tp684
(lp685
I1
aI1
aI2
as(S'comparable'
p686
g10
tp687
(lp688
I1
aI2
aI1
as(S'managers.And'
p689
g10
tp690
(lp691
I1
aI2
aI1
as(S'teamwork'
p692
g6
tp693
(lp694
I1
aI2
aI1
as(S'complete'
p695
g10
tp696
(lp697
I1
aI2
aI1
as(S'Competitive'
p698
g10
tp699
(lp700
I1
aI1
aI2
as(S'Politically'
p701
g2
tp702
(lp703
I1
aI2
aI1
as(S'superior'
p704
g10
tp705
(lp706
I1
aI2
aI1
as(S'future'
p707
g6
tp708
(lp709
I1
aI2
aI1
as(S'anything'
p710
g6
tp711
(lp712
I1
aI2
aI1
as(S'monthly'
p713
g10
tp714
(lp715
I1
aI1
aI2
as(S'annual'
p716
g10
tp717
(lp718
I1
aI2
aI1
as(S'lines.Your'
p719
g10
tp720
(lp721
I1
aI2
aI1
as(S'first'
p722
g10
tp723
(lp724
I1
aI2
aI1
as(S'major'
p725
g10
tp726
(lp727
I1
aI1
aI2
as(S'process'
p728
g6
tp729
(lp730
I1
aI1
aI2
as(S'mirrors'
p731
g53
tp732
(lp733
I1
aI2
aI1
as(S'touch'
p734
g10
tp735
(lp736
I1
aI2
aI1
as(S'Sucks'
p737
g53
tp738
(lp739
I1
aI3
aI1
as(S'Unmatched'
p740
g10
tp741
(lp742
I1
aI1
aI2
as(S'negative'
p743
g10
tp744
(lp745
I1
aI2
aI1
as(S'contractor'
p746
g6
tp747
(lp748
I1
aI2
aI1
as(S'improvement'
p749
g6
tp750
(lp751
I1
aI4
aI1
as(S'much'
p752
g10
tp753
(lp754
I1
aI9
aI1
as(S'retail'
p755
g10
tp756
(lp757
I1
aI2
aI1
as(S'..the'
p758
g10
tp759
(lp760
I1
aI2
aI1
as(S'travel'
p761
g6
tp762
(lp763
I1
aI1
aI2
as(S'entire'
p764
g10
tp765
(lp766
I1
aI2
aI1
as(S'managment'
p767
g6
tp768
(lp769
I1
aI2
aI1
as(S'resume'
p770
g6
tp771
(lp772
I1
aI1
aI3
as(S'always'
p773
g2
tp774
(lp775
I1
aI2
aI2
as(S'hard'
p776
g2
tp777
(lp778
I1
aI2
aI1
as(S'cubical'
p779
g10
tp780
(lp781
I1
aI2
aI1
as(S'years'
p782
g53
tp783
(lp784
I1
aI3
aI1
as(S'mental'
p785
g10
tp786
(lp787
I1
aI2
aI1
as(S'ideas'
p788
g53
tp789
(lp790
I1
aI2
aI1
as(S'awful'
p791
g10
tp792
(lp793
I1
aI1
aI2
as(S'extra'
p794
g10
tp795
(lp796
I1
aI1
aI2
as(S'peers'
p797
g53
tp798
(lp799
I1
aI2
aI1
as(S'next'
p800
g10
tp801
(lp802
I1
aI2
aI1
as(S'upper'
p803
g10
tp804
(lp805
I1
aI3
aI2
as(S'growth'
p806
g6
tp807
(lp808
I1
aI2
aI1
as(S'company'
p809
g6
tp810
(lp811
I1
aI3
aI1
as(S'whole'
p812
g10
tp813
(lp814
I1
aI2
aI1
as(S'continuous'
p815
g10
tp816
(lp817
I1
aI2
aI1
as(S'future'
p818
g10
tp819
(lp820
I1
aI1
aI2
as(S'insiders'
p821
g53
tp822
(lp823
I1
aI1
aI2
as(S'real'
p824
g10
tp825
(lp826
I1
aI2
aI1
as(S'walls'
p827
g53
tp828
(lp829
I1
aI2
aI1
as(S'-Some'
p830
g10
tp831
(lp832
I1
aI1
aI2
as(S'balance'
p833
g6
tp834
(lp835
I1
aI1
aI3
as(S'location'
p836
g6
tp837
(lp838
I1
aI1
aI2
as(S'numbingly'
p839
g2
tp840
(lp841
I1
aI2
aI1
as(S'constant'
p842
g10
tp843
(lp844
I1
aI3
aI1
as(S'diverse'
p845
g10
tp846
(lp847
I1
aI2
aI1
as(S'often'
p848
g2
tp849
(lp850
I1
aI2
aI1
as(S'laid'
p851
g10
tp852
(lp853
I1
aI1
aI2
as(S'different'
p854
g10
tp855
(lp856
I1
aI3
aI3
as(S'pleasant'
p857
g10
tp858
(lp859
I1
aI1
aI2
as(S'package'
p860
g6
tp861
(lp862
I1
aI1
aI2
as(S'laziness'
p863
g6
tp864
(lp865
I1
aI2
aI1
as(S'prioritized'
p866
g10
tp867
(lp868
I1
aI2
aI1
as(S'not'
p869
g2
tp870
(lp871
I1
aI32
aI5
as(S'in-house'
p872
g10
tp873
(lp874
I1
aI1
aI2
as(S'French'
p875
g10
tp876
(lp877
I1
aI2
aI2
as(S'little'
p878
g10
tp879
(lp880
I1
aI4
aI1
as(S'comfortable'
p881
g10
tp882
(lp883
I1
aI1
aI2
as(S'only'
p884
g2
tp885
(lp886
I1
aI3
aI1
as(S'fundamental'
p887
g10
tp888
(lp889
I1
aI1
aI2
as(S'industry'
p890
g6
tp891
(lp892
I1
aI1
aI2
as(S'big'
p893
g10
tp894
(lp895
I1
aI2
aI1
as(S'Extremely'
p896
g2
tp897
(lp898
I1
aI3
aI1
as(S'expenses'
p899
g53
tp900
(lp901
I1
aI2
aI1
as(S'nice'
p902
g10
tp903
(lp904
I1
aI1
aI3
as(S'compensation'
p905
g6
tp906
(lp907
I1
aI3
aI1
as(S'Not'
p908
g2
tp909
(lp910
I1
aI3
aI1
as(S'top'
p911
g10
tp912
(lp913
I1
aI1
aI2
as(S'('
p914
g6
tp915
(lp916
I1
aI1
aI2
as(S'terrible'
p917
g10
tp918
(lp919
I1
aI3
aI1
as(S'hires'
p920
g53
tp921
(lp922
I1
aI2
aI1
as(S'full'
p923
g10
tp924
(lp925
I1
aI1
aI2
as(S'rough'
p926
g10
tp927
(lp928
I1
aI2
aI1
as(S'deplorable'
p929
g10
tp930
(lp931
I1
aI2
aI1
as(S'friendly'
p932
g2
tp933
(lp934
I1
aI2
aI1
as(S'job'
p935
g6
tp936
(lp937
I1
aI2
aI2
as(S'central'
p938
g10
tp939
(lp940
I1
aI2
aI1
as(S'stressful'
p941
g10
tp942
(lp943
I1
aI3
aI1
as(S'time'
p944
g6
tp945
(lp946
I1
aI1
aI2
as(S'money'
p947
g6
tp948
(lp949
I1
aI2
aI1
as(S'autocratic'
p950
g10
tp951
(lp952
I1
aI2
aI1
as.